
Vent_box.elf:     file format elf32-avr

Sections:
Idx Name          Size      VMA       LMA       File off  Algn
  0 .data         0000027a  00800100  0000556a  000055fe  2**0
                  CONTENTS, ALLOC, LOAD, DATA
  1 .text         0000556a  00000000  00000000  00000094  2**1
                  CONTENTS, ALLOC, LOAD, READONLY, CODE
  2 .bss          00000226  0080037a  0080037a  00005878  2**0
                  ALLOC
  3 .comment      0000005c  00000000  00000000  00005878  2**0
                  CONTENTS, READONLY
  4 .note.gnu.avr.deviceinfo 00000040  00000000  00000000  000058d4  2**2
                  CONTENTS, READONLY
  5 .debug_aranges 00000258  00000000  00000000  00005914  2**0
                  CONTENTS, READONLY, DEBUGGING
  6 .debug_info   0000b509  00000000  00000000  00005b6c  2**0
                  CONTENTS, READONLY, DEBUGGING
  7 .debug_abbrev 00001737  00000000  00000000  00011075  2**0
                  CONTENTS, READONLY, DEBUGGING
  8 .debug_line   00003eeb  00000000  00000000  000127ac  2**0
                  CONTENTS, READONLY, DEBUGGING
  9 .debug_frame  000004c8  00000000  00000000  00016698  2**2
                  CONTENTS, READONLY, DEBUGGING
 10 .debug_str    000008b6  00000000  00000000  00016b60  2**0
                  CONTENTS, READONLY, DEBUGGING
 11 .debug_loc    00000ed2  00000000  00000000  00017416  2**0
                  CONTENTS, READONLY, DEBUGGING
 12 .debug_ranges 00000198  00000000  00000000  000182e8  2**0
                  CONTENTS, READONLY, DEBUGGING

Disassembly of section .text:

00000000 <__vectors>:
       0:	0c 94 c3 00 	jmp	0x186	; 0x186 <__ctors_end>
       4:	0c 94 e0 00 	jmp	0x1c0	; 0x1c0 <__bad_interrupt>
       8:	0c 94 e0 00 	jmp	0x1c0	; 0x1c0 <__bad_interrupt>
       c:	0c 94 e0 00 	jmp	0x1c0	; 0x1c0 <__bad_interrupt>
      10:	0c 94 e0 00 	jmp	0x1c0	; 0x1c0 <__bad_interrupt>
      14:	0c 94 e0 00 	jmp	0x1c0	; 0x1c0 <__bad_interrupt>
      18:	0c 94 e0 00 	jmp	0x1c0	; 0x1c0 <__bad_interrupt>
      1c:	0c 94 60 08 	jmp	0x10c0	; 0x10c0 <__vector_7>
      20:	0c 94 e0 00 	jmp	0x1c0	; 0x1c0 <__bad_interrupt>
      24:	0c 94 e0 00 	jmp	0x1c0	; 0x1c0 <__bad_interrupt>
      28:	0c 94 e0 00 	jmp	0x1c0	; 0x1c0 <__bad_interrupt>
      2c:	0c 94 91 08 	jmp	0x1122	; 0x1122 <__vector_11>
      30:	0c 94 e0 00 	jmp	0x1c0	; 0x1c0 <__bad_interrupt>
      34:	0c 94 e0 00 	jmp	0x1c0	; 0x1c0 <__bad_interrupt>
      38:	0c 94 e0 00 	jmp	0x1c0	; 0x1c0 <__bad_interrupt>
      3c:	0c 94 e0 00 	jmp	0x1c0	; 0x1c0 <__bad_interrupt>
      40:	0c 94 e0 00 	jmp	0x1c0	; 0x1c0 <__bad_interrupt>
      44:	0c 94 e0 00 	jmp	0x1c0	; 0x1c0 <__bad_interrupt>
      48:	0c 94 e0 00 	jmp	0x1c0	; 0x1c0 <__bad_interrupt>
      4c:	0c 94 e0 00 	jmp	0x1c0	; 0x1c0 <__bad_interrupt>
      50:	0c 94 e0 00 	jmp	0x1c0	; 0x1c0 <__bad_interrupt>
      54:	0c 94 e0 00 	jmp	0x1c0	; 0x1c0 <__bad_interrupt>
      58:	0c 94 e0 00 	jmp	0x1c0	; 0x1c0 <__bad_interrupt>
      5c:	0c 94 e0 00 	jmp	0x1c0	; 0x1c0 <__bad_interrupt>
      60:	0c 94 e0 00 	jmp	0x1c0	; 0x1c0 <__bad_interrupt>
      64:	0c 94 e0 00 	jmp	0x1c0	; 0x1c0 <__bad_interrupt>
      68:	51 0d       	add	r21, r1
      6a:	5c 0d       	add	r21, r12
      6c:	67 0d       	add	r22, r7
      6e:	72 0d       	add	r23, r2
      70:	7d 0d       	add	r23, r13
      72:	88 0d       	add	r24, r8
      74:	93 0d       	add	r25, r3
      76:	57 0e       	add	r5, r23
      78:	62 0e       	add	r6, r18
      7a:	6d 0e       	add	r6, r29
      7c:	78 0e       	add	r7, r24
      7e:	83 0e       	add	r8, r19
      80:	8e 0e       	add	r8, r30
      82:	99 0e       	add	r9, r25

00000084 <__trampolines_end>:
      84:	6e 61       	ori	r22, 0x1E	; 30
      86:	6e 00       	.word	0x006e	; ????

00000088 <__c.2332>:
      88:	69 6e 66 00 00 40 7a 10 f3 5a 00 a0 72 4e 18 09     inf..@z..Z..rN..
      98:	00 10 a5 d4 e8 00 00 e8 76 48 17 00 00 e4 0b 54     ........vH.....T
      a8:	02 00 00 ca 9a 3b 00 00 00 e1 f5 05 00 00 80 96     .....;..........
      b8:	98 00 00 00 40 42 0f 00 00 00 a0 86 01 00 00 00     ....@B..........
      c8:	10 27 00 00 00 00 e8 03 00 00 00 00 64 00 00 00     .'..........d...
      d8:	00 00 0a 00 00 00 00 00 01 00 00 00 00 00 2c 76     ..............,v
      e8:	d8 88 dc 67 4f 08 23 df c1 df ae 59 e1 b1 b7 96     ...gO.#....Y....
      f8:	e5 e3 e4 53 c6 3a e6 51 99 76 96 e8 e6 c2 84 26     ...S.:.Q.v.....&
     108:	eb 89 8c 9b 62 ed 40 7c 6f fc ef bc 9c 9f 40 f2     ....b.@|o.....@.
     118:	ba a5 6f a5 f4 90 05 5a 2a f7 5c 93 6b 6c f9 67     ..o....Z*.\.kl.g
     128:	6d c1 1b fc e0 e4 0d 47 fe f5 20 e6 b5 00 d0 ed     m......G.. .....
     138:	90 2e 03 00 94 35 77 05 00 80 84 1e 08 00 00 20     .....5w........ 
     148:	4e 0a 00 00 00 c8 0c 33 33 33 33 0f 98 6e 12 83     N......3333..n..
     158:	11 41 ef 8d 21 14 89 3b e6 55 16 cf fe e6 db 18     .A..!..;.U......
     168:	d1 84 4b 38 1b f7 7c 1d 90 1d a4 bb e4 24 20 32     ..K8..|......$ 2
     178:	84 72 5e 22 81 00 c9 f1 24 ec a1 e5 3d 27           .r^"....$...='

00000186 <__ctors_end>:
     186:	11 24       	eor	r1, r1
     188:	1f be       	out	0x3f, r1	; 63
     18a:	cf ef       	ldi	r28, 0xFF	; 255
     18c:	d8 e0       	ldi	r29, 0x08	; 8
     18e:	de bf       	out	0x3e, r29	; 62
     190:	cd bf       	out	0x3d, r28	; 61

00000192 <__do_copy_data>:
     192:	13 e0       	ldi	r17, 0x03	; 3
     194:	a0 e0       	ldi	r26, 0x00	; 0
     196:	b1 e0       	ldi	r27, 0x01	; 1
     198:	ea e6       	ldi	r30, 0x6A	; 106
     19a:	f5 e5       	ldi	r31, 0x55	; 85
     19c:	02 c0       	rjmp	.+4      	; 0x1a2 <__do_copy_data+0x10>
     19e:	05 90       	lpm	r0, Z+
     1a0:	0d 92       	st	X+, r0
     1a2:	aa 37       	cpi	r26, 0x7A	; 122
     1a4:	b1 07       	cpc	r27, r17
     1a6:	d9 f7       	brne	.-10     	; 0x19e <__do_copy_data+0xc>

000001a8 <__do_clear_bss>:
     1a8:	25 e0       	ldi	r18, 0x05	; 5
     1aa:	aa e7       	ldi	r26, 0x7A	; 122
     1ac:	b3 e0       	ldi	r27, 0x03	; 3
     1ae:	01 c0       	rjmp	.+2      	; 0x1b2 <.do_clear_bss_start>

000001b0 <.do_clear_bss_loop>:
     1b0:	1d 92       	st	X+, r1

000001b2 <.do_clear_bss_start>:
     1b2:	a0 3a       	cpi	r26, 0xA0	; 160
     1b4:	b2 07       	cpc	r27, r18
     1b6:	e1 f7       	brne	.-8      	; 0x1b0 <.do_clear_bss_loop>
     1b8:	0e 94 a8 08 	call	0x1150	; 0x1150 <main>
     1bc:	0c 94 b3 2a 	jmp	0x5566	; 0x5566 <_exit>

000001c0 <__bad_interrupt>:
     1c0:	0c 94 00 00 	jmp	0	; 0x0 <__vectors>

000001c4 <read_adc>:
#include "ADConverter.h"

// Функция чтения АЦП
int read_adc (unsigned char ch)
{
	ADMUX = ch; // Выбираем канал АЦП
     1c4:	80 93 7c 00 	sts	0x007C, r24	; 0x80007c <__DATA_REGION_ORIGIN__+0x1c>
	ADCSRA |= (1 << ADSC); // Запускаем преобразование
     1c8:	ea e7       	ldi	r30, 0x7A	; 122
     1ca:	f0 e0       	ldi	r31, 0x00	; 0
     1cc:	80 81       	ld	r24, Z
     1ce:	80 64       	ori	r24, 0x40	; 64
     1d0:	80 83       	st	Z, r24
	while((ADCSRA & (1 << ADSC))); // Ждем окончания преобразования
     1d2:	80 81       	ld	r24, Z
     1d4:	86 fd       	sbrc	r24, 6
     1d6:	fd cf       	rjmp	.-6      	; 0x1d2 <read_adc+0xe>
	ADC=(ADCL|ADCH<<8);
     1d8:	e8 e7       	ldi	r30, 0x78	; 120
     1da:	f0 e0       	ldi	r31, 0x00	; 0
     1dc:	80 81       	ld	r24, Z
     1de:	20 91 79 00 	lds	r18, 0x0079	; 0x800079 <__DATA_REGION_ORIGIN__+0x19>
     1e2:	90 e0       	ldi	r25, 0x00	; 0
     1e4:	92 2b       	or	r25, r18
     1e6:	91 83       	std	Z+1, r25	; 0x01
     1e8:	80 83       	st	Z, r24
	return(ADC); // Возвращаем значение АЦП
     1ea:	80 81       	ld	r24, Z
     1ec:	91 81       	ldd	r25, Z+1	; 0x01
	ADCL=0;
	ADCH=0;
}
     1ee:	08 95       	ret

000001f0 <current_adc>:

// Действующее значение АЦП
int current_adc ()
{
     1f0:	0f 93       	push	r16
     1f2:	1f 93       	push	r17
     1f4:	cf 93       	push	r28
     1f6:	df 93       	push	r29
	u_curr=0;
     1f8:	10 92 47 04 	sts	0x0447, r1	; 0x800447 <u_curr+0x1>
     1fc:	10 92 46 04 	sts	0x0446, r1	; 0x800446 <u_curr>
	v_curr=0;
     200:	10 92 cd 03 	sts	0x03CD, r1	; 0x8003cd <v_curr+0x1>
     204:	10 92 cc 03 	sts	0x03CC, r1	; 0x8003cc <v_curr>
	w_curr=0;
     208:	10 92 32 04 	sts	0x0432, r1	; 0x800432 <w_curr+0x1>
     20c:	10 92 31 04 	sts	0x0431, r1	; 0x800431 <w_curr>
	
fire=read_adc(0); //Чтение состояния входа ПОЖАР	
     210:	80 e0       	ldi	r24, 0x00	; 0
     212:	0e 94 e2 00 	call	0x1c4	; 0x1c4 <read_adc>
     216:	90 93 84 03 	sts	0x0384, r25	; 0x800384 <fire+0x1>
     21a:	80 93 83 03 	sts	0x0383, r24	; 0x800383 <fire>
     21e:	c7 e7       	ldi	r28, 0x77	; 119
     220:	d0 e0       	ldi	r29, 0x00	; 0
		{
			u_curr =volt_1;
			
			if(u_curr <512)
			{
				u_curr=512;
     222:	00 e0       	ldi	r16, 0x00	; 0
     224:	12 e0       	ldi	r17, 0x02	; 2
	w_curr=0;
	
fire=read_adc(0); //Чтение состояния входа ПОЖАР	
	for(int i=1;i<120;i++)
	{
		volt_1=(int) read_adc(3);
     226:	83 e0       	ldi	r24, 0x03	; 3
     228:	0e 94 e2 00 	call	0x1c4	; 0x1c4 <read_adc>
     22c:	90 93 91 05 	sts	0x0591, r25	; 0x800591 <volt_1+0x1>
     230:	80 93 90 05 	sts	0x0590, r24	; 0x800590 <volt_1>
		
		if(u_curr <= volt_1)
     234:	20 91 46 04 	lds	r18, 0x0446	; 0x800446 <u_curr>
     238:	30 91 47 04 	lds	r19, 0x0447	; 0x800447 <u_curr+0x1>
     23c:	82 17       	cp	r24, r18
     23e:	93 07       	cpc	r25, r19
     240:	6c f0       	brlt	.+26     	; 0x25c <current_adc+0x6c>
		{
			u_curr =volt_1;
			
			if(u_curr <512)
     242:	81 15       	cp	r24, r1
     244:	22 e0       	ldi	r18, 0x02	; 2
     246:	92 07       	cpc	r25, r18
     248:	2c f0       	brlt	.+10     	; 0x254 <current_adc+0x64>
	{
		volt_1=(int) read_adc(3);
		
		if(u_curr <= volt_1)
		{
			u_curr =volt_1;
     24a:	90 93 47 04 	sts	0x0447, r25	; 0x800447 <u_curr+0x1>
     24e:	80 93 46 04 	sts	0x0446, r24	; 0x800446 <u_curr>
     252:	04 c0       	rjmp	.+8      	; 0x25c <current_adc+0x6c>
			
			if(u_curr <512)
			{
				u_curr=512;
     254:	10 93 47 04 	sts	0x0447, r17	; 0x800447 <u_curr+0x1>
     258:	00 93 46 04 	sts	0x0446, r16	; 0x800446 <u_curr>
			}
		}
		
		volt_2=(int) read_adc(7);
     25c:	87 e0       	ldi	r24, 0x07	; 7
     25e:	0e 94 e2 00 	call	0x1c4	; 0x1c4 <read_adc>
     262:	90 93 ae 03 	sts	0x03AE, r25	; 0x8003ae <volt_2+0x1>
     266:	80 93 ad 03 	sts	0x03AD, r24	; 0x8003ad <volt_2>
		
		if(v_curr <= volt_2)
     26a:	20 91 cc 03 	lds	r18, 0x03CC	; 0x8003cc <v_curr>
     26e:	30 91 cd 03 	lds	r19, 0x03CD	; 0x8003cd <v_curr+0x1>
     272:	82 17       	cp	r24, r18
     274:	93 07       	cpc	r25, r19
     276:	6c f0       	brlt	.+26     	; 0x292 <current_adc+0xa2>
		{
			v_curr = volt_2;
			
			if(v_curr <512)
     278:	81 15       	cp	r24, r1
     27a:	22 e0       	ldi	r18, 0x02	; 2
     27c:	92 07       	cpc	r25, r18
     27e:	2c f0       	brlt	.+10     	; 0x28a <current_adc+0x9a>
		
		volt_2=(int) read_adc(7);
		
		if(v_curr <= volt_2)
		{
			v_curr = volt_2;
     280:	90 93 cd 03 	sts	0x03CD, r25	; 0x8003cd <v_curr+0x1>
     284:	80 93 cc 03 	sts	0x03CC, r24	; 0x8003cc <v_curr>
     288:	04 c0       	rjmp	.+8      	; 0x292 <current_adc+0xa2>
			
			if(v_curr <512)
			{
				v_curr=512;
     28a:	10 93 cd 03 	sts	0x03CD, r17	; 0x8003cd <v_curr+0x1>
     28e:	00 93 cc 03 	sts	0x03CC, r16	; 0x8003cc <v_curr>
			}
		}
		volt_3=(int) read_adc(6);
     292:	86 e0       	ldi	r24, 0x06	; 6
     294:	0e 94 e2 00 	call	0x1c4	; 0x1c4 <read_adc>
     298:	90 93 d0 03 	sts	0x03D0, r25	; 0x8003d0 <volt_3+0x1>
     29c:	80 93 cf 03 	sts	0x03CF, r24	; 0x8003cf <volt_3>
		
		
		if(w_curr <= volt_3)
     2a0:	20 91 31 04 	lds	r18, 0x0431	; 0x800431 <w_curr>
     2a4:	30 91 32 04 	lds	r19, 0x0432	; 0x800432 <w_curr+0x1>
     2a8:	82 17       	cp	r24, r18
     2aa:	93 07       	cpc	r25, r19
     2ac:	6c f0       	brlt	.+26     	; 0x2c8 <current_adc+0xd8>
		{
			w_curr =volt_3;
			
			if(w_curr <512)
     2ae:	81 15       	cp	r24, r1
     2b0:	22 e0       	ldi	r18, 0x02	; 2
     2b2:	92 07       	cpc	r25, r18
     2b4:	2c f0       	brlt	.+10     	; 0x2c0 <current_adc+0xd0>
		volt_3=(int) read_adc(6);
		
		
		if(w_curr <= volt_3)
		{
			w_curr =volt_3;
     2b6:	90 93 32 04 	sts	0x0432, r25	; 0x800432 <w_curr+0x1>
     2ba:	80 93 31 04 	sts	0x0431, r24	; 0x800431 <w_curr>
     2be:	04 c0       	rjmp	.+8      	; 0x2c8 <current_adc+0xd8>
			
			if(w_curr <512)
			{
				w_curr=512;
     2c0:	10 93 32 04 	sts	0x0432, r17	; 0x800432 <w_curr+0x1>
     2c4:	00 93 31 04 	sts	0x0431, r16	; 0x800431 <w_curr>
     2c8:	21 97       	sbiw	r28, 0x01	; 1
	u_curr=0;
	v_curr=0;
	w_curr=0;
	
fire=read_adc(0); //Чтение состояния входа ПОЖАР	
	for(int i=1;i<120;i++)
     2ca:	09 f0       	breq	.+2      	; 0x2ce <current_adc+0xde>
     2cc:	ac cf       	rjmp	.-168    	; 0x226 <current_adc+0x36>
	}
	return u_curr;
	return v_curr;
	return w_curr;
	return volt_3;
     2ce:	80 91 46 04 	lds	r24, 0x0446	; 0x800446 <u_curr>
     2d2:	90 91 47 04 	lds	r25, 0x0447	; 0x800447 <u_curr+0x1>
     2d6:	df 91       	pop	r29
     2d8:	cf 91       	pop	r28
     2da:	1f 91       	pop	r17
     2dc:	0f 91       	pop	r16
     2de:	08 95       	ret

000002e0 <vent_status>:
#include "AirCond.h"

unsigned char ind_t=0;
unsigned char ind_h=0;

void vent_status(void){
     2e0:	cf 92       	push	r12
     2e2:	df 92       	push	r13
     2e4:	ef 92       	push	r14
     2e6:	ff 92       	push	r15
     2e8:	cf 93       	push	r28
	
	
	if((delta_T<=60)&&(delta_T>=-10)){
     2ea:	c0 90 36 04 	lds	r12, 0x0436	; 0x800436 <delta_T>
     2ee:	d0 90 37 04 	lds	r13, 0x0437	; 0x800437 <delta_T+0x1>
     2f2:	e0 90 38 04 	lds	r14, 0x0438	; 0x800438 <delta_T+0x2>
     2f6:	f0 90 39 04 	lds	r15, 0x0439	; 0x800439 <delta_T+0x3>
     2fa:	20 e0       	ldi	r18, 0x00	; 0
     2fc:	30 e0       	ldi	r19, 0x00	; 0
     2fe:	40 e7       	ldi	r20, 0x70	; 112
     300:	52 e4       	ldi	r21, 0x42	; 66
     302:	c7 01       	movw	r24, r14
     304:	b6 01       	movw	r22, r12
     306:	0e 94 38 27 	call	0x4e70	; 0x4e70 <__cmpsf2>
     30a:	18 16       	cp	r1, r24
     30c:	0c f4       	brge	.+2      	; 0x310 <vent_status+0x30>
     30e:	56 c0       	rjmp	.+172    	; 0x3bc <vent_status+0xdc>
     310:	20 e0       	ldi	r18, 0x00	; 0
     312:	30 e0       	ldi	r19, 0x00	; 0
     314:	40 e2       	ldi	r20, 0x20	; 32
     316:	51 ec       	ldi	r21, 0xC1	; 193
     318:	c7 01       	movw	r24, r14
     31a:	b6 01       	movw	r22, r12
     31c:	0e 94 97 28 	call	0x512e	; 0x512e <__gesf2>
     320:	88 23       	and	r24, r24
     322:	0c f4       	brge	.+2      	; 0x326 <vent_status+0x46>
     324:	4b c0       	rjmp	.+150    	; 0x3bc <vent_status+0xdc>
	if((tm>=delta_T)&&(ind_t==0)){
     326:	20 91 09 04 	lds	r18, 0x0409	; 0x800409 <tm>
     32a:	30 91 0a 04 	lds	r19, 0x040A	; 0x80040a <tm+0x1>
     32e:	40 91 0b 04 	lds	r20, 0x040B	; 0x80040b <tm+0x2>
     332:	50 91 0c 04 	lds	r21, 0x040C	; 0x80040c <tm+0x3>
     336:	c7 01       	movw	r24, r14
     338:	b6 01       	movw	r22, r12
     33a:	0e 94 38 27 	call	0x4e70	; 0x4e70 <__cmpsf2>
     33e:	18 16       	cp	r1, r24
     340:	84 f0       	brlt	.+32     	; 0x362 <vent_status+0x82>
     342:	80 91 7b 03 	lds	r24, 0x037B	; 0x80037b <ind_t>
     346:	81 11       	cpse	r24, r1
     348:	0c c0       	rjmp	.+24     	; 0x362 <vent_status+0x82>
	ind_t=1;
     34a:	c1 e0       	ldi	r28, 0x01	; 1
     34c:	c0 93 7b 03 	sts	0x037B, r28	; 0x80037b <ind_t>
	G1;//Светодиод L2/D12	
     350:	41 e0       	ldi	r20, 0x01	; 1
     352:	60 e0       	ldi	r22, 0x00	; 0
     354:	70 e2       	ldi	r23, 0x20	; 32
     356:	80 e0       	ldi	r24, 0x00	; 0
     358:	90 e0       	ldi	r25, 0x00	; 0
     35a:	0e 94 77 14 	call	0x28ee	; 0x28ee <registr>
	 temp_alarm=1;
     35e:	c0 93 97 03 	sts	0x0397, r28	; 0x800397 <temp_alarm>
	}
	
	if((tm<=(delta_T-dt))&&(ind_t==1)){
     362:	20 91 8b 05 	lds	r18, 0x058B	; 0x80058b <dt>
     366:	30 91 8c 05 	lds	r19, 0x058C	; 0x80058c <dt+0x1>
     36a:	40 91 8d 05 	lds	r20, 0x058D	; 0x80058d <dt+0x2>
     36e:	50 91 8e 05 	lds	r21, 0x058E	; 0x80058e <dt+0x3>
     372:	60 91 36 04 	lds	r22, 0x0436	; 0x800436 <delta_T>
     376:	70 91 37 04 	lds	r23, 0x0437	; 0x800437 <delta_T+0x1>
     37a:	80 91 38 04 	lds	r24, 0x0438	; 0x800438 <delta_T+0x2>
     37e:	90 91 39 04 	lds	r25, 0x0439	; 0x800439 <delta_T+0x3>
     382:	0e 94 cb 26 	call	0x4d96	; 0x4d96 <__subsf3>
     386:	20 91 09 04 	lds	r18, 0x0409	; 0x800409 <tm>
     38a:	30 91 0a 04 	lds	r19, 0x040A	; 0x80040a <tm+0x1>
     38e:	40 91 0b 04 	lds	r20, 0x040B	; 0x80040b <tm+0x2>
     392:	50 91 0c 04 	lds	r21, 0x040C	; 0x80040c <tm+0x3>
     396:	0e 94 97 28 	call	0x512e	; 0x512e <__gesf2>
     39a:	88 23       	and	r24, r24
     39c:	7c f0       	brlt	.+30     	; 0x3bc <vent_status+0xdc>
     39e:	80 91 7b 03 	lds	r24, 0x037B	; 0x80037b <ind_t>
     3a2:	81 30       	cpi	r24, 0x01	; 1
     3a4:	59 f4       	brne	.+22     	; 0x3bc <vent_status+0xdc>
    ind_t=0;
     3a6:	10 92 7b 03 	sts	0x037B, r1	; 0x80037b <ind_t>
	G0;//Светодиод L2/D12	
     3aa:	40 e0       	ldi	r20, 0x00	; 0
     3ac:	60 e0       	ldi	r22, 0x00	; 0
     3ae:	70 e2       	ldi	r23, 0x20	; 32
     3b0:	80 e0       	ldi	r24, 0x00	; 0
     3b2:	90 e0       	ldi	r25, 0x00	; 0
     3b4:	0e 94 77 14 	call	0x28ee	; 0x28ee <registr>
	 temp_alarm=0;
     3b8:	10 92 97 03 	sts	0x0397, r1	; 0x800397 <temp_alarm>
	}
  }
 ////////////////////////////////////////////// 
  if(delta_H<=99){
     3bc:	c0 90 f5 03 	lds	r12, 0x03F5	; 0x8003f5 <delta_H>
     3c0:	d0 90 f6 03 	lds	r13, 0x03F6	; 0x8003f6 <delta_H+0x1>
     3c4:	e0 90 f7 03 	lds	r14, 0x03F7	; 0x8003f7 <delta_H+0x2>
     3c8:	f0 90 f8 03 	lds	r15, 0x03F8	; 0x8003f8 <delta_H+0x3>
     3cc:	20 e0       	ldi	r18, 0x00	; 0
     3ce:	30 e0       	ldi	r19, 0x00	; 0
     3d0:	46 ec       	ldi	r20, 0xC6	; 198
     3d2:	52 e4       	ldi	r21, 0x42	; 66
     3d4:	c7 01       	movw	r24, r14
     3d6:	b6 01       	movw	r22, r12
     3d8:	0e 94 38 27 	call	0x4e70	; 0x4e70 <__cmpsf2>
     3dc:	18 16       	cp	r1, r24
     3de:	0c f4       	brge	.+2      	; 0x3e2 <vent_status+0x102>
     3e0:	4b c0       	rjmp	.+150    	; 0x478 <__LOCK_REGION_LENGTH__+0x78>
	  if((hd>=delta_H)&&(ind_h==0)){
     3e2:	20 91 05 04 	lds	r18, 0x0405	; 0x800405 <hd>
     3e6:	30 91 06 04 	lds	r19, 0x0406	; 0x800406 <hd+0x1>
     3ea:	40 91 07 04 	lds	r20, 0x0407	; 0x800407 <hd+0x2>
     3ee:	50 91 08 04 	lds	r21, 0x0408	; 0x800408 <hd+0x3>
     3f2:	c7 01       	movw	r24, r14
     3f4:	b6 01       	movw	r22, r12
     3f6:	0e 94 38 27 	call	0x4e70	; 0x4e70 <__cmpsf2>
     3fa:	18 16       	cp	r1, r24
     3fc:	84 f0       	brlt	.+32     	; 0x41e <__LOCK_REGION_LENGTH__+0x1e>
     3fe:	80 91 7a 03 	lds	r24, 0x037A	; 0x80037a <__data_end>
     402:	81 11       	cpse	r24, r1
     404:	0c c0       	rjmp	.+24     	; 0x41e <__LOCK_REGION_LENGTH__+0x1e>
		  ind_h=1;
     406:	c1 e0       	ldi	r28, 0x01	; 1
     408:	c0 93 7a 03 	sts	0x037A, r28	; 0x80037a <__data_end>
		  H1;//Светодиод L1/D8
     40c:	41 e0       	ldi	r20, 0x01	; 1
     40e:	60 e0       	ldi	r22, 0x00	; 0
     410:	70 e4       	ldi	r23, 0x40	; 64
     412:	80 e0       	ldi	r24, 0x00	; 0
     414:	90 e0       	ldi	r25, 0x00	; 0
     416:	0e 94 77 14 	call	0x28ee	; 0x28ee <registr>
		  hum_alarm=1;
     41a:	c0 93 41 04 	sts	0x0441, r28	; 0x800441 <hum_alarm>
	  }
	  
	  if((hd<=(delta_H-dh))&&(ind_h==1)){
     41e:	20 91 a3 03 	lds	r18, 0x03A3	; 0x8003a3 <dh>
     422:	30 91 a4 03 	lds	r19, 0x03A4	; 0x8003a4 <dh+0x1>
     426:	40 91 a5 03 	lds	r20, 0x03A5	; 0x8003a5 <dh+0x2>
     42a:	50 91 a6 03 	lds	r21, 0x03A6	; 0x8003a6 <dh+0x3>
     42e:	60 91 f5 03 	lds	r22, 0x03F5	; 0x8003f5 <delta_H>
     432:	70 91 f6 03 	lds	r23, 0x03F6	; 0x8003f6 <delta_H+0x1>
     436:	80 91 f7 03 	lds	r24, 0x03F7	; 0x8003f7 <delta_H+0x2>
     43a:	90 91 f8 03 	lds	r25, 0x03F8	; 0x8003f8 <delta_H+0x3>
     43e:	0e 94 cb 26 	call	0x4d96	; 0x4d96 <__subsf3>
     442:	20 91 05 04 	lds	r18, 0x0405	; 0x800405 <hd>
     446:	30 91 06 04 	lds	r19, 0x0406	; 0x800406 <hd+0x1>
     44a:	40 91 07 04 	lds	r20, 0x0407	; 0x800407 <hd+0x2>
     44e:	50 91 08 04 	lds	r21, 0x0408	; 0x800408 <hd+0x3>
     452:	0e 94 97 28 	call	0x512e	; 0x512e <__gesf2>
     456:	88 23       	and	r24, r24
     458:	7c f0       	brlt	.+30     	; 0x478 <__LOCK_REGION_LENGTH__+0x78>
     45a:	80 91 7a 03 	lds	r24, 0x037A	; 0x80037a <__data_end>
     45e:	81 30       	cpi	r24, 0x01	; 1
     460:	59 f4       	brne	.+22     	; 0x478 <__LOCK_REGION_LENGTH__+0x78>
		  ind_h=0;
     462:	10 92 7a 03 	sts	0x037A, r1	; 0x80037a <__data_end>
		  H0;//Светодиод L1/D8
     466:	40 e0       	ldi	r20, 0x00	; 0
     468:	60 e0       	ldi	r22, 0x00	; 0
     46a:	70 e4       	ldi	r23, 0x40	; 64
     46c:	80 e0       	ldi	r24, 0x00	; 0
     46e:	90 e0       	ldi	r25, 0x00	; 0
     470:	0e 94 77 14 	call	0x28ee	; 0x28ee <registr>
		  hum_alarm=0;
     474:	10 92 41 04 	sts	0x0441, r1	; 0x800441 <hum_alarm>
	  }
  }
		
	
}
     478:	cf 91       	pop	r28
     47a:	ff 90       	pop	r15
     47c:	ef 90       	pop	r14
     47e:	df 90       	pop	r13
     480:	cf 90       	pop	r12
     482:	08 95       	ret

00000484 <AutoTemp>:
#include "LCD.h"
#include "ADConverter.h"

void AutoTemp()
{
	NORMAL1;
     484:	41 e0       	ldi	r20, 0x01	; 1
     486:	60 e0       	ldi	r22, 0x00	; 0
     488:	71 e0       	ldi	r23, 0x01	; 1
     48a:	80 e0       	ldi	r24, 0x00	; 0
     48c:	90 e0       	ldi	r25, 0x00	; 0
     48e:	0e 94 77 14 	call	0x28ee	; 0x28ee <registr>
	
 StatusBarTemp();
     492:	0e 94 17 0d 	call	0x1a2e	; 0x1a2e <StatusBarTemp>
if((preority==0)&&(external==0))
     496:	80 91 82 03 	lds	r24, 0x0382	; 0x800382 <preority>
     49a:	81 11       	cpse	r24, r1
     49c:	38 c0       	rjmp	.+112    	; 0x50e <AutoTemp+0x8a>
     49e:	80 91 28 04 	lds	r24, 0x0428	; 0x800428 <external>
     4a2:	81 11       	cpse	r24, r1
     4a4:	b8 c0       	rjmp	.+368    	; 0x616 <AutoTemp+0x192>
{
		
	if((temp_alarm==1)||(hum_alarm==1)){
     4a6:	80 91 97 03 	lds	r24, 0x0397	; 0x800397 <temp_alarm>
     4aa:	81 30       	cpi	r24, 0x01	; 1
     4ac:	29 f0       	breq	.+10     	; 0x4b8 <AutoTemp+0x34>
     4ae:	90 91 41 04 	lds	r25, 0x0441	; 0x800441 <hum_alarm>
     4b2:	91 30       	cpi	r25, 0x01	; 1
     4b4:	09 f0       	breq	.+2      	; 0x4b8 <AutoTemp+0x34>
     4b6:	a1 c0       	rjmp	.+322    	; 0x5fa <AutoTemp+0x176>
		RN1;
     4b8:	41 e0       	ldi	r20, 0x01	; 1
     4ba:	60 e8       	ldi	r22, 0x80	; 128
     4bc:	70 e0       	ldi	r23, 0x00	; 0
     4be:	80 e0       	ldi	r24, 0x00	; 0
     4c0:	90 e0       	ldi	r25, 0x00	; 0
     4c2:	0e 94 77 14 	call	0x28ee	; 0x28ee <registr>
		lcd_gotoxy(0, 0);
     4c6:	60 e0       	ldi	r22, 0x00	; 0
     4c8:	80 e8       	ldi	r24, 0x80	; 128
     4ca:	0e 94 47 05 	call	0xa8e	; 0xa8e <write_to_lcd>
		lcd_puts("PaІoїa іeЅї-pa  ");	
     4ce:	82 e0       	ldi	r24, 0x02	; 2
     4d0:	91 e0       	ldi	r25, 0x01	; 1
     4d2:	0e 94 1d 06 	call	0xc3a	; 0xc3a <lcd_puts>
		autorun=1;
     4d6:	81 e0       	ldi	r24, 0x01	; 1
     4d8:	80 93 7d 03 	sts	0x037D, r24	; 0x80037d <autorun>
	}
	
	if((temp_alarm==0)&&(hum_alarm==0)){
     4dc:	80 91 97 03 	lds	r24, 0x0397	; 0x800397 <temp_alarm>
     4e0:	81 11       	cpse	r24, r1
     4e2:	15 c0       	rjmp	.+42     	; 0x50e <AutoTemp+0x8a>
     4e4:	80 91 41 04 	lds	r24, 0x0441	; 0x800441 <hum_alarm>
     4e8:	81 11       	cpse	r24, r1
     4ea:	8a c0       	rjmp	.+276    	; 0x600 <AutoTemp+0x17c>
		RN0;
     4ec:	40 e0       	ldi	r20, 0x00	; 0
     4ee:	60 e8       	ldi	r22, 0x80	; 128
     4f0:	70 e0       	ldi	r23, 0x00	; 0
     4f2:	80 e0       	ldi	r24, 0x00	; 0
     4f4:	90 e0       	ldi	r25, 0x00	; 0
     4f6:	0e 94 77 14 	call	0x28ee	; 0x28ee <registr>
		lcd_gotoxy(0, 0);
     4fa:	60 e0       	ldi	r22, 0x00	; 0
     4fc:	80 e8       	ldi	r24, 0x80	; 128
     4fe:	0e 94 47 05 	call	0xa8e	; 0xa8e <write_to_lcd>
		lcd_puts("ABTO   PEЈҐM    ");
     502:	83 e1       	ldi	r24, 0x13	; 19
     504:	91 e0       	ldi	r25, 0x01	; 1
     506:	0e 94 1d 06 	call	0xc3a	; 0xc3a <lcd_puts>
		autorun=0;	
     50a:	10 92 7d 03 	sts	0x037D, r1	; 0x80037d <autorun>
	}
	
}

if((preority==2)||(external==1))
     50e:	80 91 82 03 	lds	r24, 0x0382	; 0x800382 <preority>
     512:	82 30       	cpi	r24, 0x02	; 2
     514:	21 f0       	breq	.+8      	; 0x51e <AutoTemp+0x9a>
     516:	80 91 28 04 	lds	r24, 0x0428	; 0x800428 <external>
     51a:	81 30       	cpi	r24, 0x01	; 1
     51c:	81 f5       	brne	.+96     	; 0x57e <AutoTemp+0xfa>
{	
	if((temp_alarm==1)||(hum_alarm==1)){
     51e:	80 91 97 03 	lds	r24, 0x0397	; 0x800397 <temp_alarm>
     522:	81 30       	cpi	r24, 0x01	; 1
     524:	21 f0       	breq	.+8      	; 0x52e <AutoTemp+0xaa>
     526:	80 91 41 04 	lds	r24, 0x0441	; 0x800441 <hum_alarm>
     52a:	81 30       	cpi	r24, 0x01	; 1
     52c:	41 f4       	brne	.+16     	; 0x53e <AutoTemp+0xba>
		lcd_gotoxy(0, 0);
     52e:	60 e0       	ldi	r22, 0x00	; 0
     530:	80 e8       	ldi	r24, 0x80	; 128
     532:	0e 94 47 05 	call	0xa8e	; 0xa8e <write_to_lcd>
		lcd_puts("Ёycє ¤AЁPEвўH   ");
     536:	84 e2       	ldi	r24, 0x24	; 36
     538:	91 e0       	ldi	r25, 0x01	; 1
     53a:	0e 94 1d 06 	call	0xc3a	; 0xc3a <lcd_puts>
	}
	if((temp_alarm==0)&&(hum_alarm==0)){
     53e:	80 91 97 03 	lds	r24, 0x0397	; 0x800397 <temp_alarm>
     542:	81 11       	cpse	r24, r1
     544:	15 c0       	rjmp	.+42     	; 0x570 <AutoTemp+0xec>
     546:	80 91 41 04 	lds	r24, 0x0441	; 0x800441 <hum_alarm>
     54a:	81 11       	cpse	r24, r1
     54c:	11 c0       	rjmp	.+34     	; 0x570 <AutoTemp+0xec>
		RN0;
     54e:	40 e0       	ldi	r20, 0x00	; 0
     550:	60 e8       	ldi	r22, 0x80	; 128
     552:	70 e0       	ldi	r23, 0x00	; 0
     554:	80 e0       	ldi	r24, 0x00	; 0
     556:	90 e0       	ldi	r25, 0x00	; 0
     558:	0e 94 77 14 	call	0x28ee	; 0x28ee <registr>
		lcd_gotoxy(0, 0);
     55c:	60 e0       	ldi	r22, 0x00	; 0
     55e:	80 e8       	ldi	r24, 0x80	; 128
     560:	0e 94 47 05 	call	0xa8e	; 0xa8e <write_to_lcd>
		lcd_puts("ABTO   PEЈҐM    ");
     564:	83 e1       	ldi	r24, 0x13	; 19
     566:	91 e0       	ldi	r25, 0x01	; 1
     568:	0e 94 1d 06 	call	0xc3a	; 0xc3a <lcd_puts>
		autorun=0;
     56c:	10 92 7d 03 	sts	0x037D, r1	; 0x80037d <autorun>
	}
	RN0;	
     570:	40 e0       	ldi	r20, 0x00	; 0
     572:	60 e8       	ldi	r22, 0x80	; 128
     574:	70 e0       	ldi	r23, 0x00	; 0
     576:	80 e0       	ldi	r24, 0x00	; 0
     578:	90 e0       	ldi	r25, 0x00	; 0
     57a:	0e 94 77 14 	call	0x28ee	; 0x28ee <registr>
}



if(preority==1)
     57e:	80 91 82 03 	lds	r24, 0x0382	; 0x800382 <preority>
     582:	81 30       	cpi	r24, 0x01	; 1
     584:	99 f5       	brne	.+102    	; 0x5ec <AutoTemp+0x168>
{
	
	if((temp_alarm==1)||(hum_alarm==1)){
     586:	80 91 97 03 	lds	r24, 0x0397	; 0x800397 <temp_alarm>
     58a:	81 30       	cpi	r24, 0x01	; 1
     58c:	21 f0       	breq	.+8      	; 0x596 <AutoTemp+0x112>
     58e:	80 91 41 04 	lds	r24, 0x0441	; 0x800441 <hum_alarm>
     592:	81 30       	cpi	r24, 0x01	; 1
     594:	91 f4       	brne	.+36     	; 0x5ba <AutoTemp+0x136>
		RN1;
     596:	41 e0       	ldi	r20, 0x01	; 1
     598:	60 e8       	ldi	r22, 0x80	; 128
     59a:	70 e0       	ldi	r23, 0x00	; 0
     59c:	80 e0       	ldi	r24, 0x00	; 0
     59e:	90 e0       	ldi	r25, 0x00	; 0
     5a0:	0e 94 77 14 	call	0x28ee	; 0x28ee <registr>
		lcd_gotoxy(0, 0);
     5a4:	60 e0       	ldi	r22, 0x00	; 0
     5a6:	80 e8       	ldi	r24, 0x80	; 128
     5a8:	0e 94 47 05 	call	0xa8e	; 0xa8e <write_to_lcd>
		lcd_puts("PaІoїa іeЅї-pa  ");
     5ac:	82 e0       	ldi	r24, 0x02	; 2
     5ae:	91 e0       	ldi	r25, 0x01	; 1
     5b0:	0e 94 1d 06 	call	0xc3a	; 0xc3a <lcd_puts>
		autorun=1;
     5b4:	81 e0       	ldi	r24, 0x01	; 1
     5b6:	80 93 7d 03 	sts	0x037D, r24	; 0x80037d <autorun>
	}
	
	if((temp_alarm==0)&&(hum_alarm==0)){
     5ba:	80 91 97 03 	lds	r24, 0x0397	; 0x800397 <temp_alarm>
     5be:	81 11       	cpse	r24, r1
     5c0:	15 c0       	rjmp	.+42     	; 0x5ec <AutoTemp+0x168>
     5c2:	80 91 41 04 	lds	r24, 0x0441	; 0x800441 <hum_alarm>
     5c6:	81 11       	cpse	r24, r1
     5c8:	11 c0       	rjmp	.+34     	; 0x5ec <AutoTemp+0x168>
		RN0;
     5ca:	40 e0       	ldi	r20, 0x00	; 0
     5cc:	60 e8       	ldi	r22, 0x80	; 128
     5ce:	70 e0       	ldi	r23, 0x00	; 0
     5d0:	80 e0       	ldi	r24, 0x00	; 0
     5d2:	90 e0       	ldi	r25, 0x00	; 0
     5d4:	0e 94 77 14 	call	0x28ee	; 0x28ee <registr>
		lcd_gotoxy(0, 0);
     5d8:	60 e0       	ldi	r22, 0x00	; 0
     5da:	80 e8       	ldi	r24, 0x80	; 128
     5dc:	0e 94 47 05 	call	0xa8e	; 0xa8e <write_to_lcd>
		lcd_puts("ABTO   PEЈҐM    ");
     5e0:	83 e1       	ldi	r24, 0x13	; 19
     5e2:	91 e0       	ldi	r25, 0x01	; 1
     5e4:	0e 94 1d 06 	call	0xc3a	; 0xc3a <lcd_puts>
		autorun=0;
     5e8:	10 92 7d 03 	sts	0x037D, r1	; 0x80037d <autorun>
	#else
		//round up by default
		__ticks_dc = (uint32_t)(ceil(fabs(__tmp)));
	#endif

	__builtin_avr_delay_cycles(__ticks_dc);
     5ec:	8f e3       	ldi	r24, 0x3F	; 63
     5ee:	9c e9       	ldi	r25, 0x9C	; 156
     5f0:	01 97       	sbiw	r24, 0x01	; 1
     5f2:	f1 f7       	brne	.-4      	; 0x5f0 <AutoTemp+0x16c>
     5f4:	00 c0       	rjmp	.+0      	; 0x5f6 <AutoTemp+0x172>
     5f6:	00 00       	nop
}

_delay_ms(10);	
	
	
}
     5f8:	08 95       	ret
		lcd_gotoxy(0, 0);
		lcd_puts("PaІoїa іeЅї-pa  ");	
		autorun=1;
	}
	
	if((temp_alarm==0)&&(hum_alarm==0)){
     5fa:	88 23       	and	r24, r24
     5fc:	39 f0       	breq	.+14     	; 0x60c <AutoTemp+0x188>
     5fe:	bf cf       	rjmp	.-130    	; 0x57e <AutoTemp+0xfa>
		autorun=0;	
	}
	
}

if((preority==2)||(external==1))
     600:	80 91 82 03 	lds	r24, 0x0382	; 0x800382 <preority>
     604:	82 30       	cpi	r24, 0x02	; 2
     606:	09 f4       	brne	.+2      	; 0x60a <AutoTemp+0x186>
     608:	8e cf       	rjmp	.-228    	; 0x526 <AutoTemp+0xa2>
     60a:	85 cf       	rjmp	.-246    	; 0x516 <AutoTemp+0x92>
		lcd_gotoxy(0, 0);
		lcd_puts("PaІoїa іeЅї-pa  ");	
		autorun=1;
	}
	
	if((temp_alarm==0)&&(hum_alarm==0)){
     60c:	80 91 41 04 	lds	r24, 0x0441	; 0x800441 <hum_alarm>
     610:	81 11       	cpse	r24, r1
     612:	81 cf       	rjmp	.-254    	; 0x516 <AutoTemp+0x92>
     614:	6b cf       	rjmp	.-298    	; 0x4ec <AutoTemp+0x68>
		autorun=0;	
	}
	
}

if((preority==2)||(external==1))
     616:	80 91 28 04 	lds	r24, 0x0428	; 0x800428 <external>
     61a:	81 30       	cpi	r24, 0x01	; 1
     61c:	39 f7       	brne	.-50     	; 0x5ec <AutoTemp+0x168>
     61e:	7f cf       	rjmp	.-258    	; 0x51e <AutoTemp+0x9a>

00000620 <read_dht_hum>:
#include "DHT.h"
#include <stdint.h>
#include <stdio.h>

int read_dht_hum()   //функция чтения данных датчика
{
     620:	cf 93       	push	r28
     622:	df 93       	push	r29
   
	unsigned char i,j;

	//=============MCU send START
	DHT_DDR|=(1<<DHT_BIT); //pin as output
     624:	57 9a       	sbi	0x0a, 7	; 10
	DHT_PORT&=~(1<<DHT_BIT); //0
     626:	5f 98       	cbi	0x0b, 7	; 11
     628:	2f ef       	ldi	r18, 0xFF	; 255
     62a:	80 ee       	ldi	r24, 0xE0	; 224
     62c:	90 e0       	ldi	r25, 0x00	; 0
     62e:	21 50       	subi	r18, 0x01	; 1
     630:	80 40       	sbci	r24, 0x00	; 0
     632:	90 40       	sbci	r25, 0x00	; 0
     634:	e1 f7       	brne	.-8      	; 0x62e <read_dht_hum+0xe>
     636:	00 c0       	rjmp	.+0      	; 0x638 <read_dht_hum+0x18>
     638:	00 00       	nop
	_delay_ms(18);
	DHT_PORT|=(1<<DHT_BIT); //1
     63a:	5f 9a       	sbi	0x0b, 7	; 11
	DHT_DDR&=~(1<<DHT_BIT); //pin as input
     63c:	57 98       	cbi	0x0a, 7	; 10
	#else
		//round up by default
		__ticks_dc = (uint32_t)(ceil(fabs(__tmp)));
	#endif

	__builtin_avr_delay_cycles(__ticks_dc);
     63e:	87 ec       	ldi	r24, 0xC7	; 199
     640:	90 e0       	ldi	r25, 0x00	; 0
     642:	01 97       	sbiw	r24, 0x01	; 1
     644:	f1 f7       	brne	.-4      	; 0x642 <read_dht_hum+0x22>
     646:	00 c0       	rjmp	.+0      	; 0x648 <read_dht_hum+0x28>
     648:	00 00       	nop
	//=============check DHT11 response
	_delay_us(50);
	if (DHT_PIN&(1<<DHT_BIT))
     64a:	4f 99       	sbic	0x09, 7	; 9
     64c:	31 c0       	rjmp	.+98     	; 0x6b0 <read_dht_hum+0x90>
     64e:	8f e3       	ldi	r24, 0x3F	; 63
     650:	91 e0       	ldi	r25, 0x01	; 1
     652:	01 97       	sbiw	r24, 0x01	; 1
     654:	f1 f7       	brne	.-4      	; 0x652 <read_dht_hum+0x32>
     656:	00 c0       	rjmp	.+0      	; 0x658 <read_dht_hum+0x38>
     658:	00 00       	nop
	{
		return 0;
	}
	_delay_us(80);
	if (!(DHT_PIN&(1<<DHT_BIT)))
     65a:	4f 9b       	sbis	0x09, 7	; 9
     65c:	2c c0       	rjmp	.+88     	; 0x6b6 <read_dht_hum+0x96>
	}
	//===============receive 40 data bits
	
	
	 
	while ((DHT_PIN&(1<<DHT_BIT)));
     65e:	4f 99       	sbic	0x09, 7	; 9
     660:	fe cf       	rjmp	.-4      	; 0x65e <read_dht_hum+0x3e>
     662:	ac e1       	ldi	r26, 0x1C	; 28
     664:	b4 e0       	ldi	r27, 0x04	; 4
     666:	c1 e2       	ldi	r28, 0x21	; 33
     668:	d4 e0       	ldi	r29, 0x04	; 4
		{
			
			while (!(DHT_PIN&(1<<DHT_BIT)));
			_delay_us (26);//30
			if (DHT_PIN&(1<<DHT_BIT))
			data[j]|=1<<(7-i);
     66a:	61 e0       	ldi	r22, 0x01	; 1
     66c:	70 e0       	ldi	r23, 0x00	; 0
     66e:	fd 01       	movw	r30, r26
	while ((DHT_PIN&(1<<DHT_BIT)));
	for (j=0; j<5; j++)
	{    
		
		   
		data[j]=0;
     670:	1c 92       	st	X, r1
     672:	87 e0       	ldi	r24, 0x07	; 7
     674:	90 e0       	ldi	r25, 0x00	; 0
		for(i=0; i<8; i++)
		{
			
			while (!(DHT_PIN&(1<<DHT_BIT)));
     676:	4f 9b       	sbis	0x09, 7	; 9
     678:	fe cf       	rjmp	.-4      	; 0x676 <read_dht_hum+0x56>
     67a:	2a e8       	ldi	r18, 0x8A	; 138
     67c:	2a 95       	dec	r18
     67e:	f1 f7       	brne	.-4      	; 0x67c <read_dht_hum+0x5c>
     680:	00 c0       	rjmp	.+0      	; 0x682 <read_dht_hum+0x62>
			_delay_us (26);//30
			if (DHT_PIN&(1<<DHT_BIT))
     682:	4f 9b       	sbis	0x09, 7	; 9
     684:	0a c0       	rjmp	.+20     	; 0x69a <read_dht_hum+0x7a>
			data[j]|=1<<(7-i);
     686:	40 81       	ld	r20, Z
     688:	9b 01       	movw	r18, r22
     68a:	08 2e       	mov	r0, r24
     68c:	02 c0       	rjmp	.+4      	; 0x692 <read_dht_hum+0x72>
     68e:	22 0f       	add	r18, r18
     690:	33 1f       	adc	r19, r19
     692:	0a 94       	dec	r0
     694:	e2 f7       	brpl	.-8      	; 0x68e <read_dht_hum+0x6e>
     696:	24 2b       	or	r18, r20
     698:	20 83       	st	Z, r18
			
			while ((DHT_PIN&(1<<DHT_BIT)));
     69a:	4f 99       	sbic	0x09, 7	; 9
     69c:	fe cf       	rjmp	.-4      	; 0x69a <read_dht_hum+0x7a>
     69e:	01 97       	sbiw	r24, 0x01	; 1
     6a0:	50 f7       	brcc	.-44     	; 0x676 <read_dht_hum+0x56>
     6a2:	11 96       	adiw	r26, 0x01	; 1
	//===============receive 40 data bits
	
	
	 
	while ((DHT_PIN&(1<<DHT_BIT)));
	for (j=0; j<5; j++)
     6a4:	ca 17       	cp	r28, r26
     6a6:	db 07       	cpc	r29, r27
     6a8:	11 f7       	brne	.-60     	; 0x66e <read_dht_hum+0x4e>
			
			while ((DHT_PIN&(1<<DHT_BIT)));
		}
	}
  
	return 1;
     6aa:	81 e0       	ldi	r24, 0x01	; 1
     6ac:	90 e0       	ldi	r25, 0x00	; 0
     6ae:	05 c0       	rjmp	.+10     	; 0x6ba <read_dht_hum+0x9a>
	DHT_DDR&=~(1<<DHT_BIT); //pin as input
	//=============check DHT11 response
	_delay_us(50);
	if (DHT_PIN&(1<<DHT_BIT))
	{
		return 0;
     6b0:	80 e0       	ldi	r24, 0x00	; 0
     6b2:	90 e0       	ldi	r25, 0x00	; 0
     6b4:	02 c0       	rjmp	.+4      	; 0x6ba <read_dht_hum+0x9a>
	}
	_delay_us(80);
	if (!(DHT_PIN&(1<<DHT_BIT)))
	{
		return 0;
     6b6:	80 e0       	ldi	r24, 0x00	; 0
     6b8:	90 e0       	ldi	r25, 0x00	; 0
	}
  
	return 1;
	
	
}
     6ba:	df 91       	pop	r29
     6bc:	cf 91       	pop	r28
     6be:	08 95       	ret

000006c0 <dht_read>:



void dht_read()
{
     6c0:	8f 92       	push	r8
     6c2:	9f 92       	push	r9
     6c4:	af 92       	push	r10
     6c6:	bf 92       	push	r11
     6c8:	cf 92       	push	r12
     6ca:	df 92       	push	r13
     6cc:	ef 92       	push	r14
     6ce:	ff 92       	push	r15
     6d0:	0f 93       	push	r16
     6d2:	1f 93       	push	r17
     6d4:	cf 93       	push	r28
     6d6:	df 93       	push	r29
	hum=0;
     6d8:	10 92 8d 03 	sts	0x038D, r1	; 0x80038d <hum>
//	cli();
	hum = read_dht_hum();
     6dc:	0e 94 10 03 	call	0x620	; 0x620 <read_dht_hum>
     6e0:	c8 2f       	mov	r28, r24
     6e2:	80 93 8d 03 	sts	0x038D, r24	; 0x80038d <hum>
//	sei();
	if(hum==1)
     6e6:	81 30       	cpi	r24, 0x01	; 1
     6e8:	09 f0       	breq	.+2      	; 0x6ec <dht_read+0x2c>
     6ea:	8b c0       	rjmp	.+278    	; 0x802 <dht_read+0x142>
	{
		 test=0;
     6ec:	10 92 fa 03 	sts	0x03FA, r1	; 0x8003fa <test+0x1>
     6f0:	10 92 f9 03 	sts	0x03F9, r1	; 0x8003f9 <test>
		 check_sum=(data[0])+(data[1])+(data[2])+(data[3]);
     6f4:	ec e1       	ldi	r30, 0x1C	; 28
     6f6:	f4 e0       	ldi	r31, 0x04	; 4
     6f8:	00 81       	ld	r16, Z
     6fa:	10 e0       	ldi	r17, 0x00	; 0
     6fc:	e1 80       	ldd	r14, Z+1	; 0x01
     6fe:	f1 2c       	mov	r15, r1
     700:	d2 81       	ldd	r29, Z+2	; 0x02
     702:	c3 80       	ldd	r12, Z+3	; 0x03
     704:	d1 2c       	mov	r13, r1
     706:	c8 01       	movw	r24, r16
     708:	8e 0d       	add	r24, r14
     70a:	9f 1d       	adc	r25, r15
     70c:	8d 0f       	add	r24, r29
     70e:	91 1d       	adc	r25, r1
     710:	8c 0d       	add	r24, r12
     712:	9d 1d       	adc	r25, r13
     714:	90 93 40 04 	sts	0x0440, r25	; 0x800440 <check_sum+0x1>
     718:	80 93 3f 04 	sts	0x043F, r24	; 0x80043f <check_sum>
		 tm= data[3]*0.1 + (data[2] & 0b01111111)*25.6;
     71c:	6d 2f       	mov	r22, r29
     71e:	6f 77       	andi	r22, 0x7F	; 127
     720:	70 e0       	ldi	r23, 0x00	; 0
     722:	80 e0       	ldi	r24, 0x00	; 0
     724:	90 e0       	ldi	r25, 0x00	; 0
     726:	0e 94 e7 27 	call	0x4fce	; 0x4fce <__floatsisf>
     72a:	2d ec       	ldi	r18, 0xCD	; 205
     72c:	3c ec       	ldi	r19, 0xCC	; 204
     72e:	4c ec       	ldi	r20, 0xCC	; 204
     730:	51 e4       	ldi	r21, 0x41	; 65
     732:	0e 94 9c 28 	call	0x5138	; 0x5138 <__mulsf3>
     736:	4b 01       	movw	r8, r22
     738:	5c 01       	movw	r10, r24
     73a:	b6 01       	movw	r22, r12
     73c:	dd 0c       	add	r13, r13
     73e:	88 0b       	sbc	r24, r24
     740:	99 0b       	sbc	r25, r25
     742:	0e 94 e7 27 	call	0x4fce	; 0x4fce <__floatsisf>
     746:	2d ec       	ldi	r18, 0xCD	; 205
     748:	3c ec       	ldi	r19, 0xCC	; 204
     74a:	4c ec       	ldi	r20, 0xCC	; 204
     74c:	5d e3       	ldi	r21, 0x3D	; 61
     74e:	0e 94 9c 28 	call	0x5138	; 0x5138 <__mulsf3>
     752:	9b 01       	movw	r18, r22
     754:	ac 01       	movw	r20, r24
     756:	c5 01       	movw	r24, r10
     758:	b4 01       	movw	r22, r8
     75a:	0e 94 cc 26 	call	0x4d98	; 0x4d98 <__addsf3>
     75e:	4b 01       	movw	r8, r22
     760:	5c 01       	movw	r10, r24
     762:	60 93 09 04 	sts	0x0409, r22	; 0x800409 <tm>
     766:	70 93 0a 04 	sts	0x040A, r23	; 0x80040a <tm+0x1>
     76a:	80 93 0b 04 	sts	0x040B, r24	; 0x80040b <tm+0x2>
     76e:	90 93 0c 04 	sts	0x040C, r25	; 0x80040c <tm+0x3>
		 tmp=data[3]*0.1 + (data[2] & 0b01111111)*25.6;
     772:	0e 94 af 27 	call	0x4f5e	; 0x4f5e <__fixsfsi>
     776:	70 93 8f 03 	sts	0x038F, r23	; 0x80038f <tmp+0x1>
     77a:	60 93 8e 03 	sts	0x038E, r22	; 0x80038e <tmp>
		 if (data[2] & 0b10000000)  tm*= -1;
     77e:	dd 23       	and	r29, r29
     780:	9c f4       	brge	.+38     	; 0x7a8 <dht_read+0xe8>
     782:	b7 fa       	bst	r11, 7
     784:	b0 94       	com	r11
     786:	b7 f8       	bld	r11, 7
     788:	b0 94       	com	r11
     78a:	80 92 09 04 	sts	0x0409, r8	; 0x800409 <tm>
     78e:	90 92 0a 04 	sts	0x040A, r9	; 0x80040a <tm+0x1>
     792:	a0 92 0b 04 	sts	0x040B, r10	; 0x80040b <tm+0x2>
     796:	b0 92 0c 04 	sts	0x040C, r11	; 0x80040c <tm+0x3>
		 if (data[2] & 0b10000000)  tmp*= -1;
     79a:	71 95       	neg	r23
     79c:	61 95       	neg	r22
     79e:	71 09       	sbc	r23, r1
     7a0:	70 93 8f 03 	sts	0x038F, r23	; 0x80038f <tmp+0x1>
     7a4:	60 93 8e 03 	sts	0x038E, r22	; 0x80038e <tmp>
		 hd=  data[1]*0.1 + data[0]*25.6;
     7a8:	b7 01       	movw	r22, r14
     7aa:	ff 0c       	add	r15, r15
     7ac:	88 0b       	sbc	r24, r24
     7ae:	99 0b       	sbc	r25, r25
     7b0:	0e 94 e7 27 	call	0x4fce	; 0x4fce <__floatsisf>
     7b4:	2d ec       	ldi	r18, 0xCD	; 205
     7b6:	3c ec       	ldi	r19, 0xCC	; 204
     7b8:	4c ec       	ldi	r20, 0xCC	; 204
     7ba:	5d e3       	ldi	r21, 0x3D	; 61
     7bc:	0e 94 9c 28 	call	0x5138	; 0x5138 <__mulsf3>
     7c0:	6b 01       	movw	r12, r22
     7c2:	7c 01       	movw	r14, r24
     7c4:	b8 01       	movw	r22, r16
     7c6:	11 0f       	add	r17, r17
     7c8:	88 0b       	sbc	r24, r24
     7ca:	99 0b       	sbc	r25, r25
     7cc:	0e 94 e7 27 	call	0x4fce	; 0x4fce <__floatsisf>
     7d0:	2d ec       	ldi	r18, 0xCD	; 205
     7d2:	3c ec       	ldi	r19, 0xCC	; 204
     7d4:	4c ec       	ldi	r20, 0xCC	; 204
     7d6:	51 e4       	ldi	r21, 0x41	; 65
     7d8:	0e 94 9c 28 	call	0x5138	; 0x5138 <__mulsf3>
     7dc:	9b 01       	movw	r18, r22
     7de:	ac 01       	movw	r20, r24
     7e0:	c7 01       	movw	r24, r14
     7e2:	b6 01       	movw	r22, r12
     7e4:	0e 94 cc 26 	call	0x4d98	; 0x4d98 <__addsf3>
     7e8:	60 93 05 04 	sts	0x0405, r22	; 0x800405 <hd>
     7ec:	70 93 06 04 	sts	0x0406, r23	; 0x800406 <hd+0x1>
     7f0:	80 93 07 04 	sts	0x0407, r24	; 0x800407 <hd+0x2>
     7f4:	90 93 08 04 	sts	0x0408, r25	; 0x800408 <hd+0x3>
		
	}
	if(hum==0){test=test+1;}
		if (test>100){test=100;receivemode=1;}
     7f8:	80 91 f9 03 	lds	r24, 0x03F9	; 0x8003f9 <test>
     7fc:	90 91 fa 03 	lds	r25, 0x03FA	; 0x8003fa <test+0x1>
     800:	1e c0       	rjmp	.+60     	; 0x83e <dht_read+0x17e>
		 if (data[2] & 0b10000000)  tm*= -1;
		 if (data[2] & 0b10000000)  tmp*= -1;
		 hd=  data[1]*0.1 + data[0]*25.6;
		
	}
	if(hum==0){test=test+1;}
     802:	81 11       	cpse	r24, r1
     804:	09 c0       	rjmp	.+18     	; 0x818 <dht_read+0x158>
     806:	80 91 f9 03 	lds	r24, 0x03F9	; 0x8003f9 <test>
     80a:	90 91 fa 03 	lds	r25, 0x03FA	; 0x8003fa <test+0x1>
     80e:	01 96       	adiw	r24, 0x01	; 1
     810:	90 93 fa 03 	sts	0x03FA, r25	; 0x8003fa <test+0x1>
     814:	80 93 f9 03 	sts	0x03F9, r24	; 0x8003f9 <test>
		if (test>100){test=100;receivemode=1;}
     818:	80 91 f9 03 	lds	r24, 0x03F9	; 0x8003f9 <test>
     81c:	90 91 fa 03 	lds	r25, 0x03FA	; 0x8003fa <test+0x1>
     820:	85 36       	cpi	r24, 0x65	; 101
     822:	91 05       	cpc	r25, r1
     824:	64 f0       	brlt	.+24     	; 0x83e <dht_read+0x17e>
     826:	84 e6       	ldi	r24, 0x64	; 100
     828:	90 e0       	ldi	r25, 0x00	; 0
     82a:	90 93 fa 03 	sts	0x03FA, r25	; 0x8003fa <test+0x1>
     82e:	80 93 f9 03 	sts	0x03F9, r24	; 0x8003f9 <test>
     832:	81 e0       	ldi	r24, 0x01	; 1
     834:	80 93 95 05 	sts	0x0595, r24	; 0x800595 <receivemode>
			if (test<100){receivemode=0;}
	if(hum==1){test=test-1;}	
     838:	c1 30       	cpi	r28, 0x01	; 1
     83a:	f1 f4       	brne	.+60     	; 0x878 <dht_read+0x1b8>
     83c:	08 c0       	rjmp	.+16     	; 0x84e <dht_read+0x18e>
		 hd=  data[1]*0.1 + data[0]*25.6;
		
	}
	if(hum==0){test=test+1;}
		if (test>100){test=100;receivemode=1;}
			if (test<100){receivemode=0;}
     83e:	84 36       	cpi	r24, 0x64	; 100
     840:	91 05       	cpc	r25, r1
     842:	14 f4       	brge	.+4      	; 0x848 <dht_read+0x188>
     844:	10 92 95 05 	sts	0x0595, r1	; 0x800595 <receivemode>
	if(hum==1){test=test-1;}	
     848:	c1 30       	cpi	r28, 0x01	; 1
     84a:	41 f4       	brne	.+16     	; 0x85c <dht_read+0x19c>
     84c:	02 c0       	rjmp	.+4      	; 0x852 <dht_read+0x192>
		 hd=  data[1]*0.1 + data[0]*25.6;
		
	}
	if(hum==0){test=test+1;}
		if (test>100){test=100;receivemode=1;}
			if (test<100){receivemode=0;}
     84e:	84 e6       	ldi	r24, 0x64	; 100
     850:	90 e0       	ldi	r25, 0x00	; 0
	if(hum==1){test=test-1;}	
     852:	01 97       	sbiw	r24, 0x01	; 1
     854:	90 93 fa 03 	sts	0x03FA, r25	; 0x8003fa <test+0x1>
     858:	80 93 f9 03 	sts	0x03F9, r24	; 0x8003f9 <test>
		if (test<4){receivemode=0;test=8;}
     85c:	80 91 f9 03 	lds	r24, 0x03F9	; 0x8003f9 <test>
     860:	90 91 fa 03 	lds	r25, 0x03FA	; 0x8003fa <test+0x1>
     864:	04 97       	sbiw	r24, 0x04	; 4
     866:	44 f4       	brge	.+16     	; 0x878 <dht_read+0x1b8>
     868:	10 92 95 05 	sts	0x0595, r1	; 0x800595 <receivemode>
     86c:	88 e0       	ldi	r24, 0x08	; 8
     86e:	90 e0       	ldi	r25, 0x00	; 0
     870:	90 93 fa 03 	sts	0x03FA, r25	; 0x8003fa <test+0x1>
     874:	80 93 f9 03 	sts	0x03F9, r24	; 0x8003f9 <test>
				
}
     878:	df 91       	pop	r29
     87a:	cf 91       	pop	r28
     87c:	1f 91       	pop	r17
     87e:	0f 91       	pop	r16
     880:	ff 90       	pop	r15
     882:	ef 90       	pop	r14
     884:	df 90       	pop	r13
     886:	cf 90       	pop	r12
     888:	bf 90       	pop	r11
     88a:	af 90       	pop	r10
     88c:	9f 90       	pop	r9
     88e:	8f 90       	pop	r8
     890:	08 95       	ret

00000892 <pr>:


void pr()
{  
	 dht_read();
     892:	0e 94 60 03 	call	0x6c0	; 0x6c0 <dht_read>
	lcd_gotoxy(0,1);              //перешли
     896:	60 e0       	ldi	r22, 0x00	; 0
     898:	80 ec       	ldi	r24, 0xC0	; 192
     89a:	0e 94 47 05 	call	0xa8e	; 0xa8e <write_to_lcd>
	sprintf(buff,"Tmp%.1fC/Hm%.1f%%  ",tm,hd);
     89e:	80 91 08 04 	lds	r24, 0x0408	; 0x800408 <hd+0x3>
     8a2:	8f 93       	push	r24
     8a4:	80 91 07 04 	lds	r24, 0x0407	; 0x800407 <hd+0x2>
     8a8:	8f 93       	push	r24
     8aa:	80 91 06 04 	lds	r24, 0x0406	; 0x800406 <hd+0x1>
     8ae:	8f 93       	push	r24
     8b0:	80 91 05 04 	lds	r24, 0x0405	; 0x800405 <hd>
     8b4:	8f 93       	push	r24
     8b6:	80 91 0c 04 	lds	r24, 0x040C	; 0x80040c <tm+0x3>
     8ba:	8f 93       	push	r24
     8bc:	80 91 0b 04 	lds	r24, 0x040B	; 0x80040b <tm+0x2>
     8c0:	8f 93       	push	r24
     8c2:	80 91 0a 04 	lds	r24, 0x040A	; 0x80040a <tm+0x1>
     8c6:	8f 93       	push	r24
     8c8:	80 91 09 04 	lds	r24, 0x0409	; 0x800409 <tm>
     8cc:	8f 93       	push	r24
     8ce:	85 e3       	ldi	r24, 0x35	; 53
     8d0:	91 e0       	ldi	r25, 0x01	; 1
     8d2:	9f 93       	push	r25
     8d4:	8f 93       	push	r24
     8d6:	81 eb       	ldi	r24, 0xB1	; 177
     8d8:	93 e0       	ldi	r25, 0x03	; 3
     8da:	9f 93       	push	r25
     8dc:	8f 93       	push	r24
     8de:	0e 94 33 2a 	call	0x5466	; 0x5466 <sprintf>
	lcd_puts(buff);
     8e2:	81 eb       	ldi	r24, 0xB1	; 177
     8e4:	93 e0       	ldi	r25, 0x03	; 3
     8e6:	0e 94 1d 06 	call	0xc3a	; 0xc3a <lcd_puts>
	
}
     8ea:	8d b7       	in	r24, 0x3d	; 61
     8ec:	9e b7       	in	r25, 0x3e	; 62
     8ee:	0c 96       	adiw	r24, 0x0c	; 12
     8f0:	0f b6       	in	r0, 0x3f	; 63
     8f2:	f8 94       	cli
     8f4:	9e bf       	out	0x3e, r25	; 62
     8f6:	0f be       	out	0x3f, r0	; 63
     8f8:	8d bf       	out	0x3d, r24	; 61
     8fa:	08 95       	ret

000008fc <EEPROM_write>:
#include "EepromDATA.h"

// Запись в EEPROM
void EEPROM_write(unsigned int uiAddress, unsigned char ucData)
{
	while(EECR & (1<<EEPE)) //ждем освобождения флага окончания последней операцией с памятью
     8fc:	f9 99       	sbic	0x1f, 1	; 31
     8fe:	fe cf       	rjmp	.-4      	; 0x8fc <EEPROM_write>
	{}
	EEAR = uiAddress; //Устанавливаем адрес
     900:	92 bd       	out	0x22, r25	; 34
     902:	81 bd       	out	0x21, r24	; 33
	EEDR = ucData; //Пищем данные в регистр
     904:	60 bd       	out	0x20, r22	; 32
	EECR |= (1<<EEMPE); //Разрешаем запись
     906:	fa 9a       	sbi	0x1f, 2	; 31
	EECR |= (1<<EEPE); //Пишем байт в память
     908:	f9 9a       	sbi	0x1f, 1	; 31
     90a:	08 95       	ret

0000090c <EEPROM_read>:


//Чтение из EEPROM
unsigned char EEPROM_read(unsigned int uiAddress)
{
	while(EECR & (1<<EEPE))
     90c:	f9 99       	sbic	0x1f, 1	; 31
     90e:	fe cf       	rjmp	.-4      	; 0x90c <EEPROM_read>
	{} //ждем освобождения флага окончания последней операцией с памятью
	EEAR = uiAddress; //Устанавливаем адрес
     910:	92 bd       	out	0x22, r25	; 34
     912:	81 bd       	out	0x21, r24	; 33
	EECR |= (1<<EERE); //Запускаем операцию считывания из памяти в регистр данных
     914:	f8 9a       	sbi	0x1f, 0	; 31
	return EEDR; //Возвращаем результат
     916:	80 b5       	in	r24, 0x20	; 32
}
     918:	08 95       	ret

0000091a <Alarm_line>:
#include "main.h"

void Alarm_line()
{
	//fire=read_adc(0); //Чтение состояния входа ПОЖАР
	if ((590<=fire)&&(fire  <=700)&&(TypeAL==1))
     91a:	80 91 83 03 	lds	r24, 0x0383	; 0x800383 <fire>
     91e:	90 91 84 03 	lds	r25, 0x0384	; 0x800384 <fire+0x1>
     922:	9c 01       	movw	r18, r24
     924:	2e 54       	subi	r18, 0x4E	; 78
     926:	32 40       	sbci	r19, 0x02	; 2
     928:	2f 36       	cpi	r18, 0x6F	; 111
     92a:	31 05       	cpc	r19, r1
     92c:	38 f4       	brcc	.+14     	; 0x93c <Alarm_line+0x22>
     92e:	40 91 85 03 	lds	r20, 0x0385	; 0x800385 <TypeAL>
     932:	41 30       	cpi	r20, 0x01	; 1
     934:	19 f4       	brne	.+6      	; 0x93c <Alarm_line+0x22>
	{
		preority=2;
     936:	42 e0       	ldi	r20, 0x02	; 2
     938:	40 93 82 03 	sts	0x0382, r20	; 0x800382 <preority>
		
	}
	if((fire>=400)&&(fire<589)&&(TypeAL==0))
     93c:	80 59       	subi	r24, 0x90	; 144
     93e:	91 40       	sbci	r25, 0x01	; 1
     940:	8d 3b       	cpi	r24, 0xBD	; 189
     942:	91 05       	cpc	r25, r1
     944:	e8 f4       	brcc	.+58     	; 0x980 <Alarm_line+0x66>
     946:	40 91 85 03 	lds	r20, 0x0385	; 0x800385 <TypeAL>
     94a:	41 11       	cpse	r20, r1
     94c:	15 c0       	rjmp	.+42     	; 0x978 <Alarm_line+0x5e>
	
	{
		preority=2;
     94e:	42 e0       	ldi	r20, 0x02	; 2
     950:	40 93 82 03 	sts	0x0382, r20	; 0x800382 <preority>
     954:	11 c0       	rjmp	.+34     	; 0x978 <Alarm_line+0x5e>
	if((fire<400)||(fire>750)  ) //Авария входа ТРЕВОГА
	{
		preority=1;	
	}
	
	if((fire>=400)&&(fire<589)&&(TypeAL==1)) //Норма входа ТРЕВОГА
     956:	80 91 85 03 	lds	r24, 0x0385	; 0x800385 <TypeAL>
     95a:	81 30       	cpi	r24, 0x01	; 1
     95c:	19 f4       	brne	.+6      	; 0x964 <Alarm_line+0x4a>
	{
		preority=0;
     95e:	10 92 82 03 	sts	0x0382, r1	; 0x800382 <preority>
     962:	08 95       	ret
			
	}
	if ((590<=fire)&&(fire<=700)&&(TypeAL==0)) //Норма входа ТРЕВОГА
     964:	2f 36       	cpi	r18, 0x6F	; 111
     966:	31 05       	cpc	r19, r1
     968:	b8 f4       	brcc	.+46     	; 0x998 <Alarm_line+0x7e>
     96a:	80 91 85 03 	lds	r24, 0x0385	; 0x800385 <TypeAL>
     96e:	81 11       	cpse	r24, r1
     970:	13 c0       	rjmp	.+38     	; 0x998 <Alarm_line+0x7e>
	{
		preority=0;
     972:	10 92 82 03 	sts	0x0382, r1	; 0x800382 <preority>
			
	}
}
     976:	08 95       	ret
		preority=2;

	}
	
	
	if((fire<400)||(fire>750)  ) //Авария входа ТРЕВОГА
     978:	8f 35       	cpi	r24, 0x5F	; 95
     97a:	91 40       	sbci	r25, 0x01	; 1
     97c:	28 f4       	brcc	.+10     	; 0x988 <Alarm_line+0x6e>
     97e:	eb cf       	rjmp	.-42     	; 0x956 <Alarm_line+0x3c>
     980:	8f 35       	cpi	r24, 0x5F	; 95
     982:	91 40       	sbci	r25, 0x01	; 1
     984:	78 f3       	brcs	.-34     	; 0x964 <Alarm_line+0x4a>
     986:	04 c0       	rjmp	.+8      	; 0x990 <Alarm_line+0x76>
	{
		preority=1;	
     988:	81 e0       	ldi	r24, 0x01	; 1
     98a:	80 93 82 03 	sts	0x0382, r24	; 0x800382 <preority>
     98e:	e3 cf       	rjmp	.-58     	; 0x956 <Alarm_line+0x3c>
     990:	81 e0       	ldi	r24, 0x01	; 1
     992:	80 93 82 03 	sts	0x0382, r24	; 0x800382 <preority>
     996:	e6 cf       	rjmp	.-52     	; 0x964 <Alarm_line+0x4a>
     998:	08 95       	ret

0000099a <PS500_line>:

#if(VENT_SYSTEM==2)

void PS500_line()
{
	preasure=read_adc(1); //Чтение состояния входа Датчика давления
     99a:	81 e0       	ldi	r24, 0x01	; 1
     99c:	0e 94 e2 00 	call	0x1c4	; 0x1c4 <read_adc>
     9a0:	90 93 81 03 	sts	0x0381, r25	; 0x800381 <preasure+0x1>
     9a4:	80 93 80 03 	sts	0x0380, r24	; 0x800380 <preasure>
	if ((590<=preasure) && (preasure  <=700) && (TypePS==1)) //Сработка в рабочем режиме
     9a8:	8e 54       	subi	r24, 0x4E	; 78
     9aa:	92 40       	sbci	r25, 0x02	; 2
     9ac:	8f 36       	cpi	r24, 0x6F	; 111
     9ae:	91 05       	cpc	r25, r1
     9b0:	68 f4       	brcc	.+26     	; 0x9cc <PS500_line+0x32>
     9b2:	80 91 86 03 	lds	r24, 0x0386	; 0x800386 <TypePS>
     9b6:	81 30       	cpi	r24, 0x01	; 1
     9b8:	49 f4       	brne	.+18     	; 0x9cc <PS500_line+0x32>
	{
		technic=1;
     9ba:	80 93 7f 03 	sts	0x037F, r24	; 0x80037f <technic>
		C1;
     9be:	41 e0       	ldi	r20, 0x01	; 1
     9c0:	60 e0       	ldi	r22, 0x00	; 0
     9c2:	74 e0       	ldi	r23, 0x04	; 4
     9c4:	80 e0       	ldi	r24, 0x00	; 0
     9c6:	90 e0       	ldi	r25, 0x00	; 0
     9c8:	0e 94 77 14 	call	0x28ee	; 0x28ee <registr>
	}
	
	if((preasure>=400)&&(preasure<589) && (TypePS==0))  //Сработка в рабочем режиме
     9cc:	80 91 80 03 	lds	r24, 0x0380	; 0x800380 <preasure>
     9d0:	90 91 81 03 	lds	r25, 0x0381	; 0x800381 <preasure+0x1>
     9d4:	80 59       	subi	r24, 0x90	; 144
     9d6:	91 40       	sbci	r25, 0x01	; 1
     9d8:	8d 3b       	cpi	r24, 0xBD	; 189
     9da:	91 05       	cpc	r25, r1
     9dc:	08 f0       	brcs	.+2      	; 0x9e0 <PS500_line+0x46>
     9de:	52 c0       	rjmp	.+164    	; 0xa84 <PS500_line+0xea>
     9e0:	20 91 86 03 	lds	r18, 0x0386	; 0x800386 <TypePS>
     9e4:	21 11       	cpse	r18, r1
     9e6:	4a c0       	rjmp	.+148    	; 0xa7c <PS500_line+0xe2>
	{
		technic=1;
     9e8:	81 e0       	ldi	r24, 0x01	; 1
     9ea:	80 93 7f 03 	sts	0x037F, r24	; 0x80037f <technic>
		C1;
     9ee:	41 e0       	ldi	r20, 0x01	; 1
     9f0:	60 e0       	ldi	r22, 0x00	; 0
     9f2:	74 e0       	ldi	r23, 0x04	; 4
     9f4:	80 e0       	ldi	r24, 0x00	; 0
     9f6:	90 e0       	ldi	r25, 0x00	; 0
     9f8:	0e 94 77 14 	call	0x28ee	; 0x28ee <registr>
	}
	
	
	
	
	if((preasure<400)||(preasure>750)) //Авария цепи датчика давления
     9fc:	80 91 80 03 	lds	r24, 0x0380	; 0x800380 <preasure>
     a00:	90 91 81 03 	lds	r25, 0x0381	; 0x800381 <preasure+0x1>
     a04:	80 59       	subi	r24, 0x90	; 144
     a06:	91 40       	sbci	r25, 0x01	; 1
     a08:	8f 35       	cpi	r24, 0x5F	; 95
     a0a:	91 40       	sbci	r25, 0x01	; 1
     a0c:	50 f0       	brcs	.+20     	; 0xa22 <PS500_line+0x88>
	{
		technic=2;
     a0e:	82 e0       	ldi	r24, 0x02	; 2
     a10:	80 93 7f 03 	sts	0x037F, r24	; 0x80037f <technic>
		
		D1;//  Аткивация выхода АВАРИЯ
     a14:	41 e0       	ldi	r20, 0x01	; 1
     a16:	60 e0       	ldi	r22, 0x00	; 0
     a18:	78 e0       	ldi	r23, 0x08	; 8
     a1a:	80 e0       	ldi	r24, 0x00	; 0
     a1c:	90 e0       	ldi	r25, 0x00	; 0
     a1e:	0e 94 77 14 	call	0x28ee	; 0x28ee <registr>
	}
	
	if((preasure>=400)&&(preasure<589) && (TypePS==1))  //Норма датчика
     a22:	80 91 80 03 	lds	r24, 0x0380	; 0x800380 <preasure>
     a26:	90 91 81 03 	lds	r25, 0x0381	; 0x800381 <preasure+0x1>
     a2a:	80 59       	subi	r24, 0x90	; 144
     a2c:	91 40       	sbci	r25, 0x01	; 1
     a2e:	8d 3b       	cpi	r24, 0xBD	; 189
     a30:	91 05       	cpc	r25, r1
     a32:	68 f4       	brcc	.+26     	; 0xa4e <PS500_line+0xb4>
     a34:	80 91 86 03 	lds	r24, 0x0386	; 0x800386 <TypePS>
     a38:	81 30       	cpi	r24, 0x01	; 1
     a3a:	49 f4       	brne	.+18     	; 0xa4e <PS500_line+0xb4>
	{
		technic=0;
     a3c:	10 92 7f 03 	sts	0x037F, r1	; 0x80037f <technic>
		C0;
     a40:	40 e0       	ldi	r20, 0x00	; 0
     a42:	60 e0       	ldi	r22, 0x00	; 0
     a44:	74 e0       	ldi	r23, 0x04	; 4
     a46:	80 e0       	ldi	r24, 0x00	; 0
     a48:	90 e0       	ldi	r25, 0x00	; 0
     a4a:	0e 94 77 14 	call	0x28ee	; 0x28ee <registr>
	}
	
	if ((590<=preasure) && (preasure<=700) && (TypePS==0)) //Норма датчика
     a4e:	80 91 80 03 	lds	r24, 0x0380	; 0x800380 <preasure>
     a52:	90 91 81 03 	lds	r25, 0x0381	; 0x800381 <preasure+0x1>
     a56:	8e 54       	subi	r24, 0x4E	; 78
     a58:	92 40       	sbci	r25, 0x02	; 2
     a5a:	8f 36       	cpi	r24, 0x6F	; 111
     a5c:	91 05       	cpc	r25, r1
     a5e:	b0 f4       	brcc	.+44     	; 0xa8c <PS500_line+0xf2>
     a60:	80 91 86 03 	lds	r24, 0x0386	; 0x800386 <TypePS>
     a64:	81 11       	cpse	r24, r1
     a66:	12 c0       	rjmp	.+36     	; 0xa8c <PS500_line+0xf2>
	{
		technic=0;
     a68:	10 92 7f 03 	sts	0x037F, r1	; 0x80037f <technic>
		C0;
     a6c:	40 e0       	ldi	r20, 0x00	; 0
     a6e:	60 e0       	ldi	r22, 0x00	; 0
     a70:	74 e0       	ldi	r23, 0x04	; 4
     a72:	80 e0       	ldi	r24, 0x00	; 0
     a74:	90 e0       	ldi	r25, 0x00	; 0
     a76:	0e 94 77 14 	call	0x28ee	; 0x28ee <registr>
	}
	
}
     a7a:	08 95       	ret
	}
	
	
	
	
	if((preasure<400)||(preasure>750)) //Авария цепи датчика давления
     a7c:	8f 35       	cpi	r24, 0x5F	; 95
     a7e:	91 40       	sbci	r25, 0x01	; 1
     a80:	c8 f2       	brcs	.-78     	; 0xa34 <PS500_line+0x9a>
     a82:	c5 cf       	rjmp	.-118    	; 0xa0e <PS500_line+0x74>
     a84:	8f 35       	cpi	r24, 0x5F	; 95
     a86:	91 40       	sbci	r25, 0x01	; 1
     a88:	10 f3       	brcs	.-60     	; 0xa4e <PS500_line+0xb4>
     a8a:	c1 cf       	rjmp	.-126    	; 0xa0e <PS500_line+0x74>
     a8c:	08 95       	ret

00000a8e <write_to_lcd>:



// Функция передачи данных или команды в LCD
void write_to_lcd(char p, unsigned char rs)
{
     a8e:	cf 93       	push	r28
     a90:	c8 2f       	mov	r28, r24
	if(rs == 1) RS1;
     a92:	61 30       	cpi	r22, 0x01	; 1
     a94:	41 f4       	brne	.+16     	; 0xaa6 <write_to_lcd+0x18>
     a96:	41 e0       	ldi	r20, 0x01	; 1
     a98:	61 e0       	ldi	r22, 0x01	; 1
     a9a:	70 e0       	ldi	r23, 0x00	; 0
     a9c:	80 e0       	ldi	r24, 0x00	; 0
     a9e:	90 e0       	ldi	r25, 0x00	; 0
     aa0:	0e 94 77 14 	call	0x28ee	; 0x28ee <registr>
     aa4:	07 c0       	rjmp	.+14     	; 0xab4 <write_to_lcd+0x26>
	else RS0;
     aa6:	40 e0       	ldi	r20, 0x00	; 0
     aa8:	61 e0       	ldi	r22, 0x01	; 1
     aaa:	70 e0       	ldi	r23, 0x00	; 0
     aac:	80 e0       	ldi	r24, 0x00	; 0
     aae:	90 e0       	ldi	r25, 0x00	; 0
     ab0:	0e 94 77 14 	call	0x28ee	; 0x28ee <registr>
	
	E1;
     ab4:	41 e0       	ldi	r20, 0x01	; 1
     ab6:	62 e0       	ldi	r22, 0x02	; 2
     ab8:	70 e0       	ldi	r23, 0x00	; 0
     aba:	80 e0       	ldi	r24, 0x00	; 0
     abc:	90 e0       	ldi	r25, 0x00	; 0
     abe:	0e 94 77 14 	call	0x28ee	; 0x28ee <registr>
	if(p&0x10) D41; else D40;
     ac2:	c4 ff       	sbrs	r28, 4
     ac4:	08 c0       	rjmp	.+16     	; 0xad6 <write_to_lcd+0x48>
     ac6:	41 e0       	ldi	r20, 0x01	; 1
     ac8:	64 e0       	ldi	r22, 0x04	; 4
     aca:	70 e0       	ldi	r23, 0x00	; 0
     acc:	80 e0       	ldi	r24, 0x00	; 0
     ace:	90 e0       	ldi	r25, 0x00	; 0
     ad0:	0e 94 77 14 	call	0x28ee	; 0x28ee <registr>
     ad4:	07 c0       	rjmp	.+14     	; 0xae4 <write_to_lcd+0x56>
     ad6:	40 e0       	ldi	r20, 0x00	; 0
     ad8:	64 e0       	ldi	r22, 0x04	; 4
     ada:	70 e0       	ldi	r23, 0x00	; 0
     adc:	80 e0       	ldi	r24, 0x00	; 0
     ade:	90 e0       	ldi	r25, 0x00	; 0
     ae0:	0e 94 77 14 	call	0x28ee	; 0x28ee <registr>
	if(p&0x20) D51; else D50;
     ae4:	c5 ff       	sbrs	r28, 5
     ae6:	08 c0       	rjmp	.+16     	; 0xaf8 <write_to_lcd+0x6a>
     ae8:	41 e0       	ldi	r20, 0x01	; 1
     aea:	68 e0       	ldi	r22, 0x08	; 8
     aec:	70 e0       	ldi	r23, 0x00	; 0
     aee:	80 e0       	ldi	r24, 0x00	; 0
     af0:	90 e0       	ldi	r25, 0x00	; 0
     af2:	0e 94 77 14 	call	0x28ee	; 0x28ee <registr>
     af6:	07 c0       	rjmp	.+14     	; 0xb06 <write_to_lcd+0x78>
     af8:	40 e0       	ldi	r20, 0x00	; 0
     afa:	68 e0       	ldi	r22, 0x08	; 8
     afc:	70 e0       	ldi	r23, 0x00	; 0
     afe:	80 e0       	ldi	r24, 0x00	; 0
     b00:	90 e0       	ldi	r25, 0x00	; 0
     b02:	0e 94 77 14 	call	0x28ee	; 0x28ee <registr>
	if(p&0x40) D61; else D60;
     b06:	c6 ff       	sbrs	r28, 6
     b08:	08 c0       	rjmp	.+16     	; 0xb1a <write_to_lcd+0x8c>
     b0a:	41 e0       	ldi	r20, 0x01	; 1
     b0c:	60 e1       	ldi	r22, 0x10	; 16
     b0e:	70 e0       	ldi	r23, 0x00	; 0
     b10:	80 e0       	ldi	r24, 0x00	; 0
     b12:	90 e0       	ldi	r25, 0x00	; 0
     b14:	0e 94 77 14 	call	0x28ee	; 0x28ee <registr>
     b18:	07 c0       	rjmp	.+14     	; 0xb28 <write_to_lcd+0x9a>
     b1a:	40 e0       	ldi	r20, 0x00	; 0
     b1c:	60 e1       	ldi	r22, 0x10	; 16
     b1e:	70 e0       	ldi	r23, 0x00	; 0
     b20:	80 e0       	ldi	r24, 0x00	; 0
     b22:	90 e0       	ldi	r25, 0x00	; 0
     b24:	0e 94 77 14 	call	0x28ee	; 0x28ee <registr>
	if(p&0x80) D71; else D70;
     b28:	cc 23       	and	r28, r28
     b2a:	44 f4       	brge	.+16     	; 0xb3c <write_to_lcd+0xae>
     b2c:	41 e0       	ldi	r20, 0x01	; 1
     b2e:	60 e2       	ldi	r22, 0x20	; 32
     b30:	70 e0       	ldi	r23, 0x00	; 0
     b32:	80 e0       	ldi	r24, 0x00	; 0
     b34:	90 e0       	ldi	r25, 0x00	; 0
     b36:	0e 94 77 14 	call	0x28ee	; 0x28ee <registr>
     b3a:	07 c0       	rjmp	.+14     	; 0xb4a <write_to_lcd+0xbc>
     b3c:	40 e0       	ldi	r20, 0x00	; 0
     b3e:	60 e2       	ldi	r22, 0x20	; 32
     b40:	70 e0       	ldi	r23, 0x00	; 0
     b42:	80 e0       	ldi	r24, 0x00	; 0
     b44:	90 e0       	ldi	r25, 0x00	; 0
     b46:	0e 94 77 14 	call	0x28ee	; 0x28ee <registr>
	E0;
     b4a:	40 e0       	ldi	r20, 0x00	; 0
     b4c:	62 e0       	ldi	r22, 0x02	; 2
     b4e:	70 e0       	ldi	r23, 0x00	; 0
     b50:	80 e0       	ldi	r24, 0x00	; 0
     b52:	90 e0       	ldi	r25, 0x00	; 0
     b54:	0e 94 77 14 	call	0x28ee	; 0x28ee <registr>
	#else
		//round up by default
		__ticks_dc = (uint32_t)(ceil(fabs(__tmp)));
	#endif

	__builtin_avr_delay_cycles(__ticks_dc);
     b58:	8f e3       	ldi	r24, 0x3F	; 63
     b5a:	9f e1       	ldi	r25, 0x1F	; 31
     b5c:	01 97       	sbiw	r24, 0x01	; 1
     b5e:	f1 f7       	brne	.-4      	; 0xb5c <write_to_lcd+0xce>
     b60:	00 c0       	rjmp	.+0      	; 0xb62 <write_to_lcd+0xd4>
     b62:	00 00       	nop
	
	_delay_ms(2);
	
	E1;
     b64:	41 e0       	ldi	r20, 0x01	; 1
     b66:	62 e0       	ldi	r22, 0x02	; 2
     b68:	70 e0       	ldi	r23, 0x00	; 0
     b6a:	80 e0       	ldi	r24, 0x00	; 0
     b6c:	90 e0       	ldi	r25, 0x00	; 0
     b6e:	0e 94 77 14 	call	0x28ee	; 0x28ee <registr>
	if(p&0x01) D41; else D40;
     b72:	c0 ff       	sbrs	r28, 0
     b74:	08 c0       	rjmp	.+16     	; 0xb86 <write_to_lcd+0xf8>
     b76:	41 e0       	ldi	r20, 0x01	; 1
     b78:	64 e0       	ldi	r22, 0x04	; 4
     b7a:	70 e0       	ldi	r23, 0x00	; 0
     b7c:	80 e0       	ldi	r24, 0x00	; 0
     b7e:	90 e0       	ldi	r25, 0x00	; 0
     b80:	0e 94 77 14 	call	0x28ee	; 0x28ee <registr>
     b84:	07 c0       	rjmp	.+14     	; 0xb94 <write_to_lcd+0x106>
     b86:	40 e0       	ldi	r20, 0x00	; 0
     b88:	64 e0       	ldi	r22, 0x04	; 4
     b8a:	70 e0       	ldi	r23, 0x00	; 0
     b8c:	80 e0       	ldi	r24, 0x00	; 0
     b8e:	90 e0       	ldi	r25, 0x00	; 0
     b90:	0e 94 77 14 	call	0x28ee	; 0x28ee <registr>
	if(p&0x02) D51; else D50;
     b94:	c1 ff       	sbrs	r28, 1
     b96:	08 c0       	rjmp	.+16     	; 0xba8 <write_to_lcd+0x11a>
     b98:	41 e0       	ldi	r20, 0x01	; 1
     b9a:	68 e0       	ldi	r22, 0x08	; 8
     b9c:	70 e0       	ldi	r23, 0x00	; 0
     b9e:	80 e0       	ldi	r24, 0x00	; 0
     ba0:	90 e0       	ldi	r25, 0x00	; 0
     ba2:	0e 94 77 14 	call	0x28ee	; 0x28ee <registr>
     ba6:	07 c0       	rjmp	.+14     	; 0xbb6 <write_to_lcd+0x128>
     ba8:	40 e0       	ldi	r20, 0x00	; 0
     baa:	68 e0       	ldi	r22, 0x08	; 8
     bac:	70 e0       	ldi	r23, 0x00	; 0
     bae:	80 e0       	ldi	r24, 0x00	; 0
     bb0:	90 e0       	ldi	r25, 0x00	; 0
     bb2:	0e 94 77 14 	call	0x28ee	; 0x28ee <registr>
	if(p&0x04) D61; else D60;
     bb6:	c2 ff       	sbrs	r28, 2
     bb8:	08 c0       	rjmp	.+16     	; 0xbca <write_to_lcd+0x13c>
     bba:	41 e0       	ldi	r20, 0x01	; 1
     bbc:	60 e1       	ldi	r22, 0x10	; 16
     bbe:	70 e0       	ldi	r23, 0x00	; 0
     bc0:	80 e0       	ldi	r24, 0x00	; 0
     bc2:	90 e0       	ldi	r25, 0x00	; 0
     bc4:	0e 94 77 14 	call	0x28ee	; 0x28ee <registr>
     bc8:	07 c0       	rjmp	.+14     	; 0xbd8 <write_to_lcd+0x14a>
     bca:	40 e0       	ldi	r20, 0x00	; 0
     bcc:	60 e1       	ldi	r22, 0x10	; 16
     bce:	70 e0       	ldi	r23, 0x00	; 0
     bd0:	80 e0       	ldi	r24, 0x00	; 0
     bd2:	90 e0       	ldi	r25, 0x00	; 0
     bd4:	0e 94 77 14 	call	0x28ee	; 0x28ee <registr>
	if(p&0x08) D71; else D70;
     bd8:	c3 ff       	sbrs	r28, 3
     bda:	08 c0       	rjmp	.+16     	; 0xbec <write_to_lcd+0x15e>
     bdc:	41 e0       	ldi	r20, 0x01	; 1
     bde:	60 e2       	ldi	r22, 0x20	; 32
     be0:	70 e0       	ldi	r23, 0x00	; 0
     be2:	80 e0       	ldi	r24, 0x00	; 0
     be4:	90 e0       	ldi	r25, 0x00	; 0
     be6:	0e 94 77 14 	call	0x28ee	; 0x28ee <registr>
     bea:	07 c0       	rjmp	.+14     	; 0xbfa <write_to_lcd+0x16c>
     bec:	40 e0       	ldi	r20, 0x00	; 0
     bee:	60 e2       	ldi	r22, 0x20	; 32
     bf0:	70 e0       	ldi	r23, 0x00	; 0
     bf2:	80 e0       	ldi	r24, 0x00	; 0
     bf4:	90 e0       	ldi	r25, 0x00	; 0
     bf6:	0e 94 77 14 	call	0x28ee	; 0x28ee <registr>
	E0;
     bfa:	40 e0       	ldi	r20, 0x00	; 0
     bfc:	62 e0       	ldi	r22, 0x02	; 2
     bfe:	70 e0       	ldi	r23, 0x00	; 0
     c00:	80 e0       	ldi	r24, 0x00	; 0
     c02:	90 e0       	ldi	r25, 0x00	; 0
     c04:	0e 94 77 14 	call	0x28ee	; 0x28ee <registr>
     c08:	8f e3       	ldi	r24, 0x3F	; 63
     c0a:	9f e1       	ldi	r25, 0x1F	; 31
     c0c:	01 97       	sbiw	r24, 0x01	; 1
     c0e:	f1 f7       	brne	.-4      	; 0xc0c <write_to_lcd+0x17e>
     c10:	00 c0       	rjmp	.+0      	; 0xc12 <write_to_lcd+0x184>
     c12:	00 00       	nop
	
	_delay_ms(2);
}
     c14:	cf 91       	pop	r28
     c16:	08 95       	ret

00000c18 <lcd_init>:


// Функция инициализации LCD
void lcd_init(void)
{
	write_to_lcd(0x02, 0); // Курсор в верхней левой позиции
     c18:	60 e0       	ldi	r22, 0x00	; 0
     c1a:	82 e0       	ldi	r24, 0x02	; 2
     c1c:	0e 94 47 05 	call	0xa8e	; 0xa8e <write_to_lcd>
	write_to_lcd(0x28, 0); // Шина 4 бит, LCD - 2 строки
     c20:	60 e0       	ldi	r22, 0x00	; 0
     c22:	88 e2       	ldi	r24, 0x28	; 40
     c24:	0e 94 47 05 	call	0xa8e	; 0xa8e <write_to_lcd>
	write_to_lcd(0x0C, 0); // Разрешаем вывод изображения, курсор не виден
     c28:	60 e0       	ldi	r22, 0x00	; 0
     c2a:	8c e0       	ldi	r24, 0x0C	; 12
     c2c:	0e 94 47 05 	call	0xa8e	; 0xa8e <write_to_lcd>
	write_to_lcd(0x01, 0); // Очищаем дисплей
     c30:	60 e0       	ldi	r22, 0x00	; 0
     c32:	81 e0       	ldi	r24, 0x01	; 1
     c34:	0e 94 47 05 	call	0xa8e	; 0xa8e <write_to_lcd>
     c38:	08 95       	ret

00000c3a <lcd_puts>:
}


// Функция вывода строки
void lcd_puts(const char *str)
{
     c3a:	0f 93       	push	r16
     c3c:	1f 93       	push	r17
     c3e:	cf 93       	push	r28
     c40:	fc 01       	movw	r30, r24
	unsigned char i = 0;
	
	while(str[i])
     c42:	80 81       	ld	r24, Z
     c44:	88 23       	and	r24, r24
     c46:	61 f0       	breq	.+24     	; 0xc60 <lcd_puts+0x26>
     c48:	8f 01       	movw	r16, r30
     c4a:	c0 e0       	ldi	r28, 0x00	; 0
	write_to_lcd(str[i++], 1);
     c4c:	cf 5f       	subi	r28, 0xFF	; 255
     c4e:	61 e0       	ldi	r22, 0x01	; 1
     c50:	0e 94 47 05 	call	0xa8e	; 0xa8e <write_to_lcd>
// Функция вывода строки
void lcd_puts(const char *str)
{
	unsigned char i = 0;
	
	while(str[i])
     c54:	f8 01       	movw	r30, r16
     c56:	ec 0f       	add	r30, r28
     c58:	f1 1d       	adc	r31, r1
     c5a:	80 81       	ld	r24, Z
     c5c:	81 11       	cpse	r24, r1
     c5e:	f6 cf       	rjmp	.-20     	; 0xc4c <lcd_puts+0x12>
	write_to_lcd(str[i++], 1);
}
     c60:	cf 91       	pop	r28
     c62:	1f 91       	pop	r17
     c64:	0f 91       	pop	r16
     c66:	08 95       	ret

00000c68 <lcd_num_to_str>:


// Функция вывода переменной
void lcd_num_to_str(unsigned int value, unsigned char nDigit)
{
     c68:	cf 93       	push	r28
     c6a:	df 93       	push	r29
     c6c:	ec 01       	movw	r28, r24
	switch(nDigit)
     c6e:	62 30       	cpi	r22, 0x02	; 2
     c70:	09 f4       	brne	.+2      	; 0xc74 <lcd_num_to_str+0xc>
     c72:	49 c0       	rjmp	.+146    	; 0xd06 <lcd_num_to_str+0x9e>
     c74:	20 f4       	brcc	.+8      	; 0xc7e <lcd_num_to_str+0x16>
     c76:	61 30       	cpi	r22, 0x01	; 1
     c78:	09 f4       	brne	.+2      	; 0xc7c <lcd_num_to_str+0x14>
     c7a:	6d c0       	rjmp	.+218    	; 0xd56 <lcd_num_to_str+0xee>
     c7c:	8a c0       	rjmp	.+276    	; 0xd92 <lcd_num_to_str+0x12a>
     c7e:	63 30       	cpi	r22, 0x03	; 3
     c80:	c1 f0       	breq	.+48     	; 0xcb2 <lcd_num_to_str+0x4a>
     c82:	64 30       	cpi	r22, 0x04	; 4
     c84:	09 f0       	breq	.+2      	; 0xc88 <lcd_num_to_str+0x20>
     c86:	85 c0       	rjmp	.+266    	; 0xd92 <lcd_num_to_str+0x12a>
	{
		case 4: write_to_lcd((value/1000)+'0', 1);
     c88:	9c 01       	movw	r18, r24
     c8a:	36 95       	lsr	r19
     c8c:	27 95       	ror	r18
     c8e:	36 95       	lsr	r19
     c90:	27 95       	ror	r18
     c92:	36 95       	lsr	r19
     c94:	27 95       	ror	r18
     c96:	a5 ec       	ldi	r26, 0xC5	; 197
     c98:	b0 e2       	ldi	r27, 0x20	; 32
     c9a:	0e 94 71 26 	call	0x4ce2	; 0x4ce2 <__umulhisi3>
     c9e:	92 95       	swap	r25
     ca0:	82 95       	swap	r24
     ca2:	8f 70       	andi	r24, 0x0F	; 15
     ca4:	89 27       	eor	r24, r25
     ca6:	9f 70       	andi	r25, 0x0F	; 15
     ca8:	89 27       	eor	r24, r25
     caa:	61 e0       	ldi	r22, 0x01	; 1
     cac:	80 5d       	subi	r24, 0xD0	; 208
     cae:	0e 94 47 05 	call	0xa8e	; 0xa8e <write_to_lcd>
		case 3: write_to_lcd(((value/100)%10)+'0', 1);
     cb2:	9e 01       	movw	r18, r28
     cb4:	36 95       	lsr	r19
     cb6:	27 95       	ror	r18
     cb8:	36 95       	lsr	r19
     cba:	27 95       	ror	r18
     cbc:	ab e7       	ldi	r26, 0x7B	; 123
     cbe:	b4 e1       	ldi	r27, 0x14	; 20
     cc0:	0e 94 71 26 	call	0x4ce2	; 0x4ce2 <__umulhisi3>
     cc4:	ac 01       	movw	r20, r24
     cc6:	56 95       	lsr	r21
     cc8:	47 95       	ror	r20
     cca:	9a 01       	movw	r18, r20
     ccc:	ad ec       	ldi	r26, 0xCD	; 205
     cce:	bc ec       	ldi	r27, 0xCC	; 204
     cd0:	0e 94 71 26 	call	0x4ce2	; 0x4ce2 <__umulhisi3>
     cd4:	96 95       	lsr	r25
     cd6:	87 95       	ror	r24
     cd8:	96 95       	lsr	r25
     cda:	87 95       	ror	r24
     cdc:	96 95       	lsr	r25
     cde:	87 95       	ror	r24
     ce0:	9c 01       	movw	r18, r24
     ce2:	22 0f       	add	r18, r18
     ce4:	33 1f       	adc	r19, r19
     ce6:	88 0f       	add	r24, r24
     ce8:	99 1f       	adc	r25, r25
     cea:	88 0f       	add	r24, r24
     cec:	99 1f       	adc	r25, r25
     cee:	88 0f       	add	r24, r24
     cf0:	99 1f       	adc	r25, r25
     cf2:	82 0f       	add	r24, r18
     cf4:	93 1f       	adc	r25, r19
     cf6:	9a 01       	movw	r18, r20
     cf8:	28 1b       	sub	r18, r24
     cfa:	39 0b       	sbc	r19, r25
     cfc:	c9 01       	movw	r24, r18
     cfe:	61 e0       	ldi	r22, 0x01	; 1
     d00:	80 5d       	subi	r24, 0xD0	; 208
     d02:	0e 94 47 05 	call	0xa8e	; 0xa8e <write_to_lcd>
		case 2: write_to_lcd(((value/10)%10)+'0', 1);
     d06:	9e 01       	movw	r18, r28
     d08:	ad ec       	ldi	r26, 0xCD	; 205
     d0a:	bc ec       	ldi	r27, 0xCC	; 204
     d0c:	0e 94 71 26 	call	0x4ce2	; 0x4ce2 <__umulhisi3>
     d10:	ac 01       	movw	r20, r24
     d12:	56 95       	lsr	r21
     d14:	47 95       	ror	r20
     d16:	56 95       	lsr	r21
     d18:	47 95       	ror	r20
     d1a:	56 95       	lsr	r21
     d1c:	47 95       	ror	r20
     d1e:	9a 01       	movw	r18, r20
     d20:	0e 94 71 26 	call	0x4ce2	; 0x4ce2 <__umulhisi3>
     d24:	96 95       	lsr	r25
     d26:	87 95       	ror	r24
     d28:	96 95       	lsr	r25
     d2a:	87 95       	ror	r24
     d2c:	96 95       	lsr	r25
     d2e:	87 95       	ror	r24
     d30:	9c 01       	movw	r18, r24
     d32:	22 0f       	add	r18, r18
     d34:	33 1f       	adc	r19, r19
     d36:	88 0f       	add	r24, r24
     d38:	99 1f       	adc	r25, r25
     d3a:	88 0f       	add	r24, r24
     d3c:	99 1f       	adc	r25, r25
     d3e:	88 0f       	add	r24, r24
     d40:	99 1f       	adc	r25, r25
     d42:	82 0f       	add	r24, r18
     d44:	93 1f       	adc	r25, r19
     d46:	9a 01       	movw	r18, r20
     d48:	28 1b       	sub	r18, r24
     d4a:	39 0b       	sbc	r19, r25
     d4c:	c9 01       	movw	r24, r18
     d4e:	61 e0       	ldi	r22, 0x01	; 1
     d50:	80 5d       	subi	r24, 0xD0	; 208
     d52:	0e 94 47 05 	call	0xa8e	; 0xa8e <write_to_lcd>
		case 1: write_to_lcd((value%10)+'0', 1);
     d56:	9e 01       	movw	r18, r28
     d58:	ad ec       	ldi	r26, 0xCD	; 205
     d5a:	bc ec       	ldi	r27, 0xCC	; 204
     d5c:	0e 94 71 26 	call	0x4ce2	; 0x4ce2 <__umulhisi3>
     d60:	96 95       	lsr	r25
     d62:	87 95       	ror	r24
     d64:	96 95       	lsr	r25
     d66:	87 95       	ror	r24
     d68:	96 95       	lsr	r25
     d6a:	87 95       	ror	r24
     d6c:	9c 01       	movw	r18, r24
     d6e:	22 0f       	add	r18, r18
     d70:	33 1f       	adc	r19, r19
     d72:	88 0f       	add	r24, r24
     d74:	99 1f       	adc	r25, r25
     d76:	88 0f       	add	r24, r24
     d78:	99 1f       	adc	r25, r25
     d7a:	88 0f       	add	r24, r24
     d7c:	99 1f       	adc	r25, r25
     d7e:	82 0f       	add	r24, r18
     d80:	93 1f       	adc	r25, r19
     d82:	9e 01       	movw	r18, r28
     d84:	28 1b       	sub	r18, r24
     d86:	39 0b       	sbc	r19, r25
     d88:	c9 01       	movw	r24, r18
     d8a:	61 e0       	ldi	r22, 0x01	; 1
     d8c:	80 5d       	subi	r24, 0xD0	; 208
     d8e:	0e 94 47 05 	call	0xa8e	; 0xa8e <write_to_lcd>
	}
     d92:	df 91       	pop	r29
     d94:	cf 91       	pop	r28
     d96:	08 95       	ret

00000d98 <meter>:

#if(VENT_SYSTEM==2) //Для систем ОВ
void meter()
{
	
	lvl_3=0;
     d98:	10 92 3a 04 	sts	0x043A, r1	; 0x80043a <lvl_3>
	volts_level=0;
     d9c:	10 92 0f 04 	sts	0x040F, r1	; 0x80040f <volts_level>
	al=0;
     da0:	10 92 11 04 	sts	0x0411, r1	; 0x800411 <al>
	measure=measure+1;
     da4:	80 91 c6 03 	lds	r24, 0x03C6	; 0x8003c6 <measure>
     da8:	90 91 c7 03 	lds	r25, 0x03C7	; 0x8003c7 <measure+0x1>
     dac:	01 96       	adiw	r24, 0x01	; 1
     dae:	90 93 c7 03 	sts	0x03C7, r25	; 0x8003c7 <measure+0x1>
     db2:	80 93 c6 03 	sts	0x03C6, r24	; 0x8003c6 <measure>
	
	w_1 =(w_curr -512)/1.414213*1.16;
     db6:	60 91 31 04 	lds	r22, 0x0431	; 0x800431 <w_curr>
     dba:	70 91 32 04 	lds	r23, 0x0432	; 0x800432 <w_curr+0x1>
     dbe:	72 50       	subi	r23, 0x02	; 2
     dc0:	07 2e       	mov	r0, r23
     dc2:	00 0c       	add	r0, r0
     dc4:	88 0b       	sbc	r24, r24
     dc6:	99 0b       	sbc	r25, r25
     dc8:	0e 94 e7 27 	call	0x4fce	; 0x4fce <__floatsisf>
     dcc:	2e ee       	ldi	r18, 0xEE	; 238
     dce:	34 e0       	ldi	r19, 0x04	; 4
     dd0:	45 eb       	ldi	r20, 0xB5	; 181
     dd2:	5f e3       	ldi	r21, 0x3F	; 63
     dd4:	0e 94 3d 27 	call	0x4e7a	; 0x4e7a <__divsf3>
     dd8:	21 ee       	ldi	r18, 0xE1	; 225
     dda:	3a e7       	ldi	r19, 0x7A	; 122
     ddc:	44 e9       	ldi	r20, 0x94	; 148
     dde:	5f e3       	ldi	r21, 0x3F	; 63
     de0:	0e 94 9c 28 	call	0x5138	; 0x5138 <__mulsf3>
     de4:	0e 94 af 27 	call	0x4f5e	; 0x4f5e <__fixsfsi>
     de8:	ab 01       	movw	r20, r22
     dea:	70 93 15 04 	sts	0x0415, r23	; 0x800415 <w_1+0x1>
     dee:	60 93 14 04 	sts	0x0414, r22	; 0x800414 <w_1>

	if( (w_1<(225-k)) || (w_1>(225+k)) )
     df2:	20 91 00 01 	lds	r18, 0x0100	; 0x800100 <__data_start>
     df6:	30 91 01 01 	lds	r19, 0x0101	; 0x800101 <__data_start+0x1>
     dfa:	81 ee       	ldi	r24, 0xE1	; 225
     dfc:	90 e0       	ldi	r25, 0x00	; 0
     dfe:	82 1b       	sub	r24, r18
     e00:	93 0b       	sbc	r25, r19
     e02:	48 17       	cp	r20, r24
     e04:	59 07       	cpc	r21, r25
     e06:	2c f0       	brlt	.+10     	; 0xe12 <meter+0x7a>
     e08:	2f 51       	subi	r18, 0x1F	; 31
     e0a:	3f 4f       	sbci	r19, 0xFF	; 255
     e0c:	24 17       	cp	r18, r20
     e0e:	35 07       	cpc	r19, r21
     e10:	4c f5       	brge	.+82     	; 0xe64 <meter+0xcc>
	{
		
		lvl_3=0;
		if((timing-past2)<=7500)
     e12:	80 91 89 05 	lds	r24, 0x0589	; 0x800589 <timing>
     e16:	90 91 8a 05 	lds	r25, 0x058A	; 0x80058a <timing+0x1>
     e1a:	20 91 3b 04 	lds	r18, 0x043B	; 0x80043b <past2>
     e1e:	30 91 3c 04 	lds	r19, 0x043C	; 0x80043c <past2+0x1>
     e22:	82 1b       	sub	r24, r18
     e24:	93 0b       	sbc	r25, r19
     e26:	8d 34       	cpi	r24, 0x4D	; 77
     e28:	9d 41       	sbci	r25, 0x1D	; 29
     e2a:	a4 f4       	brge	.+40     	; 0xe54 <meter+0xbc>
		{
			RUN0;
     e2c:	40 e0       	ldi	r20, 0x00	; 0
     e2e:	60 e4       	ldi	r22, 0x40	; 64
     e30:	70 e0       	ldi	r23, 0x00	; 0
     e32:	80 e0       	ldi	r24, 0x00	; 0
     e34:	90 e0       	ldi	r25, 0x00	; 0
     e36:	0e 94 77 14 	call	0x28ee	; 0x28ee <registr>
		}
		
		if((timing-past2)>7500)
     e3a:	80 91 89 05 	lds	r24, 0x0589	; 0x800589 <timing>
     e3e:	90 91 8a 05 	lds	r25, 0x058A	; 0x80058a <timing+0x1>
     e42:	20 91 3b 04 	lds	r18, 0x043B	; 0x80043b <past2>
     e46:	30 91 3c 04 	lds	r19, 0x043C	; 0x80043c <past2+0x1>
     e4a:	82 1b       	sub	r24, r18
     e4c:	93 0b       	sbc	r25, r19
     e4e:	8d 34       	cpi	r24, 0x4D	; 77
     e50:	9d 41       	sbci	r25, 0x1D	; 29
     e52:	ec f0       	brlt	.+58     	; 0xe8e <meter+0xf6>
		{
			RUN1;
     e54:	41 e0       	ldi	r20, 0x01	; 1
     e56:	60 e4       	ldi	r22, 0x40	; 64
     e58:	70 e0       	ldi	r23, 0x00	; 0
     e5a:	80 e0       	ldi	r24, 0x00	; 0
     e5c:	90 e0       	ldi	r25, 0x00	; 0
     e5e:	0e 94 77 14 	call	0x28ee	; 0x28ee <registr>
     e62:	15 c0       	rjmp	.+42     	; 0xe8e <meter+0xf6>
		
	}

	else
	{
		lvl_3=1;
     e64:	81 e0       	ldi	r24, 0x01	; 1
     e66:	80 93 3a 04 	sts	0x043A, r24	; 0x80043a <lvl_3>
		volts_level=1;
     e6a:	80 93 0f 04 	sts	0x040F, r24	; 0x80040f <volts_level>
		counter=counter+1;
     e6e:	80 91 19 04 	lds	r24, 0x0419	; 0x800419 <counter>
     e72:	90 91 1a 04 	lds	r25, 0x041A	; 0x80041a <counter+0x1>
     e76:	01 96       	adiw	r24, 0x01	; 1
     e78:	90 93 1a 04 	sts	0x041A, r25	; 0x80041a <counter+0x1>
     e7c:	80 93 19 04 	sts	0x0419, r24	; 0x800419 <counter>
		RUN1;	
     e80:	41 e0       	ldi	r20, 0x01	; 1
     e82:	60 e4       	ldi	r22, 0x40	; 64
     e84:	70 e0       	ldi	r23, 0x00	; 0
     e86:	80 e0       	ldi	r24, 0x00	; 0
     e88:	90 e0       	ldi	r25, 0x00	; 0
     e8a:	0e 94 77 14 	call	0x28ee	; 0x28ee <registr>
	}

    volts_level=1;
     e8e:	81 e0       	ldi	r24, 0x01	; 1
     e90:	80 93 0f 04 	sts	0x040F, r24	; 0x80040f <volts_level>
	voltage=counter*100/measure;
     e94:	20 91 c6 03 	lds	r18, 0x03C6	; 0x8003c6 <measure>
     e98:	30 91 c7 03 	lds	r19, 0x03C7	; 0x8003c7 <measure+0x1>
     e9c:	40 91 19 04 	lds	r20, 0x0419	; 0x800419 <counter>
     ea0:	50 91 1a 04 	lds	r21, 0x041A	; 0x80041a <counter+0x1>
     ea4:	64 e6       	ldi	r22, 0x64	; 100
     ea6:	64 9f       	mul	r22, r20
     ea8:	c0 01       	movw	r24, r0
     eaa:	65 9f       	mul	r22, r21
     eac:	90 0d       	add	r25, r0
     eae:	11 24       	eor	r1, r1
     eb0:	b9 01       	movw	r22, r18
     eb2:	0e 94 57 26 	call	0x4cae	; 0x4cae <__divmodhi4>
     eb6:	70 93 d5 03 	sts	0x03D5, r23	; 0x8003d5 <voltage+0x1>
     eba:	60 93 d4 03 	sts	0x03D4, r22	; 0x8003d4 <voltage>
	
	if(measure==100)
     ebe:	24 36       	cpi	r18, 0x64	; 100
     ec0:	31 05       	cpc	r19, r1
     ec2:	41 f4       	brne	.+16     	; 0xed4 <meter+0x13c>
	{
		measure=0;
     ec4:	10 92 c7 03 	sts	0x03C7, r1	; 0x8003c7 <measure+0x1>
     ec8:	10 92 c6 03 	sts	0x03C6, r1	; 0x8003c6 <measure>
		counter=0;//??????????????????????????????????
     ecc:	10 92 1a 04 	sts	0x041A, r1	; 0x80041a <counter+0x1>
     ed0:	10 92 19 04 	sts	0x0419, r1	; 0x800419 <counter>
		
	}
	
	
	if((timing-past2)>=15000)
     ed4:	80 91 89 05 	lds	r24, 0x0589	; 0x800589 <timing>
     ed8:	90 91 8a 05 	lds	r25, 0x058A	; 0x80058a <timing+0x1>
     edc:	20 91 3b 04 	lds	r18, 0x043B	; 0x80043b <past2>
     ee0:	30 91 3c 04 	lds	r19, 0x043C	; 0x80043c <past2+0x1>
     ee4:	ac 01       	movw	r20, r24
     ee6:	42 1b       	sub	r20, r18
     ee8:	53 0b       	sbc	r21, r19
     eea:	9a 01       	movw	r18, r20
     eec:	28 39       	cpi	r18, 0x98	; 152
     eee:	3a 43       	sbci	r19, 0x3A	; 58
     ef0:	24 f0       	brlt	.+8      	; 0xefa <meter+0x162>
	{
		past2=timing;
     ef2:	90 93 3c 04 	sts	0x043C, r25	; 0x80043c <past2+0x1>
     ef6:	80 93 3b 04 	sts	0x043B, r24	; 0x80043b <past2>
     efa:	08 95       	ret

00000efc <status>:
	
}

void status()
{
	if((preority==2)||(external==1)) {stat[0]=1;}    //Сигнал ПОЖАР
     efc:	80 91 82 03 	lds	r24, 0x0382	; 0x800382 <preority>
     f00:	82 30       	cpi	r24, 0x02	; 2
     f02:	21 f0       	breq	.+8      	; 0xf0c <status+0x10>
     f04:	90 91 28 04 	lds	r25, 0x0428	; 0x800428 <external>
     f08:	91 30       	cpi	r25, 0x01	; 1
     f0a:	39 f4       	brne	.+14     	; 0xf1a <status+0x1e>
     f0c:	21 e0       	ldi	r18, 0x01	; 1
     f0e:	30 e0       	ldi	r19, 0x00	; 0
     f10:	30 93 52 04 	sts	0x0452, r19	; 0x800452 <stat+0x1>
     f14:	20 93 51 04 	sts	0x0451, r18	; 0x800451 <stat>
     f18:	04 c0       	rjmp	.+8      	; 0xf22 <status+0x26>
	else {stat[0]=0;}
     f1a:	10 92 52 04 	sts	0x0452, r1	; 0x800452 <stat+0x1>
     f1e:	10 92 51 04 	sts	0x0451, r1	; 0x800451 <stat>
	if(pwr==0) {stat[1]=1;}         //Авария питания
     f22:	20 91 ab 03 	lds	r18, 0x03AB	; 0x8003ab <pwr>
     f26:	30 91 ac 03 	lds	r19, 0x03AC	; 0x8003ac <pwr+0x1>
     f2a:	23 2b       	or	r18, r19
     f2c:	39 f4       	brne	.+14     	; 0xf3c <status+0x40>
     f2e:	21 e0       	ldi	r18, 0x01	; 1
     f30:	30 e0       	ldi	r19, 0x00	; 0
     f32:	30 93 54 04 	sts	0x0454, r19	; 0x800454 <stat+0x3>
     f36:	20 93 53 04 	sts	0x0453, r18	; 0x800453 <stat+0x2>
     f3a:	04 c0       	rjmp	.+8      	; 0xf44 <status+0x48>
	else {stat[1]=0;}
     f3c:	10 92 54 04 	sts	0x0454, r1	; 0x800454 <stat+0x3>
     f40:	10 92 53 04 	sts	0x0453, r1	; 0x800453 <stat+0x2>
	if(preority==1) {stat[2]=1;}    //Авария входа ПОЖАР
     f44:	81 30       	cpi	r24, 0x01	; 1
     f46:	39 f4       	brne	.+14     	; 0xf56 <status+0x5a>
     f48:	81 e0       	ldi	r24, 0x01	; 1
     f4a:	90 e0       	ldi	r25, 0x00	; 0
     f4c:	90 93 56 04 	sts	0x0456, r25	; 0x800456 <stat+0x5>
     f50:	80 93 55 04 	sts	0x0455, r24	; 0x800455 <stat+0x4>
     f54:	04 c0       	rjmp	.+8      	; 0xf5e <status+0x62>
	else {stat[2]=0;}
     f56:	10 92 56 04 	sts	0x0456, r1	; 0x800456 <stat+0x5>
     f5a:	10 92 55 04 	sts	0x0455, r1	; 0x800455 <stat+0x4>
	if(technic==2)  {stat[3]=1;}    //Авария входа датчика давления
     f5e:	80 91 7f 03 	lds	r24, 0x037F	; 0x80037f <technic>
     f62:	82 30       	cpi	r24, 0x02	; 2
     f64:	39 f4       	brne	.+14     	; 0xf74 <status+0x78>
     f66:	21 e0       	ldi	r18, 0x01	; 1
     f68:	30 e0       	ldi	r19, 0x00	; 0
     f6a:	30 93 58 04 	sts	0x0458, r19	; 0x800458 <stat+0x7>
     f6e:	20 93 57 04 	sts	0x0457, r18	; 0x800457 <stat+0x6>
     f72:	04 c0       	rjmp	.+8      	; 0xf7c <status+0x80>
	else {stat[3]=0;}
     f74:	10 92 58 04 	sts	0x0458, r1	; 0x800458 <stat+0x7>
     f78:	10 92 57 04 	sts	0x0457, r1	; 0x800457 <stat+0x6>
	if(volts_level==0) {stat[4]=1;} //Авария уровня напряжения
     f7c:	90 91 0f 04 	lds	r25, 0x040F	; 0x80040f <volts_level>
     f80:	91 11       	cpse	r25, r1
     f82:	07 c0       	rjmp	.+14     	; 0xf92 <status+0x96>
     f84:	21 e0       	ldi	r18, 0x01	; 1
     f86:	30 e0       	ldi	r19, 0x00	; 0
     f88:	30 93 5a 04 	sts	0x045A, r19	; 0x80045a <stat+0x9>
     f8c:	20 93 59 04 	sts	0x0459, r18	; 0x800459 <stat+0x8>
     f90:	04 c0       	rjmp	.+8      	; 0xf9a <status+0x9e>
	else {stat[4]=0;}
     f92:	10 92 5a 04 	sts	0x045A, r1	; 0x80045a <stat+0x9>
     f96:	10 92 59 04 	sts	0x0459, r1	; 0x800459 <stat+0x8>
	if(receivemode==1){stat[5]=1;}    //Авария линии DHT 
     f9a:	90 91 95 05 	lds	r25, 0x0595	; 0x800595 <receivemode>
     f9e:	91 30       	cpi	r25, 0x01	; 1
     fa0:	39 f4       	brne	.+14     	; 0xfb0 <status+0xb4>
     fa2:	21 e0       	ldi	r18, 0x01	; 1
     fa4:	30 e0       	ldi	r19, 0x00	; 0
     fa6:	30 93 5c 04 	sts	0x045C, r19	; 0x80045c <stat+0xb>
     faa:	20 93 5b 04 	sts	0x045B, r18	; 0x80045b <stat+0xa>
     fae:	04 c0       	rjmp	.+8      	; 0xfb8 <status+0xbc>
	else {stat[5]=0;}
     fb0:	10 92 5c 04 	sts	0x045C, r1	; 0x80045c <stat+0xb>
     fb4:	10 92 5b 04 	sts	0x045B, r1	; 0x80045b <stat+0xa>
	if(flv_alarm==1) {stat[6]=1;}      //ОЗК зарыт 
     fb8:	90 91 a0 03 	lds	r25, 0x03A0	; 0x8003a0 <flv_alarm>
     fbc:	91 30       	cpi	r25, 0x01	; 1
     fbe:	39 f4       	brne	.+14     	; 0xfce <status+0xd2>
     fc0:	21 e0       	ldi	r18, 0x01	; 1
     fc2:	30 e0       	ldi	r19, 0x00	; 0
     fc4:	30 93 5e 04 	sts	0x045E, r19	; 0x80045e <stat+0xd>
     fc8:	20 93 5d 04 	sts	0x045D, r18	; 0x80045d <stat+0xc>
     fcc:	04 c0       	rjmp	.+8      	; 0xfd6 <status+0xda>
	else {stat[6]=0;}
     fce:	10 92 5e 04 	sts	0x045E, r1	; 0x80045e <stat+0xd>
     fd2:	10 92 5d 04 	sts	0x045D, r1	; 0x80045d <stat+0xc>
	if(regim_fall==1) {stat[8]=1;} 	//Невыход на режим
     fd6:	90 91 1b 04 	lds	r25, 0x041B	; 0x80041b <regim_fall>
     fda:	91 30       	cpi	r25, 0x01	; 1
     fdc:	39 f4       	brne	.+14     	; 0xfec <status+0xf0>
     fde:	21 e0       	ldi	r18, 0x01	; 1
     fe0:	30 e0       	ldi	r19, 0x00	; 0
     fe2:	30 93 62 04 	sts	0x0462, r19	; 0x800462 <stat+0x11>
     fe6:	20 93 61 04 	sts	0x0461, r18	; 0x800461 <stat+0x10>
     fea:	04 c0       	rjmp	.+8      	; 0xff4 <status+0xf8>
	else {stat[8]=0;}
     fec:	10 92 62 04 	sts	0x0462, r1	; 0x800462 <stat+0x11>
     ff0:	10 92 61 04 	sts	0x0461, r1	; 0x800461 <stat+0x10>
	if(technic>2) {stat[9]=1;}   	//Ложная сработка датчика PS
     ff4:	83 30       	cpi	r24, 0x03	; 3
     ff6:	38 f0       	brcs	.+14     	; 0x1006 <status+0x10a>
     ff8:	81 e0       	ldi	r24, 0x01	; 1
     ffa:	90 e0       	ldi	r25, 0x00	; 0
     ffc:	90 93 64 04 	sts	0x0464, r25	; 0x800464 <stat+0x13>
    1000:	80 93 63 04 	sts	0x0463, r24	; 0x800463 <stat+0x12>
    1004:	04 c0       	rjmp	.+8      	; 0x100e <status+0x112>
	else {stat[9]=0;}
    1006:	10 92 64 04 	sts	0x0464, r1	; 0x800464 <stat+0x13>
    100a:	10 92 63 04 	sts	0x0463, r1	; 0x800463 <stat+0x12>
	
	if(delta_F>40){stat[5]=0;} //игнор аварии фазировки
    100e:	80 91 4f 04 	lds	r24, 0x044F	; 0x80044f <delta_F>
    1012:	90 91 50 04 	lds	r25, 0x0450	; 0x800450 <delta_F+0x1>
    1016:	89 97       	sbiw	r24, 0x29	; 41
    1018:	24 f0       	brlt	.+8      	; 0x1022 <status+0x126>
    101a:	10 92 5c 04 	sts	0x045C, r1	; 0x80045c <stat+0xb>
    101e:	10 92 5b 04 	sts	0x045B, r1	; 0x80045b <stat+0xa>
	if(delta_U>40){stat[6]=0;} //игнор Реверса фаз
    1022:	80 91 a9 03 	lds	r24, 0x03A9	; 0x8003a9 <delta_U>
    1026:	90 91 aa 03 	lds	r25, 0x03AA	; 0x8003aa <delta_U+0x1>
    102a:	89 97       	sbiw	r24, 0x29	; 41
    102c:	0c f4       	brge	.+2      	; 0x1030 <status+0x134>
    102e:	40 c0       	rjmp	.+128    	; 0x10b0 <status+0x1b4>
    1030:	10 92 5e 04 	sts	0x045E, r1	; 0x80045e <stat+0xd>
    1034:	10 92 5d 04 	sts	0x045D, r1	; 0x80045d <stat+0xc>
    1038:	3b c0       	rjmp	.+118    	; 0x10b0 <status+0x1b4>
	for(int i=1; i<10; i++)
	{
		al=al+stat[i];
    103a:	90 81       	ld	r25, Z
    103c:	32 96       	adiw	r30, 0x02	; 2
    103e:	89 0f       	add	r24, r25
	if(technic>2) {stat[9]=1;}   	//Ложная сработка датчика PS
	else {stat[9]=0;}
	
	if(delta_F>40){stat[5]=0;} //игнор аварии фазировки
	if(delta_U>40){stat[6]=0;} //игнор Реверса фаз
	for(int i=1; i<10; i++)
    1040:	e2 17       	cp	r30, r18
    1042:	f3 07       	cpc	r31, r19
    1044:	d1 f7       	brne	.-12     	; 0x103a <status+0x13e>
    1046:	80 93 11 04 	sts	0x0411, r24	; 0x800411 <al>
	{
		al=al+stat[i];
		
	}
	if(al==0) D0;
    104a:	81 11       	cpse	r24, r1
    104c:	0b c0       	rjmp	.+22     	; 0x1064 <status+0x168>
    104e:	40 e0       	ldi	r20, 0x00	; 0
    1050:	60 e0       	ldi	r22, 0x00	; 0
    1052:	78 e0       	ldi	r23, 0x08	; 8
    1054:	80 e0       	ldi	r24, 0x00	; 0
    1056:	90 e0       	ldi	r25, 0x00	; 0
    1058:	0e 94 77 14 	call	0x28ee	; 0x28ee <registr>
	if(al>0) D1;
    105c:	80 91 11 04 	lds	r24, 0x0411	; 0x800411 <al>
    1060:	88 23       	and	r24, r24
    1062:	39 f0       	breq	.+14     	; 0x1072 <status+0x176>
    1064:	41 e0       	ldi	r20, 0x01	; 1
    1066:	60 e0       	ldi	r22, 0x00	; 0
    1068:	78 e0       	ldi	r23, 0x08	; 8
    106a:	80 e0       	ldi	r24, 0x00	; 0
    106c:	90 e0       	ldi	r25, 0x00	; 0
    106e:	0e 94 77 14 	call	0x28ee	; 0x28ee <registr>
	
	if((preority==2)||(external==1))
    1072:	80 91 82 03 	lds	r24, 0x0382	; 0x800382 <preority>
    1076:	82 30       	cpi	r24, 0x02	; 2
    1078:	21 f0       	breq	.+8      	; 0x1082 <status+0x186>
    107a:	80 91 28 04 	lds	r24, 0x0428	; 0x800428 <external>
    107e:	81 30       	cpi	r24, 0x01	; 1
    1080:	39 f4       	brne	.+14     	; 0x1090 <status+0x194>
	{
		FL1;
    1082:	41 e0       	ldi	r20, 0x01	; 1
    1084:	60 e0       	ldi	r22, 0x00	; 0
    1086:	72 e0       	ldi	r23, 0x02	; 2
    1088:	80 e0       	ldi	r24, 0x00	; 0
    108a:	90 e0       	ldi	r25, 0x00	; 0
    108c:	0e 94 77 14 	call	0x28ee	; 0x28ee <registr>
		
	}
	
	if((preority==0)&&(external==0))
    1090:	80 91 82 03 	lds	r24, 0x0382	; 0x800382 <preority>
    1094:	81 11       	cpse	r24, r1
    1096:	13 c0       	rjmp	.+38     	; 0x10be <status+0x1c2>
    1098:	80 91 28 04 	lds	r24, 0x0428	; 0x800428 <external>
    109c:	81 11       	cpse	r24, r1
    109e:	0f c0       	rjmp	.+30     	; 0x10be <status+0x1c2>
	{
		FL0;
    10a0:	40 e0       	ldi	r20, 0x00	; 0
    10a2:	60 e0       	ldi	r22, 0x00	; 0
    10a4:	72 e0       	ldi	r23, 0x02	; 2
    10a6:	80 e0       	ldi	r24, 0x00	; 0
    10a8:	90 e0       	ldi	r25, 0x00	; 0
    10aa:	0e 94 77 14 	call	0x28ee	; 0x28ee <registr>
	}
}
    10ae:	08 95       	ret
    10b0:	80 91 11 04 	lds	r24, 0x0411	; 0x800411 <al>
    10b4:	e3 e5       	ldi	r30, 0x53	; 83
    10b6:	f4 e0       	ldi	r31, 0x04	; 4
    10b8:	25 e6       	ldi	r18, 0x65	; 101
    10ba:	34 e0       	ldi	r19, 0x04	; 4
    10bc:	be cf       	rjmp	.-132    	; 0x103a <status+0x13e>
    10be:	08 95       	ret

000010c0 <__vector_7>:




  //----------------Работа прерывателя таймера------------------------------------
  ISR(TIMER2_COMPA_vect){
    10c0:	1f 92       	push	r1
    10c2:	0f 92       	push	r0
    10c4:	0f b6       	in	r0, 0x3f	; 63
    10c6:	0f 92       	push	r0
    10c8:	11 24       	eor	r1, r1
    10ca:	2f 93       	push	r18
    10cc:	3f 93       	push	r19
    10ce:	4f 93       	push	r20
    10d0:	5f 93       	push	r21
    10d2:	6f 93       	push	r22
    10d4:	7f 93       	push	r23
    10d6:	8f 93       	push	r24
    10d8:	9f 93       	push	r25
    10da:	af 93       	push	r26
    10dc:	bf 93       	push	r27
    10de:	ef 93       	push	r30
    10e0:	ff 93       	push	r31
	   PORTD|= (1 <<PD1); // Вспомогательная строб-индикация состояния 
    10e2:	59 9a       	sbi	0x0b, 1	; 11
	  timing++;
    10e4:	80 91 89 05 	lds	r24, 0x0589	; 0x800589 <timing>
    10e8:	90 91 8a 05 	lds	r25, 0x058A	; 0x80058a <timing+0x1>
    10ec:	01 96       	adiw	r24, 0x01	; 1
    10ee:	90 93 8a 05 	sts	0x058A, r25	; 0x80058a <timing+0x1>
    10f2:	80 93 89 05 	sts	0x0589, r24	; 0x800589 <timing>
		 Omega_slave();  
    10f6:	0e 94 66 12 	call	0x24cc	; 0x24cc <Omega_slave>
		 start();
    10fa:	0e 94 d9 13 	call	0x27b2	; 0x27b2 <start>
	 PORTD &=~ (1 <<PD1);  // Вспомогательная строб-индикация состояния  
    10fe:	59 98       	cbi	0x0b, 1	; 11
  }
    1100:	ff 91       	pop	r31
    1102:	ef 91       	pop	r30
    1104:	bf 91       	pop	r27
    1106:	af 91       	pop	r26
    1108:	9f 91       	pop	r25
    110a:	8f 91       	pop	r24
    110c:	7f 91       	pop	r23
    110e:	6f 91       	pop	r22
    1110:	5f 91       	pop	r21
    1112:	4f 91       	pop	r20
    1114:	3f 91       	pop	r19
    1116:	2f 91       	pop	r18
    1118:	0f 90       	pop	r0
    111a:	0f be       	out	0x3f, r0	; 63
    111c:	0f 90       	pop	r0
    111e:	1f 90       	pop	r1
    1120:	18 95       	reti

00001122 <__vector_11>:
  
  ISR(TIMER1_COMPA_vect){
    1122:	1f 92       	push	r1
    1124:	0f 92       	push	r0
    1126:	0f b6       	in	r0, 0x3f	; 63
    1128:	0f 92       	push	r0
    112a:	11 24       	eor	r1, r1
    112c:	8f 93       	push	r24
    112e:	9f 93       	push	r25
	  milis++;	  
    1130:	80 91 26 04 	lds	r24, 0x0426	; 0x800426 <milis>
    1134:	90 91 27 04 	lds	r25, 0x0427	; 0x800427 <milis+0x1>
    1138:	01 96       	adiw	r24, 0x01	; 1
    113a:	90 93 27 04 	sts	0x0427, r25	; 0x800427 <milis+0x1>
    113e:	80 93 26 04 	sts	0x0426, r24	; 0x800426 <milis>
  }
    1142:	9f 91       	pop	r25
    1144:	8f 91       	pop	r24
    1146:	0f 90       	pop	r0
    1148:	0f be       	out	0x3f, r0	; 63
    114a:	0f 90       	pop	r0
    114c:	1f 90       	pop	r1
    114e:	18 95       	reti

00001150 <main>:

int main(void)
{  
	
	J1;
    1150:	41 e0       	ldi	r20, 0x01	; 1
    1152:	60 e0       	ldi	r22, 0x00	; 0
    1154:	70 e8       	ldi	r23, 0x80	; 128
    1156:	80 e0       	ldi	r24, 0x00	; 0
    1158:	90 e0       	ldi	r25, 0x00	; 0
    115a:	0e 94 77 14 	call	0x28ee	; 0x28ee <registr>
	
	ADCSRA|=(1<<ADEN);// разрешаем работу АЦП
    115e:	aa e7       	ldi	r26, 0x7A	; 122
    1160:	b0 e0       	ldi	r27, 0x00	; 0
    1162:	8c 91       	ld	r24, X
    1164:	80 68       	ori	r24, 0x80	; 128
    1166:	8c 93       	st	X, r24
	ADMUX &= (0 << REFS1);
    1168:	ec e7       	ldi	r30, 0x7C	; 124
    116a:	f0 e0       	ldi	r31, 0x00	; 0
    116c:	80 81       	ld	r24, Z
    116e:	10 82       	st	Z, r1
	ADMUX|=(1 << REFS0); //выставляем опорное напряжение
    1170:	80 81       	ld	r24, Z
    1172:	80 64       	ori	r24, 0x40	; 64
    1174:	80 83       	st	Z, r24
	ADMUX |= ~(1 <<ADLAR);//Правостороннее выравнивание
    1176:	80 81       	ld	r24, Z
    1178:	8f 6d       	ori	r24, 0xDF	; 223
    117a:	80 83       	st	Z, r24
	ADCSRA |=(0<<ADPS0)|(1<<ADPS1)|(1<<ADPS2); //частота предделителя 64
    117c:	8c 91       	ld	r24, X
    117e:	86 60       	ori	r24, 0x06	; 6
    1180:	8c 93       	st	X, r24
	ADCSRB |=0b00000000; //устанавливаем free running mode непрерывное преобразование 
    1182:	eb e7       	ldi	r30, 0x7B	; 123
    1184:	f0 e0       	ldi	r31, 0x00	; 0
    1186:	80 81       	ld	r24, Z
    1188:	80 83       	st	Z, r24
	DIDR0 |= (1 << ADC4D)|(1 << ADC5D)|(1 << ADC2D)|(1 << ADC1D)|(1 << ADC0D); // Отключаем неиспользуемые цифровые входы
    118a:	ee e7       	ldi	r30, 0x7E	; 126
    118c:	f0 e0       	ldi	r31, 0x00	; 0
    118e:	80 81       	ld	r24, Z
    1190:	87 63       	ori	r24, 0x37	; 55
    1192:	80 83       	st	Z, r24
    ACSR |= (1 << ACD);//отключаем аналоговый компаратор
    1194:	80 b7       	in	r24, 0x30	; 48
    1196:	80 68       	ori	r24, 0x80	; 128
    1198:	80 bf       	out	0x30, r24	; 48
    // Настройка портов ввода/вывода
    DDRC = 0b00100000;
    119a:	80 e2       	ldi	r24, 0x20	; 32
    119c:	87 b9       	out	0x07, r24	; 7
	DDRB = 0b00000010;
    119e:	92 e0       	ldi	r25, 0x02	; 2
    11a0:	94 b9       	out	0x04, r25	; 4
	PORTB= 0b00011000;
    11a2:	88 e1       	ldi	r24, 0x18	; 24
    11a4:	85 b9       	out	0x05, r24	; 5
    DDRD = 0b11111110;
    11a6:	8e ef       	ldi	r24, 0xFE	; 254
    11a8:	8a b9       	out	0x0a, r24	; 10
	PORTC= 0b00000000;
    11aa:	18 b8       	out	0x08, r1	; 8
	//TCCR0B |= (1 << CS12)|(0 << CS11)|(1 << CS10)|(1 << WGM12); //предделитель clk/128, режим таймера СТС
	TCNT0 = 0x00;
	OCR0A = 150; // максимальный предел счета
	TIMSK0 = (1 << OCIE0A); // разрешение прерывания по совпадению
	*/
	TCCR1A = 0x00;
    11ac:	10 92 80 00 	sts	0x0080, r1	; 0x800080 <__DATA_REGION_ORIGIN__+0x20>
	TCCR1B |= (1 << CS12)|(0 << CS11)|(1 << CS10)|(1 << WGM12); //предделитель clk/32, режим таймера СТС
    11b0:	e1 e8       	ldi	r30, 0x81	; 129
    11b2:	f0 e0       	ldi	r31, 0x00	; 0
    11b4:	80 81       	ld	r24, Z
    11b6:	8d 60       	ori	r24, 0x0D	; 13
    11b8:	80 83       	st	Z, r24
	TCNT1 = 0x00;
    11ba:	10 92 85 00 	sts	0x0085, r1	; 0x800085 <__DATA_REGION_ORIGIN__+0x25>
    11be:	10 92 84 00 	sts	0x0084, r1	; 0x800084 <__DATA_REGION_ORIGIN__+0x24>
	OCR1A = 15625; // максимальный предел счета
    11c2:	29 e0       	ldi	r18, 0x09	; 9
    11c4:	3d e3       	ldi	r19, 0x3D	; 61
    11c6:	30 93 89 00 	sts	0x0089, r19	; 0x800089 <__DATA_REGION_ORIGIN__+0x29>
    11ca:	20 93 88 00 	sts	0x0088, r18	; 0x800088 <__DATA_REGION_ORIGIN__+0x28>
	TIMSK1 = (1 << OCIE1A); // разрешение прерывания по совпадению
    11ce:	90 93 6f 00 	sts	0x006F, r25	; 0x80006f <__DATA_REGION_ORIGIN__+0xf>
	
	TCCR2A|=(1<<WGM21);
    11d2:	e0 eb       	ldi	r30, 0xB0	; 176
    11d4:	f0 e0       	ldi	r31, 0x00	; 0
    11d6:	80 81       	ld	r24, Z
    11d8:	82 60       	ori	r24, 0x02	; 2
    11da:	80 83       	st	Z, r24
	TCCR2B |= (0 << CS22)|(1 << CS21)|(0 << CS20)|(0 << WGM22); //предделитель clk/8, режим таймера СТС
    11dc:	e1 eb       	ldi	r30, 0xB1	; 177
    11de:	f0 e0       	ldi	r31, 0x00	; 0
    11e0:	80 81       	ld	r24, Z
    11e2:	82 60       	ori	r24, 0x02	; 2
    11e4:	80 83       	st	Z, r24
	TCNT2 = 0x00;
    11e6:	10 92 b2 00 	sts	0x00B2, r1	; 0x8000b2 <__DATA_REGION_ORIGIN__+0x52>
	OCR2A = 255; // максимальный предел счета
    11ea:	8f ef       	ldi	r24, 0xFF	; 255
    11ec:	80 93 b3 00 	sts	0x00B3, r24	; 0x8000b3 <__DATA_REGION_ORIGIN__+0x53>
	TIMSK2 |= (1 << OCIE2A); // разрешение прерывания по совпадению
    11f0:	e0 e7       	ldi	r30, 0x70	; 112
    11f2:	f0 e0       	ldi	r31, 0x00	; 0
    11f4:	80 81       	ld	r24, Z
    11f6:	82 60       	ori	r24, 0x02	; 2
    11f8:	80 83       	st	Z, r24
    11fa:	2f ef       	ldi	r18, 0xFF	; 255
    11fc:	83 ec       	ldi	r24, 0xC3	; 195
    11fe:	99 e0       	ldi	r25, 0x09	; 9
    1200:	21 50       	subi	r18, 0x01	; 1
    1202:	80 40       	sbci	r24, 0x00	; 0
    1204:	90 40       	sbci	r25, 0x00	; 0
    1206:	e1 f7       	brne	.-8      	; 0x1200 <main+0xb0>
    1208:	00 c0       	rjmp	.+0      	; 0x120a <main+0xba>
    120a:	00 00       	nop
	
	
	
	_delay_ms(200);
	
	lcd_init(); // Инициализация дисплея
    120c:	0e 94 0c 06 	call	0xc18	; 0xc18 <lcd_init>
	
	write_to_lcd(0x01, 0); // Очищаем дисплей
    1210:	60 e0       	ldi	r22, 0x00	; 0
    1212:	81 e0       	ldi	r24, 0x01	; 1
    1214:	0e 94 47 05 	call	0xa8e	; 0xa8e <write_to_lcd>
	
	lcd_gotoxy(0, 0); // Выводим строки на LCD
    1218:	60 e0       	ldi	r22, 0x00	; 0
    121a:	80 e8       	ldi	r24, 0x80	; 128
    121c:	0e 94 47 05 	call	0xa8e	; 0xa8e <write_to_lcd>
	//lcd_puts("POWER__ON ");
	lcd_puts("ЁёїaЅёe BK§°«EHO");   //ПИТАНИЕ ВКЛЮЧЕНО
    1220:	89 e4       	ldi	r24, 0x49	; 73
    1222:	91 e0       	ldi	r25, 0x01	; 1
    1224:	0e 94 1d 06 	call	0xc3a	; 0xc3a <lcd_puts>
	
	meter();
    1228:	0e 94 cc 06 	call	0xd98	; 0xd98 <meter>
	volts();
    122c:	0e 94 03 22 	call	0x4406	; 0x4406 <volts>
	
	PIND|=0b01000000;//Подсветка дисплея 
    1230:	4e 9a       	sbi	0x09, 6	; 9
	volts();
    1232:	0e 94 03 22 	call	0x4406	; 0x4406 <volts>
	
	arm =0; 
    1236:	10 92 92 05 	sts	0x0592, r1	; 0x800592 <arm>
	interval=5;
    123a:	85 e0       	ldi	r24, 0x05	; 5
    123c:	90 e0       	ldi	r25, 0x00	; 0
    123e:	90 93 25 04 	sts	0x0425, r25	; 0x800425 <interval+0x1>
    1242:	80 93 24 04 	sts	0x0424, r24	; 0x800424 <interval>
	milis=0;
    1246:	10 92 27 04 	sts	0x0427, r1	; 0x800427 <milis+0x1>
    124a:	10 92 26 04 	sts	0x0426, r1	; 0x800426 <milis>
	regim=3;      //режим работы ручной-авто
    124e:	83 e0       	ldi	r24, 0x03	; 3
    1250:	80 93 9e 05 	sts	0x059E, r24	; 0x80059e <regim>
	flag1=0;
    1254:	10 92 fd 03 	sts	0x03FD, r1	; 0x8003fd <flag1>
    flag2=0;
    1258:	10 92 ce 03 	sts	0x03CE, r1	; 0x8003ce <flag2>
	flag3=0;
    125c:	10 92 8f 05 	sts	0x058F, r1	; 0x80058f <flag3>
	delta_U=0;
    1260:	10 92 aa 03 	sts	0x03AA, r1	; 0x8003aa <delta_U+0x1>
    1264:	10 92 a9 03 	sts	0x03A9, r1	; 0x8003a9 <delta_U>
	delta_F=0;
    1268:	10 92 50 04 	sts	0x0450, r1	; 0x800450 <delta_F+0x1>
    126c:	10 92 4f 04 	sts	0x044F, r1	; 0x80044f <delta_F>
	delta_T=0;
    1270:	10 92 36 04 	sts	0x0436, r1	; 0x800436 <delta_T>
    1274:	10 92 37 04 	sts	0x0437, r1	; 0x800437 <delta_T+0x1>
    1278:	10 92 38 04 	sts	0x0438, r1	; 0x800438 <delta_T+0x2>
    127c:	10 92 39 04 	sts	0x0439, r1	; 0x800439 <delta_T+0x3>
	delta_H=0;
    1280:	10 92 f5 03 	sts	0x03F5, r1	; 0x8003f5 <delta_H>
    1284:	10 92 f6 03 	sts	0x03F6, r1	; 0x8003f6 <delta_H+0x1>
    1288:	10 92 f7 03 	sts	0x03F7, r1	; 0x8003f7 <delta_H+0x2>
    128c:	10 92 f8 03 	sts	0x03F8, r1	; 0x8003f8 <delta_H+0x3>
	pwr=0;
    1290:	10 92 ac 03 	sts	0x03AC, r1	; 0x8003ac <pwr+0x1>
    1294:	10 92 ab 03 	sts	0x03AB, r1	; 0x8003ab <pwr>
	timer_M=0;
    1298:	10 92 04 04 	sts	0x0404, r1	; 0x800404 <timer_M+0x1>
    129c:	10 92 03 04 	sts	0x0403, r1	; 0x800403 <timer_M>
	timer_U=0;
    12a0:	10 92 4b 04 	sts	0x044B, r1	; 0x80044b <timer_U+0x1>
    12a4:	10 92 4a 04 	sts	0x044A, r1	; 0x80044a <timer_U>
	test=0;
    12a8:	10 92 fa 03 	sts	0x03FA, r1	; 0x8003fa <test+0x1>
    12ac:	10 92 f9 03 	sts	0x03F9, r1	; 0x8003f9 <test>
	faza_fall=0;
    12b0:	10 92 10 04 	sts	0x0410, r1	; 0x800410 <faza_fall>
	revers=0;
    12b4:	10 92 c5 03 	sts	0x03C5, r1	; 0x8003c5 <revers>
	regim_fall=0;
    12b8:	10 92 1b 04 	sts	0x041B, r1	; 0x80041b <regim_fall>
	adress=19;
    12bc:	83 e1       	ldi	r24, 0x13	; 19
    12be:	90 e0       	ldi	r25, 0x00	; 0
    12c0:	90 93 30 04 	sts	0x0430, r25	; 0x800430 <adress+0x1>
    12c4:	80 93 2f 04 	sts	0x042F, r24	; 0x80042f <adress>
	device_ID=157;// 157-блок коммутации ,89-СПРА ,108-БСА
    12c8:	8d e9       	ldi	r24, 0x9D	; 157
    12ca:	90 e0       	ldi	r25, 0x00	; 0
    12cc:	90 93 fc 03 	sts	0x03FC, r25	; 0x8003fc <device_ID+0x1>
    12d0:	80 93 fb 03 	sts	0x03FB, r24	; 0x8003fb <device_ID>
//===================================================================================================================================================	
 regim=  EEPROM_read(0x01);    // Актуальный Рабочий режим
    12d4:	81 e0       	ldi	r24, 0x01	; 1
    12d6:	90 e0       	ldi	r25, 0x00	; 0
    12d8:	0e 94 86 04 	call	0x90c	; 0x90c <EEPROM_read>
    12dc:	80 93 9e 05 	sts	0x059E, r24	; 0x80059e <regim>
 interval=EEPROM_read(0x02);   // Время ВЫХОДА НА РЕЖИМ
    12e0:	82 e0       	ldi	r24, 0x02	; 2
    12e2:	90 e0       	ldi	r25, 0x00	; 0
    12e4:	0e 94 86 04 	call	0x90c	; 0x90c <EEPROM_read>
    12e8:	90 e0       	ldi	r25, 0x00	; 0
    12ea:	90 93 25 04 	sts	0x0425, r25	; 0x800425 <interval+0x1>
    12ee:	80 93 24 04 	sts	0x0424, r24	; 0x800424 <interval>
 k=EEPROM_read(0x03);          // ОТКЛОНЕНИЕ НАПРЯЯЖЕНИЙ
    12f2:	83 e0       	ldi	r24, 0x03	; 3
    12f4:	90 e0       	ldi	r25, 0x00	; 0
    12f6:	0e 94 86 04 	call	0x90c	; 0x90c <EEPROM_read>
    12fa:	90 e0       	ldi	r25, 0x00	; 0
    12fc:	90 93 01 01 	sts	0x0101, r25	; 0x800101 <__data_start+0x1>
    1300:	80 93 00 01 	sts	0x0100, r24	; 0x800100 <__data_start>
 TypePS=EEPROM_read(0x06);     // Тип входа PS (NC/NO)
    1304:	86 e0       	ldi	r24, 0x06	; 6
    1306:	90 e0       	ldi	r25, 0x00	; 0
    1308:	0e 94 86 04 	call	0x90c	; 0x90c <EEPROM_read>
 if(TypePS>1){TypePS=1;}       // Определение значений по умолчанию 
    130c:	82 30       	cpi	r24, 0x02	; 2
    130e:	18 f4       	brcc	.+6      	; 0x1316 <main+0x1c6>
	device_ID=157;// 157-блок коммутации ,89-СПРА ,108-БСА
//===================================================================================================================================================	
 regim=  EEPROM_read(0x01);    // Актуальный Рабочий режим
 interval=EEPROM_read(0x02);   // Время ВЫХОДА НА РЕЖИМ
 k=EEPROM_read(0x03);          // ОТКЛОНЕНИЕ НАПРЯЯЖЕНИЙ
 TypePS=EEPROM_read(0x06);     // Тип входа PS (NC/NO)
    1310:	80 93 86 03 	sts	0x0386, r24	; 0x800386 <TypePS>
    1314:	03 c0       	rjmp	.+6      	; 0x131c <main+0x1cc>
 if(TypePS>1){TypePS=1;}       // Определение значений по умолчанию 
    1316:	81 e0       	ldi	r24, 0x01	; 1
    1318:	80 93 86 03 	sts	0x0386, r24	; 0x800386 <TypePS>
 TypeAL=EEPROM_read(0x07);     // Тип входа AL (NC/NO)
    131c:	87 e0       	ldi	r24, 0x07	; 7
    131e:	90 e0       	ldi	r25, 0x00	; 0
    1320:	0e 94 86 04 	call	0x90c	; 0x90c <EEPROM_read>
 if(TypeAL>1){TypeAL=1;}       // Определение значений по умолчанию
    1324:	82 30       	cpi	r24, 0x02	; 2
    1326:	18 f4       	brcc	.+6      	; 0x132e <main+0x1de>
 regim=  EEPROM_read(0x01);    // Актуальный Рабочий режим
 interval=EEPROM_read(0x02);   // Время ВЫХОДА НА РЕЖИМ
 k=EEPROM_read(0x03);          // ОТКЛОНЕНИЕ НАПРЯЯЖЕНИЙ
 TypePS=EEPROM_read(0x06);     // Тип входа PS (NC/NO)
 if(TypePS>1){TypePS=1;}       // Определение значений по умолчанию 
 TypeAL=EEPROM_read(0x07);     // Тип входа AL (NC/NO)
    1328:	80 93 85 03 	sts	0x0385, r24	; 0x800385 <TypeAL>
    132c:	03 c0       	rjmp	.+6      	; 0x1334 <main+0x1e4>
 if(TypeAL>1){TypeAL=1;}       // Определение значений по умолчанию
    132e:	81 e0       	ldi	r24, 0x01	; 1
    1330:	80 93 85 03 	sts	0x0385, r24	; 0x800385 <TypeAL>
 delta_U=EEPROM_read(0x08);	 
    1334:	88 e0       	ldi	r24, 0x08	; 8
    1336:	90 e0       	ldi	r25, 0x00	; 0
    1338:	0e 94 86 04 	call	0x90c	; 0x90c <EEPROM_read>
    133c:	90 e0       	ldi	r25, 0x00	; 0
    133e:	90 93 aa 03 	sts	0x03AA, r25	; 0x8003aa <delta_U+0x1>
    1342:	80 93 a9 03 	sts	0x03A9, r24	; 0x8003a9 <delta_U>
 if(delta_U>42){delta_U=41;}       // Определение значений по умолчанию
    1346:	8b 97       	sbiw	r24, 0x2b	; 43
    1348:	34 f0       	brlt	.+12     	; 0x1356 <main+0x206>
    134a:	89 e2       	ldi	r24, 0x29	; 41
    134c:	90 e0       	ldi	r25, 0x00	; 0
    134e:	90 93 aa 03 	sts	0x03AA, r25	; 0x8003aa <delta_U+0x1>
    1352:	80 93 a9 03 	sts	0x03A9, r24	; 0x8003a9 <delta_U>
 delta_F=EEPROM_read(0x09);
    1356:	89 e0       	ldi	r24, 0x09	; 9
    1358:	90 e0       	ldi	r25, 0x00	; 0
    135a:	0e 94 86 04 	call	0x90c	; 0x90c <EEPROM_read>
    135e:	90 e0       	ldi	r25, 0x00	; 0
    1360:	90 93 50 04 	sts	0x0450, r25	; 0x800450 <delta_F+0x1>
    1364:	80 93 4f 04 	sts	0x044F, r24	; 0x80044f <delta_F>
 if(delta_F>42){delta_F=41;}
    1368:	8b 97       	sbiw	r24, 0x2b	; 43
    136a:	34 f0       	brlt	.+12     	; 0x1378 <main+0x228>
    136c:	89 e2       	ldi	r24, 0x29	; 41
    136e:	90 e0       	ldi	r25, 0x00	; 0
    1370:	90 93 50 04 	sts	0x0450, r25	; 0x800450 <delta_F+0x1>
    1374:	80 93 4f 04 	sts	0x044F, r24	; 0x80044f <delta_F>
 adress=EEPROM_read(0x10);
    1378:	80 e1       	ldi	r24, 0x10	; 16
    137a:	90 e0       	ldi	r25, 0x00	; 0
    137c:	0e 94 86 04 	call	0x90c	; 0x90c <EEPROM_read>
    1380:	90 e0       	ldi	r25, 0x00	; 0
    1382:	90 93 30 04 	sts	0x0430, r25	; 0x800430 <adress+0x1>
    1386:	80 93 2f 04 	sts	0x042F, r24	; 0x80042f <adress>
 if(adress>128){adress=0;}
    138a:	81 38       	cpi	r24, 0x81	; 129
    138c:	91 05       	cpc	r25, r1
    138e:	24 f0       	brlt	.+8      	; 0x1398 <main+0x248>
    1390:	10 92 30 04 	sts	0x0430, r1	; 0x800430 <adress+0x1>
    1394:	10 92 2f 04 	sts	0x042F, r1	; 0x80042f <adress>
 delta_T=EEPROM_read(0x11);
    1398:	81 e1       	ldi	r24, 0x11	; 17
    139a:	90 e0       	ldi	r25, 0x00	; 0
    139c:	0e 94 86 04 	call	0x90c	; 0x90c <EEPROM_read>
    13a0:	68 2f       	mov	r22, r24
    13a2:	70 e0       	ldi	r23, 0x00	; 0
    13a4:	80 e0       	ldi	r24, 0x00	; 0
    13a6:	90 e0       	ldi	r25, 0x00	; 0
    13a8:	0e 94 e5 27 	call	0x4fca	; 0x4fca <__floatunsisf>
    13ac:	60 93 36 04 	sts	0x0436, r22	; 0x800436 <delta_T>
    13b0:	70 93 37 04 	sts	0x0437, r23	; 0x800437 <delta_T+0x1>
    13b4:	80 93 38 04 	sts	0x0438, r24	; 0x800438 <delta_T+0x2>
    13b8:	90 93 39 04 	sts	0x0439, r25	; 0x800439 <delta_T+0x3>
 if(delta_T>62){delta_T=61;}
    13bc:	20 e0       	ldi	r18, 0x00	; 0
    13be:	30 e0       	ldi	r19, 0x00	; 0
    13c0:	48 e7       	ldi	r20, 0x78	; 120
    13c2:	52 e4       	ldi	r21, 0x42	; 66
    13c4:	0e 94 97 28 	call	0x512e	; 0x512e <__gesf2>
    13c8:	18 16       	cp	r1, r24
    13ca:	64 f4       	brge	.+24     	; 0x13e4 <main+0x294>
    13cc:	80 e0       	ldi	r24, 0x00	; 0
    13ce:	90 e0       	ldi	r25, 0x00	; 0
    13d0:	a4 e7       	ldi	r26, 0x74	; 116
    13d2:	b2 e4       	ldi	r27, 0x42	; 66
    13d4:	80 93 36 04 	sts	0x0436, r24	; 0x800436 <delta_T>
    13d8:	90 93 37 04 	sts	0x0437, r25	; 0x800437 <delta_T+0x1>
    13dc:	a0 93 38 04 	sts	0x0438, r26	; 0x800438 <delta_T+0x2>
    13e0:	b0 93 39 04 	sts	0x0439, r27	; 0x800439 <delta_T+0x3>
 delta_H=EEPROM_read(0x12);
    13e4:	82 e1       	ldi	r24, 0x12	; 18
    13e6:	90 e0       	ldi	r25, 0x00	; 0
    13e8:	0e 94 86 04 	call	0x90c	; 0x90c <EEPROM_read>
    13ec:	68 2f       	mov	r22, r24
    13ee:	70 e0       	ldi	r23, 0x00	; 0
    13f0:	80 e0       	ldi	r24, 0x00	; 0
    13f2:	90 e0       	ldi	r25, 0x00	; 0
    13f4:	0e 94 e5 27 	call	0x4fca	; 0x4fca <__floatunsisf>
    13f8:	60 93 f5 03 	sts	0x03F5, r22	; 0x8003f5 <delta_H>
    13fc:	70 93 f6 03 	sts	0x03F6, r23	; 0x8003f6 <delta_H+0x1>
    1400:	80 93 f7 03 	sts	0x03F7, r24	; 0x8003f7 <delta_H+0x2>
    1404:	90 93 f8 03 	sts	0x03F8, r25	; 0x8003f8 <delta_H+0x3>
 if(delta_H>100){delta_T=100;}
    1408:	20 e0       	ldi	r18, 0x00	; 0
    140a:	30 e0       	ldi	r19, 0x00	; 0
    140c:	48 ec       	ldi	r20, 0xC8	; 200
    140e:	52 e4       	ldi	r21, 0x42	; 66
    1410:	0e 94 97 28 	call	0x512e	; 0x512e <__gesf2>
    1414:	18 16       	cp	r1, r24
    1416:	64 f4       	brge	.+24     	; 0x1430 <main+0x2e0>
    1418:	80 e0       	ldi	r24, 0x00	; 0
    141a:	90 e0       	ldi	r25, 0x00	; 0
    141c:	a8 ec       	ldi	r26, 0xC8	; 200
    141e:	b2 e4       	ldi	r27, 0x42	; 66
    1420:	80 93 36 04 	sts	0x0436, r24	; 0x800436 <delta_T>
    1424:	90 93 37 04 	sts	0x0437, r25	; 0x800437 <delta_T+0x1>
    1428:	a0 93 38 04 	sts	0x0438, r26	; 0x800438 <delta_T+0x2>
    142c:	b0 93 39 04 	sts	0x0439, r27	; 0x800439 <delta_T+0x3>
 dt1=EEPROM_read(0x13);//Гистерезис температуры целые градусы
    1430:	83 e1       	ldi	r24, 0x13	; 19
    1432:	90 e0       	ldi	r25, 0x00	; 0
    1434:	0e 94 86 04 	call	0x90c	; 0x90c <EEPROM_read>
    1438:	90 e0       	ldi	r25, 0x00	; 0
    143a:	90 93 9b 05 	sts	0x059B, r25	; 0x80059b <dt1+0x1>
    143e:	80 93 9a 05 	sts	0x059A, r24	; 0x80059a <dt1>
 dt2=EEPROM_read(0x14);//Гистерезис температуры десятые доли градуса	 
    1442:	84 e1       	ldi	r24, 0x14	; 20
    1444:	90 e0       	ldi	r25, 0x00	; 0
    1446:	0e 94 86 04 	call	0x90c	; 0x90c <EEPROM_read>
    144a:	90 e0       	ldi	r25, 0x00	; 0
    144c:	90 93 9d 03 	sts	0x039D, r25	; 0x80039d <dt2+0x1>
    1450:	80 93 9c 03 	sts	0x039C, r24	; 0x80039c <dt2>
 dh1=EEPROM_read(0x15);//Гистерезис влажности целые проценты
    1454:	85 e1       	ldi	r24, 0x15	; 21
    1456:	90 e0       	ldi	r25, 0x00	; 0
    1458:	0e 94 86 04 	call	0x90c	; 0x90c <EEPROM_read>
    145c:	90 e0       	ldi	r25, 0x00	; 0
    145e:	90 93 f4 03 	sts	0x03F4, r25	; 0x8003f4 <dh1+0x1>
    1462:	80 93 f3 03 	sts	0x03F3, r24	; 0x8003f3 <dh1>
 dh2=EEPROM_read(0x16);//Гистерезис влажности десятые проценты
    1466:	86 e1       	ldi	r24, 0x16	; 22
    1468:	90 e0       	ldi	r25, 0x00	; 0
    146a:	0e 94 86 04 	call	0x90c	; 0x90c <EEPROM_read>
    146e:	c8 2f       	mov	r28, r24
    1470:	d0 e0       	ldi	r29, 0x00	; 0
    1472:	d0 93 c4 03 	sts	0x03C4, r29	; 0x8003c4 <dh2+0x1>
    1476:	c0 93 c3 03 	sts	0x03C3, r28	; 0x8003c3 <dh2>
 dt=dt1+(dt2*0.1); 
    147a:	60 91 9c 03 	lds	r22, 0x039C	; 0x80039c <dt2>
    147e:	70 91 9d 03 	lds	r23, 0x039D	; 0x80039d <dt2+0x1>
    1482:	07 2e       	mov	r0, r23
    1484:	00 0c       	add	r0, r0
    1486:	88 0b       	sbc	r24, r24
    1488:	99 0b       	sbc	r25, r25
    148a:	0e 94 e7 27 	call	0x4fce	; 0x4fce <__floatsisf>
    148e:	2d ec       	ldi	r18, 0xCD	; 205
    1490:	3c ec       	ldi	r19, 0xCC	; 204
    1492:	4c ec       	ldi	r20, 0xCC	; 204
    1494:	5d e3       	ldi	r21, 0x3D	; 61
    1496:	0e 94 9c 28 	call	0x5138	; 0x5138 <__mulsf3>
    149a:	6b 01       	movw	r12, r22
    149c:	7c 01       	movw	r14, r24
    149e:	60 91 9a 05 	lds	r22, 0x059A	; 0x80059a <dt1>
    14a2:	70 91 9b 05 	lds	r23, 0x059B	; 0x80059b <dt1+0x1>
    14a6:	07 2e       	mov	r0, r23
    14a8:	00 0c       	add	r0, r0
    14aa:	88 0b       	sbc	r24, r24
    14ac:	99 0b       	sbc	r25, r25
    14ae:	0e 94 e7 27 	call	0x4fce	; 0x4fce <__floatsisf>
    14b2:	9b 01       	movw	r18, r22
    14b4:	ac 01       	movw	r20, r24
    14b6:	c7 01       	movw	r24, r14
    14b8:	b6 01       	movw	r22, r12
    14ba:	0e 94 cc 26 	call	0x4d98	; 0x4d98 <__addsf3>
    14be:	60 93 8b 05 	sts	0x058B, r22	; 0x80058b <dt>
    14c2:	70 93 8c 05 	sts	0x058C, r23	; 0x80058c <dt+0x1>
    14c6:	80 93 8d 05 	sts	0x058D, r24	; 0x80058d <dt+0x2>
    14ca:	90 93 8e 05 	sts	0x058E, r25	; 0x80058e <dt+0x3>
 dh=dh1+(dh2*0.1);
    14ce:	60 91 f3 03 	lds	r22, 0x03F3	; 0x8003f3 <dh1>
    14d2:	70 91 f4 03 	lds	r23, 0x03F4	; 0x8003f4 <dh1+0x1>
    14d6:	07 2e       	mov	r0, r23
    14d8:	00 0c       	add	r0, r0
    14da:	88 0b       	sbc	r24, r24
    14dc:	99 0b       	sbc	r25, r25
    14de:	0e 94 e7 27 	call	0x4fce	; 0x4fce <__floatsisf>
    14e2:	6b 01       	movw	r12, r22
    14e4:	7c 01       	movw	r14, r24
    14e6:	be 01       	movw	r22, r28
    14e8:	dd 0f       	add	r29, r29
    14ea:	88 0b       	sbc	r24, r24
    14ec:	99 0b       	sbc	r25, r25
    14ee:	0e 94 e7 27 	call	0x4fce	; 0x4fce <__floatsisf>
    14f2:	2d ec       	ldi	r18, 0xCD	; 205
    14f4:	3c ec       	ldi	r19, 0xCC	; 204
    14f6:	4c ec       	ldi	r20, 0xCC	; 204
    14f8:	5d e3       	ldi	r21, 0x3D	; 61
    14fa:	0e 94 9c 28 	call	0x5138	; 0x5138 <__mulsf3>
    14fe:	9b 01       	movw	r18, r22
    1500:	ac 01       	movw	r20, r24
    1502:	c7 01       	movw	r24, r14
    1504:	b6 01       	movw	r22, r12
    1506:	0e 94 cc 26 	call	0x4d98	; 0x4d98 <__addsf3>
    150a:	60 93 a3 03 	sts	0x03A3, r22	; 0x8003a3 <dh>
    150e:	70 93 a4 03 	sts	0x03A4, r23	; 0x8003a4 <dh+0x1>
    1512:	80 93 a5 03 	sts	0x03A5, r24	; 0x8003a5 <dh+0x2>
    1516:	90 93 a6 03 	sts	0x03A6, r25	; 0x8003a6 <dh+0x3>
 service=0;
    151a:	10 92 9f 05 	sts	0x059F, r1	; 0x80059f <service>
 fire=read_adc(0); //Чтение состояния входа ПОЖАР
    151e:	80 e0       	ldi	r24, 0x00	; 0
    1520:	0e 94 e2 00 	call	0x1c4	; 0x1c4 <read_adc>
    1524:	90 93 84 03 	sts	0x0384, r25	; 0x800384 <fire+0x1>
    1528:	80 93 83 03 	sts	0x0383, r24	; 0x800383 <fire>
 preasure=read_adc(1); // Состояние входа ВЫХОД НА РЕЖИМ
    152c:	81 e0       	ldi	r24, 0x01	; 1
    152e:	0e 94 e2 00 	call	0x1c4	; 0x1c4 <read_adc>
    1532:	90 93 81 03 	sts	0x0381, r25	; 0x800381 <preasure+0x1>
    1536:	80 93 80 03 	sts	0x0380, r24	; 0x800380 <preasure>


volts();
    153a:	0e 94 03 22 	call	0x4406	; 0x4406 <volts>
meter();
    153e:	0e 94 cc 06 	call	0xd98	; 0xd98 <meter>
status();
    1542:	0e 94 7e 07 	call	0xefc	; 0xefc <status>
sei();
    1546:	78 94       	sei
j=0;
    1548:	10 92 9a 03 	sts	0x039A, r1	; 0x80039a <j+0x1>
    154c:	10 92 99 03 	sts	0x0399, r1	; 0x800399 <j>
J0;
    1550:	40 e0       	ldi	r20, 0x00	; 0
    1552:	60 e0       	ldi	r22, 0x00	; 0
    1554:	70 e8       	ldi	r23, 0x80	; 128
    1556:	80 e0       	ldi	r24, 0x00	; 0
    1558:	90 e0       	ldi	r25, 0x00	; 0
    155a:	0e 94 77 14 	call	0x28ee	; 0x28ee <registr>
	meter();
	ServiceMenu();
	status();
	vent_status();
	//valve_status();
	if (regim!=2){mode=1;}
    155e:	11 e0       	ldi	r17, 0x01	; 1
		pwr=0;
	}
	
	if(((voltage+delta_U)>=100)||(delta_U>40))
	{
			pwr=1;
    1560:	c1 e0       	ldi	r28, 0x01	; 1
    1562:	d0 e0       	ldi	r29, 0x00	; 0
j=0;
J0;
    while (1) 
	
  {
	if(soft_start==0){ 
    1564:	80 91 98 03 	lds	r24, 0x0398	; 0x800398 <soft_start>
    1568:	81 11       	cpse	r24, r1
    156a:	06 c0       	rjmp	.+12     	; 0x1578 <main+0x428>
	current_adc();
    156c:	0e 94 f8 00 	call	0x1f0	; 0x1f0 <current_adc>
	Alarm_line();
    1570:	0e 94 8d 04 	call	0x91a	; 0x91a <Alarm_line>
    PS500_line();    }
    1574:	0e 94 cd 04 	call	0x99a	; 0x99a <PS500_line>
	#endif
	
	
	
	#if(VENT_SYSTEM==2)
	meter();
    1578:	0e 94 cc 06 	call	0xd98	; 0xd98 <meter>
	ServiceMenu();
    157c:	0e 94 a1 15 	call	0x2b42	; 0x2b42 <ServiceMenu>
	status();
    1580:	0e 94 7e 07 	call	0xefc	; 0xefc <status>
	vent_status();
    1584:	0e 94 70 01 	call	0x2e0	; 0x2e0 <vent_status>
	//valve_status();
	if (regim!=2){mode=1;}
    1588:	80 91 9e 05 	lds	r24, 0x059E	; 0x80059e <regim>
    158c:	82 30       	cpi	r24, 0x02	; 2
    158e:	09 f4       	brne	.+2      	; 0x1592 <main+0x442>
    1590:	c0 c0       	rjmp	.+384    	; 0x1712 <main+0x5c2>
    1592:	10 93 f2 03 	sts	0x03F2, r17	; 0x8003f2 <mode>
	if (regim==2){mode=0;}
	if((voltage+delta_U)<100)
    1596:	20 91 d4 03 	lds	r18, 0x03D4	; 0x8003d4 <voltage>
    159a:	30 91 d5 03 	lds	r19, 0x03D5	; 0x8003d5 <voltage+0x1>
    159e:	80 91 a9 03 	lds	r24, 0x03A9	; 0x8003a9 <delta_U>
    15a2:	90 91 aa 03 	lds	r25, 0x03AA	; 0x8003aa <delta_U+0x1>
    15a6:	82 0f       	add	r24, r18
    15a8:	93 1f       	adc	r25, r19
    15aa:	84 36       	cpi	r24, 0x64	; 100
    15ac:	91 05       	cpc	r25, r1
    15ae:	d4 f4       	brge	.+52     	; 0x15e4 <main+0x494>
	{
		RUN0;
    15b0:	40 e0       	ldi	r20, 0x00	; 0
    15b2:	60 e4       	ldi	r22, 0x40	; 64
    15b4:	70 e0       	ldi	r23, 0x00	; 0
    15b6:	80 e0       	ldi	r24, 0x00	; 0
    15b8:	90 e0       	ldi	r25, 0x00	; 0
    15ba:	0e 94 77 14 	call	0x28ee	; 0x28ee <registr>
		
		pwr=0;
    15be:	10 92 ac 03 	sts	0x03AC, r1	; 0x8003ac <pwr+0x1>
    15c2:	10 92 ab 03 	sts	0x03AB, r1	; 0x8003ab <pwr>
	}
	
	if(((voltage+delta_U)>=100)||(delta_U>40))
    15c6:	80 91 a9 03 	lds	r24, 0x03A9	; 0x8003a9 <delta_U>
    15ca:	90 91 aa 03 	lds	r25, 0x03AA	; 0x8003aa <delta_U+0x1>
    15ce:	20 91 d4 03 	lds	r18, 0x03D4	; 0x8003d4 <voltage>
    15d2:	30 91 d5 03 	lds	r19, 0x03D5	; 0x8003d5 <voltage+0x1>
    15d6:	28 0f       	add	r18, r24
    15d8:	39 1f       	adc	r19, r25
    15da:	24 36       	cpi	r18, 0x64	; 100
    15dc:	31 05       	cpc	r19, r1
    15de:	14 f4       	brge	.+4      	; 0x15e4 <main+0x494>
    15e0:	89 97       	sbiw	r24, 0x29	; 41
    15e2:	5c f0       	brlt	.+22     	; 0x15fa <main+0x4aa>
	{
			pwr=1;
    15e4:	d0 93 ac 03 	sts	0x03AC, r29	; 0x8003ac <pwr+0x1>
    15e8:	c0 93 ab 03 	sts	0x03AB, r28	; 0x8003ab <pwr>
			RUN1;
    15ec:	41 2f       	mov	r20, r17
    15ee:	60 e4       	ldi	r22, 0x40	; 64
    15f0:	70 e0       	ldi	r23, 0x00	; 0
    15f2:	80 e0       	ldi	r24, 0x00	; 0
    15f4:	90 e0       	ldi	r25, 0x00	; 0
    15f6:	0e 94 77 14 	call	0x28ee	; 0x28ee <registr>
	
	

		 //Рабочие режимы   
//================================================================================
		if (!(PINB & 0b001000)  && flag==0 && service==0) // кнопка нажата
    15fa:	1b 99       	sbic	0x03, 3	; 3
    15fc:	47 c0       	rjmp	.+142    	; 0x168c <main+0x53c>
    15fe:	80 91 7c 03 	lds	r24, 0x037C	; 0x80037c <flag>
    1602:	81 11       	cpse	r24, r1
    1604:	43 c0       	rjmp	.+134    	; 0x168c <main+0x53c>
    1606:	80 91 9f 05 	lds	r24, 0x059F	; 0x80059f <service>
    160a:	81 11       	cpse	r24, r1
    160c:	85 c0       	rjmp	.+266    	; 0x1718 <main+0x5c8>
		{
			
			J1;
    160e:	41 2f       	mov	r20, r17
    1610:	60 e0       	ldi	r22, 0x00	; 0
    1612:	70 e8       	ldi	r23, 0x80	; 128
    1614:	80 e0       	ldi	r24, 0x00	; 0
    1616:	90 e0       	ldi	r25, 0x00	; 0
    1618:	0e 94 77 14 	call	0x28ee	; 0x28ee <registr>
			PIND|=0b01000000;//Подсветка дисплея 
    161c:	4e 9a       	sbi	0x09, 6	; 9
			regim++;
    161e:	80 91 9e 05 	lds	r24, 0x059E	; 0x80059e <regim>
    1622:	8f 5f       	subi	r24, 0xFF	; 255
    1624:	80 93 9e 05 	sts	0x059E, r24	; 0x80059e <regim>
			flag=1;
    1628:	10 93 7c 03 	sts	0x037C, r17	; 0x80037c <flag>
			arm =0;
    162c:	10 92 92 05 	sts	0x0592, r1	; 0x800592 <arm>
			d=0;
    1630:	10 92 2a 04 	sts	0x042A, r1	; 0x80042a <d+0x1>
    1634:	10 92 29 04 	sts	0x0429, r1	; 0x800429 <d>
    1638:	2f ef       	ldi	r18, 0xFF	; 255
    163a:	86 e7       	ldi	r24, 0x76	; 118
    163c:	91 e0       	ldi	r25, 0x01	; 1
    163e:	21 50       	subi	r18, 0x01	; 1
    1640:	80 40       	sbci	r24, 0x00	; 0
    1642:	90 40       	sbci	r25, 0x00	; 0
    1644:	e1 f7       	brne	.-8      	; 0x163e <main+0x4ee>
    1646:	00 c0       	rjmp	.+0      	; 0x1648 <main+0x4f8>
    1648:	00 00       	nop
			_delay_ms(30);
			working=0;
    164a:	10 92 7e 03 	sts	0x037E, r1	; 0x80037e <working>
			RN0;
    164e:	40 e0       	ldi	r20, 0x00	; 0
    1650:	60 e8       	ldi	r22, 0x80	; 128
    1652:	70 e0       	ldi	r23, 0x00	; 0
    1654:	80 e0       	ldi	r24, 0x00	; 0
    1656:	90 e0       	ldi	r25, 0x00	; 0
    1658:	0e 94 77 14 	call	0x28ee	; 0x28ee <registr>
			if(regim>3)
    165c:	80 91 9e 05 	lds	r24, 0x059E	; 0x80059e <regim>
    1660:	84 30       	cpi	r24, 0x04	; 4
    1662:	10 f0       	brcs	.+4      	; 0x1668 <main+0x518>
			{
				
				regim=1;
    1664:	10 93 9e 05 	sts	0x059E, r17	; 0x80059e <regim>
			}
			EEPROM_write(0x01, regim);
    1668:	60 91 9e 05 	lds	r22, 0x059E	; 0x80059e <regim>
    166c:	ce 01       	movw	r24, r28
    166e:	0e 94 7e 04 	call	0x8fc	; 0x8fc <EEPROM_write>
    1672:	8f e3       	ldi	r24, 0x3F	; 63
    1674:	9c e9       	ldi	r25, 0x9C	; 156
    1676:	01 97       	sbiw	r24, 0x01	; 1
    1678:	f1 f7       	brne	.-4      	; 0x1676 <main+0x526>
    167a:	00 c0       	rjmp	.+0      	; 0x167c <main+0x52c>
    167c:	00 00       	nop
			_delay_ms(10);
			J0;
    167e:	40 e0       	ldi	r20, 0x00	; 0
    1680:	60 e0       	ldi	r22, 0x00	; 0
    1682:	70 e8       	ldi	r23, 0x80	; 128
    1684:	80 e0       	ldi	r24, 0x00	; 0
    1686:	90 e0       	ldi	r25, 0x00	; 0
    1688:	0e 94 77 14 	call	0x28ee	; 0x28ee <registr>
		}
		
		if( (PINB & 0b0001000)   &&  flag==1 && service==0) // кнопка отпущена
    168c:	1b 9b       	sbis	0x03, 3	; 3
    168e:	12 c0       	rjmp	.+36     	; 0x16b4 <main+0x564>
    1690:	80 91 7c 03 	lds	r24, 0x037C	; 0x80037c <flag>
    1694:	81 30       	cpi	r24, 0x01	; 1
    1696:	71 f4       	brne	.+28     	; 0x16b4 <main+0x564>
    1698:	80 91 9f 05 	lds	r24, 0x059F	; 0x80059f <service>
    169c:	81 11       	cpse	r24, r1
    169e:	0a c0       	rjmp	.+20     	; 0x16b4 <main+0x564>
		{
			arm =0;
    16a0:	10 92 92 05 	sts	0x0592, r1	; 0x800592 <arm>
			flag=0;
    16a4:	10 92 7c 03 	sts	0x037C, r1	; 0x80037c <flag>
    16a8:	8f e3       	ldi	r24, 0x3F	; 63
    16aa:	9c e9       	ldi	r25, 0x9C	; 156
    16ac:	01 97       	sbiw	r24, 0x01	; 1
    16ae:	f1 f7       	brne	.-4      	; 0x16ac <main+0x55c>
    16b0:	00 c0       	rjmp	.+0      	; 0x16b2 <main+0x562>
    16b2:	00 00       	nop
			_delay_ms(10);
		}
						
//-----------------------------------------------------------------------
		if(regim==1 && service==0)     //первый режим (ручной старт)		
    16b4:	80 91 9e 05 	lds	r24, 0x059E	; 0x80059e <regim>
    16b8:	81 30       	cpi	r24, 0x01	; 1
    16ba:	31 f4       	brne	.+12     	; 0x16c8 <main+0x578>
    16bc:	80 91 9f 05 	lds	r24, 0x059F	; 0x80059f <service>
    16c0:	81 11       	cpse	r24, r1
    16c2:	50 cf       	rjmp	.-352    	; 0x1564 <main+0x414>
		{   
			#if(VENT_SYSTEM==1)
			ManualSet();
			#endif	
			#if(VENT_SYSTEM==2)
			Manual();
    16c4:	0e 94 8e 0b 	call	0x171c	; 0x171c <Manual>
			#endif
		}
//--------------------------------------------------------------------------------		
		if(regim==2 && service==0)//второй режим (АВТОМАТИЧЕСКИЙ старт)		
    16c8:	80 91 9e 05 	lds	r24, 0x059E	; 0x80059e <regim>
    16cc:	82 30       	cpi	r24, 0x02	; 2
    16ce:	31 f4       	brne	.+12     	; 0x16dc <main+0x58c>
    16d0:	80 91 9f 05 	lds	r24, 0x059F	; 0x80059f <service>
    16d4:	81 11       	cpse	r24, r1
    16d6:	46 cf       	rjmp	.-372    	; 0x1564 <main+0x414>
		{	
			#if(VENT_SYSTEM==1)
			AutoSet();	
			#endif
			#if(VENT_SYSTEM==2)
			AutoTemp();
    16d8:	0e 94 42 02 	call	0x484	; 0x484 <AutoTemp>
			#endif
		}
//---------------------------------------------------------------------------------------		
		if(regim==3  && service==0 )//третий  режим (Запуск отключён)
    16dc:	80 91 9e 05 	lds	r24, 0x059E	; 0x80059e <regim>
    16e0:	83 30       	cpi	r24, 0x03	; 3
    16e2:	09 f0       	breq	.+2      	; 0x16e6 <main+0x596>
    16e4:	3f cf       	rjmp	.-386    	; 0x1564 <main+0x414>
    16e6:	80 91 9f 05 	lds	r24, 0x059F	; 0x80059f <service>
    16ea:	81 11       	cpse	r24, r1
    16ec:	3b cf       	rjmp	.-394    	; 0x1564 <main+0x414>
		
		{  	
			lcd_gotoxy(0, 0);
    16ee:	60 e0       	ldi	r22, 0x00	; 0
    16f0:	80 e8       	ldi	r24, 0x80	; 128
    16f2:	0e 94 47 05 	call	0xa8e	; 0xa8e <write_to_lcd>
			lcd_puts("¤aѕycє OTK§°«ўH     "); //Запуск отключён
    16f6:	8a e5       	ldi	r24, 0x5A	; 90
    16f8:	91 e0       	ldi	r25, 0x01	; 1
    16fa:	0e 94 1d 06 	call	0xc3a	; 0xc3a <lcd_puts>
			#if(VENT_SYSTEM==1)
			MenuStatus();	
			#endif
			
			#if(VENT_SYSTEM==2)
			StatusBarTemp();
    16fe:	0e 94 17 0d 	call	0x1a2e	; 0x1a2e <StatusBarTemp>
			
			#endif
			NORMAL0;	
    1702:	40 e0       	ldi	r20, 0x00	; 0
    1704:	60 e0       	ldi	r22, 0x00	; 0
    1706:	71 e0       	ldi	r23, 0x01	; 1
    1708:	80 e0       	ldi	r24, 0x00	; 0
    170a:	90 e0       	ldi	r25, 0x00	; 0
    170c:	0e 94 77 14 	call	0x28ee	; 0x28ee <registr>
    1710:	29 cf       	rjmp	.-430    	; 0x1564 <main+0x414>
	ServiceMenu();
	status();
	vent_status();
	//valve_status();
	if (regim!=2){mode=1;}
	if (regim==2){mode=0;}
    1712:	10 92 f2 03 	sts	0x03F2, r1	; 0x8003f2 <mode>
    1716:	3f cf       	rjmp	.-386    	; 0x1596 <main+0x446>
			EEPROM_write(0x01, regim);
			_delay_ms(10);
			J0;
		}
		
		if( (PINB & 0b0001000)   &&  flag==1 && service==0) // кнопка отпущена
    1718:	83 b1       	in	r24, 0x03	; 3
    171a:	cc cf       	rjmp	.-104    	; 0x16b4 <main+0x564>

0000171c <Manual>:
{
	
	
	
	
	if((arm==0)&&(PINB & 0b0010000)&&(working==0))// Кнопка отпущена и вентилятор отключен
    171c:	80 91 92 05 	lds	r24, 0x0592	; 0x800592 <arm>
    1720:	81 11       	cpse	r24, r1
    1722:	6c c1       	rjmp	.+728    	; 0x19fc <Manual+0x2e0>
    1724:	1c 9b       	sbis	0x03, 4	; 3
    1726:	67 c1       	rjmp	.+718    	; 0x19f6 <Manual+0x2da>
    1728:	80 91 7e 03 	lds	r24, 0x037E	; 0x80037e <working>
    172c:	81 11       	cpse	r24, r1
    172e:	63 c1       	rjmp	.+710    	; 0x19f6 <Manual+0x2da>
	 
	{  
		if(soft_start==0){blink=0;tk=0;run_status=0;run_relay=0;}
    1730:	80 91 98 03 	lds	r24, 0x0398	; 0x800398 <soft_start>
    1734:	81 11       	cpse	r24, r1
    1736:	0e c0       	rjmp	.+28     	; 0x1754 <Manual+0x38>
    1738:	10 92 dd 03 	sts	0x03DD, r1	; 0x8003dd <blink+0x1>
    173c:	10 92 dc 03 	sts	0x03DC, r1	; 0x8003dc <blink>
    1740:	10 92 a2 03 	sts	0x03A2, r1	; 0x8003a2 <tk+0x1>
    1744:	10 92 a1 03 	sts	0x03A1, r1	; 0x8003a1 <tk>
    1748:	10 92 9f 03 	sts	0x039F, r1	; 0x80039f <run_status+0x1>
    174c:	10 92 9e 03 	sts	0x039E, r1	; 0x80039e <run_status>
    1750:	10 92 d1 03 	sts	0x03D1, r1	; 0x8003d1 <run_relay>
		NORMAL0;
    1754:	40 e0       	ldi	r20, 0x00	; 0
    1756:	60 e0       	ldi	r22, 0x00	; 0
    1758:	71 e0       	ldi	r23, 0x01	; 1
    175a:	80 e0       	ldi	r24, 0x00	; 0
    175c:	90 e0       	ldi	r25, 0x00	; 0
    175e:	0e 94 77 14 	call	0x28ee	; 0x28ee <registr>
		lcd_gotoxy(0, 0);
    1762:	60 e0       	ldi	r22, 0x00	; 0
    1764:	80 e8       	ldi	r24, 0x80	; 128
    1766:	0e 94 47 05 	call	0xa8e	; 0xa8e <write_to_lcd>
		lcd_puts("PyАЅo№ PEЈҐM    "); //Ручной режим	
    176a:	8f e6       	ldi	r24, 0x6F	; 111
    176c:	91 e0       	ldi	r25, 0x01	; 1
    176e:	0e 94 1d 06 	call	0xc3a	; 0xc3a <lcd_puts>
		StatusBarTemp();
    1772:	0e 94 17 0d 	call	0x1a2e	; 0x1a2e <StatusBarTemp>
		blink_detect=0;//!!!!!!!!!!!!!!!!!!!!!!!!!!!!!!!!!!!!!!!!!!!!!!!!!!!!!!!!!!!!!!!!!!!!!!!!!!!!!!!!!
    1776:	10 92 35 04 	sts	0x0435, r1	; 0x800435 <blink_detect+0x1>
    177a:	10 92 34 04 	sts	0x0434, r1	; 0x800434 <blink_detect>
		pwr_flag=0;//!!!!!!!!!!!!!!!!!!!!!!!!!!!!!!!!!!!!!!!!!!!!!!!!!!!!!!!!!!!!!!!!!!!!!!!!!!!!!!!!!!!!!!!!!!
    177e:	10 92 db 03 	sts	0x03DB, r1	; 0x8003db <pwr_flag>
		soft_start=0;//!!!!!!!!!!!!!!!!!!!!!!!!!!!!!!!!!!!!!!!!!!!!!!!!!!!!!!!!!!!!!!!!!!!!!!!!!!!!!!!!!!!!!!!!!!
    1782:	10 92 98 03 	sts	0x0398, r1	; 0x800398 <soft_start>
		pwm_finish=0;//!!!!!!!!!!!!!!!!!!!!!!!!!!!!!!!!!!!!!!!!!!!!!!!!!!!!!!!!!!!!!!!!!!!!!!!!!!!!!!!!!!!!!!!!!!
    1786:	10 92 16 04 	sts	0x0416, r1	; 0x800416 <pwm_finish>
    178a:	8f e3       	ldi	r24, 0x3F	; 63
    178c:	9c e9       	ldi	r25, 0x9C	; 156
    178e:	01 97       	sbiw	r24, 0x01	; 1
    1790:	f1 f7       	brne	.-4      	; 0x178e <Manual+0x72>
    1792:	00 c0       	rjmp	.+0      	; 0x1794 <Manual+0x78>
    1794:	00 00       	nop
	
	// ОБРАБОТКА КНОПКИ  РУЧНОГО ПУСКА
	//____________________________________________________________
	
	
	if((!(PINB & 0b0010000))&& (arm==0) &&(working==0))//Кнопка нажата
    1796:	1c 99       	sbic	0x03, 4	; 3
    1798:	20 c0       	rjmp	.+64     	; 0x17da <Manual+0xbe>
    179a:	80 91 92 05 	lds	r24, 0x0592	; 0x800592 <arm>
    179e:	88 23       	and	r24, r24
    17a0:	09 f4       	brne	.+2      	; 0x17a4 <Manual+0x88>
    17a2:	32 c1       	rjmp	.+612    	; 0x1a08 <Manual+0x2ec>
    17a4:	1a c0       	rjmp	.+52     	; 0x17da <Manual+0xbe>
	
	   {
		J1;
    17a6:	41 e0       	ldi	r20, 0x01	; 1
    17a8:	60 e0       	ldi	r22, 0x00	; 0
    17aa:	70 e8       	ldi	r23, 0x80	; 128
    17ac:	80 e0       	ldi	r24, 0x00	; 0
    17ae:	90 e0       	ldi	r25, 0x00	; 0
    17b0:	0e 94 77 14 	call	0x28ee	; 0x28ee <registr>
		arm=1;
    17b4:	81 e0       	ldi	r24, 0x01	; 1
    17b6:	80 93 92 05 	sts	0x0592, r24	; 0x800592 <arm>
    17ba:	9f ef       	ldi	r25, 0xFF	; 255
    17bc:	2a e6       	ldi	r18, 0x6A	; 106
    17be:	83 e0       	ldi	r24, 0x03	; 3
    17c0:	91 50       	subi	r25, 0x01	; 1
    17c2:	20 40       	sbci	r18, 0x00	; 0
    17c4:	80 40       	sbci	r24, 0x00	; 0
    17c6:	e1 f7       	brne	.-8      	; 0x17c0 <Manual+0xa4>
    17c8:	00 c0       	rjmp	.+0      	; 0x17ca <Manual+0xae>
    17ca:	00 00       	nop
		_delay_ms(70);
		J0;
    17cc:	40 e0       	ldi	r20, 0x00	; 0
    17ce:	60 e0       	ldi	r22, 0x00	; 0
    17d0:	70 e8       	ldi	r23, 0x80	; 128
    17d2:	80 e0       	ldi	r24, 0x00	; 0
    17d4:	90 e0       	ldi	r25, 0x00	; 0
    17d6:	0e 94 77 14 	call	0x28ee	; 0x28ee <registr>
	   }
	   	   
	if((arm==1)&&(PINB & 0b0010000)&&(working==0))// Кнопка отпущена , вентилятор запущен в ручном режиме
    17da:	80 91 92 05 	lds	r24, 0x0592	; 0x800592 <arm>
    17de:	81 30       	cpi	r24, 0x01	; 1
    17e0:	09 f0       	breq	.+2      	; 0x17e4 <Manual+0xc8>
    17e2:	1f c1       	rjmp	.+574    	; 0x1a22 <Manual+0x306>
    17e4:	1c 9b       	sbis	0x03, 4	; 3
    17e6:	8b c0       	rjmp	.+278    	; 0x18fe <Manual+0x1e2>
    17e8:	80 91 7e 03 	lds	r24, 0x037E	; 0x80037e <working>
    17ec:	81 11       	cpse	r24, r1
    17ee:	87 c0       	rjmp	.+270    	; 0x18fe <Manual+0x1e2>
	
     	{   
			 		 
	 if((preority==0)&&(external==0))
    17f0:	80 91 82 03 	lds	r24, 0x0382	; 0x800382 <preority>
    17f4:	81 11       	cpse	r24, r1
    17f6:	28 c0       	rjmp	.+80     	; 0x1848 <Manual+0x12c>
    17f8:	80 91 28 04 	lds	r24, 0x0428	; 0x800428 <external>
    17fc:	81 11       	cpse	r24, r1
    17fe:	0c c1       	rjmp	.+536    	; 0x1a18 <Manual+0x2fc>
		{ 
			lcd_gotoxy(0,0);
    1800:	60 e0       	ldi	r22, 0x00	; 0
    1802:	80 e8       	ldi	r24, 0x80	; 128
    1804:	0e 94 47 05 	call	0xa8e	; 0xa8e <write_to_lcd>
			lcd_puts("PyАЅo№ Ё©CK іeЅї"); //Ручной пуск вентилятора
    1808:	80 e8       	ldi	r24, 0x80	; 128
    180a:	91 e0       	ldi	r25, 0x01	; 1
    180c:	0e 94 1d 06 	call	0xc3a	; 0xc3a <lcd_puts>
		   arm=0;
    1810:	10 92 92 05 	sts	0x0592, r1	; 0x800592 <arm>
		   working=1;
    1814:	81 e0       	ldi	r24, 0x01	; 1
    1816:	80 93 7e 03 	sts	0x037E, r24	; 0x80037e <working>
		   autorun=1;
    181a:	80 93 7d 03 	sts	0x037D, r24	; 0x80037d <autorun>
		   blink=0;
    181e:	10 92 dd 03 	sts	0x03DD, r1	; 0x8003dd <blink+0x1>
    1822:	10 92 dc 03 	sts	0x03DC, r1	; 0x8003dc <blink>
		   blink_detect=0;
    1826:	10 92 35 04 	sts	0x0435, r1	; 0x800435 <blink_detect+0x1>
    182a:	10 92 34 04 	sts	0x0434, r1	; 0x800434 <blink_detect>
		   soft_start=1;//!!!!!!!!!!!!!!!!!!!!!!!!!!!!!!!!!!!!!!!!!!!!!!!!!!!!!!!!!!!!!!!!!!!!!!!!!!!!!!!!!!!!!!!!!!
    182e:	80 93 98 03 	sts	0x0398, r24	; 0x800398 <soft_start>
		   pwm_finish=0;//!!!!!!!!!!!!!!!!!!!!!!!!!!!!!!!!!!!!!!!!!!!!!!!!!!!!!!!!!!!!!!!!!!!!!!!!!!!!!!!!!!!!!!!!!!
    1832:	10 92 16 04 	sts	0x0416, r1	; 0x800416 <pwm_finish>
    1836:	9f ef       	ldi	r25, 0xFF	; 255
    1838:	29 ef       	ldi	r18, 0xF9	; 249
    183a:	80 e0       	ldi	r24, 0x00	; 0
    183c:	91 50       	subi	r25, 0x01	; 1
    183e:	20 40       	sbci	r18, 0x00	; 0
    1840:	80 40       	sbci	r24, 0x00	; 0
    1842:	e1 f7       	brne	.-8      	; 0x183c <Manual+0x120>
    1844:	00 c0       	rjmp	.+0      	; 0x1846 <Manual+0x12a>
    1846:	00 00       	nop
		  // RN1;
		    _delay_ms(20);	
			
		}
		
		if((preority==2)||(external==1))
    1848:	80 91 82 03 	lds	r24, 0x0382	; 0x800382 <preority>
    184c:	82 30       	cpi	r24, 0x02	; 2
    184e:	21 f0       	breq	.+8      	; 0x1858 <Manual+0x13c>
    1850:	80 91 28 04 	lds	r24, 0x0428	; 0x800428 <external>
    1854:	81 30       	cpi	r24, 0x01	; 1
    1856:	09 f5       	brne	.+66     	; 0x189a <Manual+0x17e>
		{
			working=1;
    1858:	81 e0       	ldi	r24, 0x01	; 1
    185a:	80 93 7e 03 	sts	0x037E, r24	; 0x80037e <working>
			RN0;
    185e:	40 e0       	ldi	r20, 0x00	; 0
    1860:	60 e8       	ldi	r22, 0x80	; 128
    1862:	70 e0       	ldi	r23, 0x00	; 0
    1864:	80 e0       	ldi	r24, 0x00	; 0
    1866:	90 e0       	ldi	r25, 0x00	; 0
    1868:	0e 94 77 14 	call	0x28ee	; 0x28ee <registr>
			soft_start=0;//!!!!!!!!!!!!!!!!!!!!!!!!!!!!!!!!!!!!!!!!!!!!!!!!!!!!!!!!!!!!!!!!!!
    186c:	10 92 98 03 	sts	0x0398, r1	; 0x800398 <soft_start>
			 arm=0;
    1870:	10 92 92 05 	sts	0x0592, r1	; 0x800592 <arm>
			lcd_gotoxy(0, 0);
    1874:	60 e0       	ldi	r22, 0x00	; 0
    1876:	80 e8       	ldi	r24, 0x80	; 128
    1878:	0e 94 47 05 	call	0xa8e	; 0xa8e <write_to_lcd>
			lcd_puts("Ёycє ¤AЁPEвўH   ");
    187c:	84 e2       	ldi	r24, 0x24	; 36
    187e:	91 e0       	ldi	r25, 0x01	; 1
    1880:	0e 94 1d 06 	call	0xc3a	; 0xc3a <lcd_puts>
    1884:	9f ef       	ldi	r25, 0xFF	; 255
    1886:	29 ef       	ldi	r18, 0xF9	; 249
    1888:	80 e0       	ldi	r24, 0x00	; 0
    188a:	91 50       	subi	r25, 0x01	; 1
    188c:	20 40       	sbci	r18, 0x00	; 0
    188e:	80 40       	sbci	r24, 0x00	; 0
    1890:	e1 f7       	brne	.-8      	; 0x188a <Manual+0x16e>
    1892:	00 c0       	rjmp	.+0      	; 0x1894 <Manual+0x178>
    1894:	00 00       	nop
			 _delay_ms(20);
			 autorun=0;
    1896:	10 92 7d 03 	sts	0x037D, r1	; 0x80037d <autorun>
		
		
     }
	
	//__________________Выключение вентилятора____________________________
	if((arm==0)&&(!(PINB & 0b0010000)) &&(working==1))//Кнопка нажата 
    189a:	80 91 92 05 	lds	r24, 0x0592	; 0x800592 <arm>
    189e:	81 11       	cpse	r24, r1
    18a0:	af c0       	rjmp	.+350    	; 0x1a00 <Manual+0x2e4>
    18a2:	1c 99       	sbic	0x03, 4	; 3
    18a4:	57 c0       	rjmp	.+174    	; 0x1954 <Manual+0x238>
    18a6:	80 91 7e 03 	lds	r24, 0x037E	; 0x80037e <working>
    18aa:	81 30       	cpi	r24, 0x01	; 1
    18ac:	09 f0       	breq	.+2      	; 0x18b0 <Manual+0x194>
    18ae:	52 c0       	rjmp	.+164    	; 0x1954 <Manual+0x238>
	
	{	
		RN0;
    18b0:	40 e0       	ldi	r20, 0x00	; 0
    18b2:	60 e8       	ldi	r22, 0x80	; 128
    18b4:	70 e0       	ldi	r23, 0x00	; 0
    18b6:	80 e0       	ldi	r24, 0x00	; 0
    18b8:	90 e0       	ldi	r25, 0x00	; 0
    18ba:	0e 94 77 14 	call	0x28ee	; 0x28ee <registr>
		soft_start=0; //!!!!!!!!!!!!!!!!!!!!!!!!!!!!!!!!!!!!!!!!!!!!!!!!!!!!!!!!!!!!!!!!!!!!!!!!!!!!!!!
    18be:	10 92 98 03 	sts	0x0398, r1	; 0x800398 <soft_start>
		J1;
    18c2:	41 e0       	ldi	r20, 0x01	; 1
    18c4:	60 e0       	ldi	r22, 0x00	; 0
    18c6:	70 e8       	ldi	r23, 0x80	; 128
    18c8:	80 e0       	ldi	r24, 0x00	; 0
    18ca:	90 e0       	ldi	r25, 0x00	; 0
    18cc:	0e 94 77 14 	call	0x28ee	; 0x28ee <registr>
		arm=1;
    18d0:	81 e0       	ldi	r24, 0x01	; 1
    18d2:	80 93 92 05 	sts	0x0592, r24	; 0x800592 <arm>
    18d6:	9f ef       	ldi	r25, 0xFF	; 255
    18d8:	22 e5       	ldi	r18, 0x52	; 82
    18da:	87 e0       	ldi	r24, 0x07	; 7
    18dc:	91 50       	subi	r25, 0x01	; 1
    18de:	20 40       	sbci	r18, 0x00	; 0
    18e0:	80 40       	sbci	r24, 0x00	; 0
    18e2:	e1 f7       	brne	.-8      	; 0x18dc <Manual+0x1c0>
    18e4:	00 c0       	rjmp	.+0      	; 0x18e6 <Manual+0x1ca>
    18e6:	00 00       	nop
		_delay_ms(150);
		J0;
    18e8:	40 e0       	ldi	r20, 0x00	; 0
    18ea:	60 e0       	ldi	r22, 0x00	; 0
    18ec:	70 e8       	ldi	r23, 0x80	; 128
    18ee:	80 e0       	ldi	r24, 0x00	; 0
    18f0:	90 e0       	ldi	r25, 0x00	; 0
    18f2:	0e 94 77 14 	call	0x28ee	; 0x28ee <registr>
	}
	
	if((arm==1)&&(PINB & 0b0010000)&&(working==1) )//Кнопка отпущена , вентилятор отключен
    18f6:	80 91 92 05 	lds	r24, 0x0592	; 0x800592 <arm>
    18fa:	81 30       	cpi	r24, 0x01	; 1
    18fc:	39 f5       	brne	.+78     	; 0x194c <Manual+0x230>
    18fe:	1c 9b       	sbis	0x03, 4	; 3
    1900:	95 c0       	rjmp	.+298    	; 0x1a2c <Manual+0x310>
    1902:	80 91 7e 03 	lds	r24, 0x037E	; 0x80037e <working>
    1906:	81 30       	cpi	r24, 0x01	; 1
    1908:	09 f0       	breq	.+2      	; 0x190c <Manual+0x1f0>
    190a:	90 c0       	rjmp	.+288    	; 0x1a2c <Manual+0x310>
	
	  {
		  run_relay=0;
    190c:	10 92 d1 03 	sts	0x03D1, r1	; 0x8003d1 <run_relay>
		  RN0;
    1910:	40 e0       	ldi	r20, 0x00	; 0
    1912:	60 e8       	ldi	r22, 0x80	; 128
    1914:	70 e0       	ldi	r23, 0x00	; 0
    1916:	80 e0       	ldi	r24, 0x00	; 0
    1918:	90 e0       	ldi	r25, 0x00	; 0
    191a:	0e 94 77 14 	call	0x28ee	; 0x28ee <registr>
		working=0;
    191e:	10 92 7e 03 	sts	0x037E, r1	; 0x80037e <working>
		arm=0;
    1922:	10 92 92 05 	sts	0x0592, r1	; 0x800592 <arm>
		lcd_gotoxy(0, 0);
    1926:	60 e0       	ldi	r22, 0x00	; 0
    1928:	80 e8       	ldi	r24, 0x80	; 128
    192a:	0e 94 47 05 	call	0xa8e	; 0xa8e <write_to_lcd>
		lcd_puts("PyАЅo№ PEЈҐM    "); 
    192e:	8f e6       	ldi	r24, 0x6F	; 111
    1930:	91 e0       	ldi	r25, 0x01	; 1
    1932:	0e 94 1d 06 	call	0xc3a	; 0xc3a <lcd_puts>
    1936:	9f ef       	ldi	r25, 0xFF	; 255
    1938:	29 ef       	ldi	r18, 0xF9	; 249
    193a:	80 e0       	ldi	r24, 0x00	; 0
    193c:	91 50       	subi	r25, 0x01	; 1
    193e:	20 40       	sbci	r18, 0x00	; 0
    1940:	80 40       	sbci	r24, 0x00	; 0
    1942:	e1 f7       	brne	.-8      	; 0x193c <Manual+0x220>
    1944:	00 c0       	rjmp	.+0      	; 0x1946 <Manual+0x22a>
    1946:	00 00       	nop
		//StatusBarTemp();
		
    	_delay_ms(20);
		autorun=0;
    1948:	10 92 7d 03 	sts	0x037D, r1	; 0x80037d <autorun>
	  }
	
	if((arm==0)&&(working==1))// Кнопка отпущена , вентилятор запущен в ручном режиме ВЫВОД ИНФОРМАЦИИ НА ДИСПЛЕЙ
    194c:	80 91 92 05 	lds	r24, 0x0592	; 0x800592 <arm>
    1950:	81 11       	cpse	r24, r1
    1952:	6c c0       	rjmp	.+216    	; 0x1a2c <Manual+0x310>
    1954:	80 91 7e 03 	lds	r24, 0x037E	; 0x80037e <working>
    1958:	81 30       	cpi	r24, 0x01	; 1
    195a:	09 f0       	breq	.+2      	; 0x195e <Manual+0x242>
    195c:	67 c0       	rjmp	.+206    	; 0x1a2c <Manual+0x310>
	
	{	
		if((pwm_finish==1)&&(run_relay==0)){soft_start=0;blink=0;run_relay=1;RN1;}//!!!!!!!!!!!!!!!!!!!!!!!!!!!!!!!!!!!!!!!!!!!!!!!!!!!!!!!!!!!!!!!!!!!
    195e:	80 91 16 04 	lds	r24, 0x0416	; 0x800416 <pwm_finish>
    1962:	81 30       	cpi	r24, 0x01	; 1
    1964:	a1 f4       	brne	.+40     	; 0x198e <Manual+0x272>
    1966:	80 91 d1 03 	lds	r24, 0x03D1	; 0x8003d1 <run_relay>
    196a:	81 11       	cpse	r24, r1
    196c:	10 c0       	rjmp	.+32     	; 0x198e <Manual+0x272>
    196e:	10 92 98 03 	sts	0x0398, r1	; 0x800398 <soft_start>
    1972:	10 92 dd 03 	sts	0x03DD, r1	; 0x8003dd <blink+0x1>
    1976:	10 92 dc 03 	sts	0x03DC, r1	; 0x8003dc <blink>
    197a:	81 e0       	ldi	r24, 0x01	; 1
    197c:	80 93 d1 03 	sts	0x03D1, r24	; 0x8003d1 <run_relay>
    1980:	41 e0       	ldi	r20, 0x01	; 1
    1982:	60 e8       	ldi	r22, 0x80	; 128
    1984:	70 e0       	ldi	r23, 0x00	; 0
    1986:	80 e0       	ldi	r24, 0x00	; 0
    1988:	90 e0       	ldi	r25, 0x00	; 0
    198a:	0e 94 77 14 	call	0x28ee	; 0x28ee <registr>
		
		if((preority==0)&&(external==0))
    198e:	80 91 82 03 	lds	r24, 0x0382	; 0x800382 <preority>
    1992:	81 11       	cpse	r24, r1
    1994:	12 c0       	rjmp	.+36     	; 0x19ba <Manual+0x29e>
    1996:	80 91 28 04 	lds	r24, 0x0428	; 0x800428 <external>
    199a:	81 11       	cpse	r24, r1
    199c:	12 c0       	rjmp	.+36     	; 0x19c2 <Manual+0x2a6>
		{
			
			
			if(soft_start==0){
    199e:	80 91 98 03 	lds	r24, 0x0398	; 0x800398 <soft_start>
    19a2:	81 11       	cpse	r24, r1
    19a4:	43 c0       	rjmp	.+134    	; 0x1a2c <Manual+0x310>
				lcd_gotoxy(0,0);
    19a6:	60 e0       	ldi	r22, 0x00	; 0
    19a8:	80 e8       	ldi	r24, 0x80	; 128
    19aa:	0e 94 47 05 	call	0xa8e	; 0xa8e <write_to_lcd>
				lcd_puts("PyАЅo№ Ё©CK іeЅї"); //Ручной пуск вентилятора
    19ae:	80 e8       	ldi	r24, 0x80	; 128
    19b0:	91 e0       	ldi	r25, 0x01	; 1
    19b2:	0e 94 1d 06 	call	0xc3a	; 0xc3a <lcd_puts>
				StatusBarTemp();}
    19b6:	0e 94 17 0d 	call	0x1a2e	; 0x1a2e <StatusBarTemp>
			
		}
		
		if((preority==2)||(external==1))
    19ba:	80 91 82 03 	lds	r24, 0x0382	; 0x800382 <preority>
    19be:	82 30       	cpi	r24, 0x02	; 2
    19c0:	21 f0       	breq	.+8      	; 0x19ca <Manual+0x2ae>
    19c2:	80 91 28 04 	lds	r24, 0x0428	; 0x800428 <external>
    19c6:	81 30       	cpi	r24, 0x01	; 1
    19c8:	89 f5       	brne	.+98     	; 0x1a2c <Manual+0x310>
		{
			
			RN0;
    19ca:	40 e0       	ldi	r20, 0x00	; 0
    19cc:	60 e8       	ldi	r22, 0x80	; 128
    19ce:	70 e0       	ldi	r23, 0x00	; 0
    19d0:	80 e0       	ldi	r24, 0x00	; 0
    19d2:	90 e0       	ldi	r25, 0x00	; 0
    19d4:	0e 94 77 14 	call	0x28ee	; 0x28ee <registr>
			soft_start=0; //!!!!!!!!!!!!!!!!!!!!!!!!!!!!!!!!!!!!!!!!!!!!!!!!!!!!!!!!!!!!!!!!!!!!!!!!!!!!!!!!!!!!!
    19d8:	10 92 98 03 	sts	0x0398, r1	; 0x800398 <soft_start>
			lcd_gotoxy(0, 0);
    19dc:	60 e0       	ldi	r22, 0x00	; 0
    19de:	80 e8       	ldi	r24, 0x80	; 128
    19e0:	0e 94 47 05 	call	0xa8e	; 0xa8e <write_to_lcd>
			lcd_puts("Ёycє ¤AЁPEвўH   ");
    19e4:	84 e2       	ldi	r24, 0x24	; 36
    19e6:	91 e0       	ldi	r25, 0x01	; 1
    19e8:	0e 94 1d 06 	call	0xc3a	; 0xc3a <lcd_puts>
			autorun=0;
    19ec:	10 92 7d 03 	sts	0x037D, r1	; 0x80037d <autorun>
			StatusBarTemp();
    19f0:	0e 94 17 0d 	call	0x1a2e	; 0x1a2e <StatusBarTemp>
		}
					
	}
	
    19f4:	08 95       	ret
	
	// ОБРАБОТКА КНОПКИ  РУЧНОГО ПУСКА
	//____________________________________________________________
	
	
	if((!(PINB & 0b0010000))&& (arm==0) &&(working==0))//Кнопка нажата
    19f6:	1c 9b       	sbis	0x03, 4	; 3
    19f8:	07 c0       	rjmp	.+14     	; 0x1a08 <Manual+0x2ec>
    19fa:	4f cf       	rjmp	.-354    	; 0x189a <Manual+0x17e>
    19fc:	83 b1       	in	r24, 0x03	; 3
    19fe:	ed ce       	rjmp	.-550    	; 0x17da <Manual+0xbe>
		arm=1;
		_delay_ms(150);
		J0;
	}
	
	if((arm==1)&&(PINB & 0b0010000)&&(working==1) )//Кнопка отпущена , вентилятор отключен
    1a00:	81 30       	cpi	r24, 0x01	; 1
    1a02:	09 f4       	brne	.+2      	; 0x1a06 <Manual+0x2ea>
    1a04:	7c cf       	rjmp	.-264    	; 0x18fe <Manual+0x1e2>
    1a06:	08 95       	ret
	
	// ОБРАБОТКА КНОПКИ  РУЧНОГО ПУСКА
	//____________________________________________________________
	
	
	if((!(PINB & 0b0010000))&& (arm==0) &&(working==0))//Кнопка нажата
    1a08:	80 91 7e 03 	lds	r24, 0x037E	; 0x80037e <working>
    1a0c:	81 11       	cpse	r24, r1
    1a0e:	49 cf       	rjmp	.-366    	; 0x18a2 <Manual+0x186>
    1a10:	ca ce       	rjmp	.-620    	; 0x17a6 <Manual+0x8a>
		
		
     }
	
	//__________________Выключение вентилятора____________________________
	if((arm==0)&&(!(PINB & 0b0010000)) &&(working==1))//Кнопка нажата 
    1a12:	80 91 92 05 	lds	r24, 0x0592	; 0x800592 <arm>
    1a16:	f4 cf       	rjmp	.-24     	; 0x1a00 <Manual+0x2e4>
		  // RN1;
		    _delay_ms(20);	
			
		}
		
		if((preority==2)||(external==1))
    1a18:	80 91 28 04 	lds	r24, 0x0428	; 0x800428 <external>
    1a1c:	81 30       	cpi	r24, 0x01	; 1
    1a1e:	c9 f7       	brne	.-14     	; 0x1a12 <Manual+0x2f6>
    1a20:	1b cf       	rjmp	.-458    	; 0x1858 <Manual+0x13c>
		
		
     }
	
	//__________________Выключение вентилятора____________________________
	if((arm==0)&&(!(PINB & 0b0010000)) &&(working==1))//Кнопка нажата 
    1a22:	80 91 92 05 	lds	r24, 0x0592	; 0x800592 <arm>
    1a26:	88 23       	and	r24, r24
    1a28:	09 f4       	brne	.+2      	; 0x1a2c <Manual+0x310>
    1a2a:	3b cf       	rjmp	.-394    	; 0x18a2 <Manual+0x186>
    1a2c:	08 95       	ret

00001a2e <StatusBarTemp>:

#if(VENT_SYSTEM==2)      //Для систем ОВ

void StatusBarTemp(void)

{   
    1a2e:	cf 93       	push	r28
    1a30:	df 93       	push	r29
	 if(regim!=1)
    1a32:	80 91 9e 05 	lds	r24, 0x059E	; 0x80059e <regim>
    1a36:	81 30       	cpi	r24, 0x01	; 1
    1a38:	09 f4       	brne	.+2      	; 0x1a3c <StatusBarTemp+0xe>
    1a3a:	06 c1       	rjmp	.+524    	; 0x1c48 <StatusBarTemp+0x21a>
	 
	 {
	
		lcd_gotoxy(0,1);
    1a3c:	60 e0       	ldi	r22, 0x00	; 0
    1a3e:	80 ec       	ldi	r24, 0xC0	; 192
    1a40:	0e 94 47 05 	call	0xa8e	; 0xa8e <write_to_lcd>
		tt=0;
    1a44:	10 92 13 04 	sts	0x0413, r1	; 0x800413 <tt+0x1>
    1a48:	10 92 12 04 	sts	0x0412, r1	; 0x800412 <tt>
		if(d==7){pr();}
    1a4c:	c0 91 29 04 	lds	r28, 0x0429	; 0x800429 <d>
    1a50:	d0 91 2a 04 	lds	r29, 0x042A	; 0x80042a <d+0x1>
    1a54:	c7 30       	cpi	r28, 0x07	; 7
    1a56:	d1 05       	cpc	r29, r1
    1a58:	09 f0       	breq	.+2      	; 0x1a5c <StatusBarTemp+0x2e>
    1a5a:	f8 c1       	rjmp	.+1008   	; 0x1e4c <StatusBarTemp+0x41e>
    1a5c:	0e 94 49 04 	call	0x892	; 0x892 <pr>
		for(int m=d;m<7;m++)
    1a60:	c0 91 29 04 	lds	r28, 0x0429	; 0x800429 <d>
    1a64:	d0 91 2a 04 	lds	r29, 0x042A	; 0x80042a <d+0x1>
    1a68:	c7 30       	cpi	r28, 0x07	; 7
    1a6a:	d1 05       	cpc	r29, r1
    1a6c:	0c f0       	brlt	.+2      	; 0x1a70 <StatusBarTemp+0x42>
    1a6e:	74 c0       	rjmp	.+232    	; 0x1b58 <StatusBarTemp+0x12a>
		{
			
			if(stat[m]==1)
    1a70:	fe 01       	movw	r30, r28
    1a72:	ee 0f       	add	r30, r30
    1a74:	ff 1f       	adc	r31, r31
    1a76:	ef 5a       	subi	r30, 0xAF	; 175
    1a78:	fb 4f       	sbci	r31, 0xFB	; 251
    1a7a:	80 81       	ld	r24, Z
    1a7c:	91 81       	ldd	r25, Z+1	; 0x01
    1a7e:	01 97       	sbiw	r24, 0x01	; 1
    1a80:	09 f0       	breq	.+2      	; 0x1a84 <StatusBarTemp+0x56>
    1a82:	60 c0       	rjmp	.+192    	; 0x1b44 <StatusBarTemp+0x116>
    1a84:	05 c0       	rjmp	.+10     	; 0x1a90 <StatusBarTemp+0x62>
    1a86:	81 91       	ld	r24, Z+
    1a88:	91 91       	ld	r25, Z+
    1a8a:	01 97       	sbiw	r24, 0x01	; 1
    1a8c:	09 f0       	breq	.+2      	; 0x1a90 <StatusBarTemp+0x62>
    1a8e:	5f c0       	rjmp	.+190    	; 0x1b4e <StatusBarTemp+0x120>
			{
				switch (m)
    1a90:	c7 30       	cpi	r28, 0x07	; 7
    1a92:	d1 05       	cpc	r29, r1
    1a94:	08 f0       	brcs	.+2      	; 0x1a98 <StatusBarTemp+0x6a>
    1a96:	51 c0       	rjmp	.+162    	; 0x1b3a <StatusBarTemp+0x10c>
    1a98:	fe 01       	movw	r30, r28
    1a9a:	ec 5c       	subi	r30, 0xCC	; 204
    1a9c:	ff 4f       	sbci	r31, 0xFF	; 255
    1a9e:	0c 94 6b 26 	jmp	0x4cd6	; 0x4cd6 <__tablejump2__>
				{
					case 0 :
					lcd_puts("!CёґЅa» ЁOЈAP_! ");
    1aa2:	81 e9       	ldi	r24, 0x91	; 145
    1aa4:	91 e0       	ldi	r25, 0x01	; 1
    1aa6:	0e 94 1d 06 	call	0xc3a	; 0xc3a <lcd_puts>
					tt=1;
    1aaa:	81 e0       	ldi	r24, 0x01	; 1
    1aac:	90 e0       	ldi	r25, 0x00	; 0
    1aae:	90 93 13 04 	sts	0x0413, r25	; 0x800413 <tt+0x1>
    1ab2:	80 93 12 04 	sts	0x0412, r24	; 0x800412 <tt>
					break;
    1ab6:	41 c0       	rjmp	.+130    	; 0x1b3a <StatusBarTemp+0x10c>
					
					case 1 :
					lcd_puts("AіapёЗ ѕёїaЅёЗ  ");
    1ab8:	82 ea       	ldi	r24, 0xA2	; 162
    1aba:	91 e0       	ldi	r25, 0x01	; 1
    1abc:	0e 94 1d 06 	call	0xc3a	; 0xc3a <lcd_puts>
					tt=1;
    1ac0:	81 e0       	ldi	r24, 0x01	; 1
    1ac2:	90 e0       	ldi	r25, 0x00	; 0
    1ac4:	90 93 13 04 	sts	0x0413, r25	; 0x800413 <tt+0x1>
    1ac8:	80 93 12 04 	sts	0x0412, r24	; 0x800412 <tt>
					break;
    1acc:	36 c0       	rjmp	.+108    	; 0x1b3a <StatusBarTemp+0x10c>
					
					case 2 :
					lcd_puts("AіapёЗ іxoгa AL ");
    1ace:	83 eb       	ldi	r24, 0xB3	; 179
    1ad0:	91 e0       	ldi	r25, 0x01	; 1
    1ad2:	0e 94 1d 06 	call	0xc3a	; 0xc3a <lcd_puts>
					tt=1;
    1ad6:	81 e0       	ldi	r24, 0x01	; 1
    1ad8:	90 e0       	ldi	r25, 0x00	; 0
    1ada:	90 93 13 04 	sts	0x0413, r25	; 0x800413 <tt+0x1>
    1ade:	80 93 12 04 	sts	0x0412, r24	; 0x800412 <tt>
					break;
    1ae2:	2b c0       	rjmp	.+86     	; 0x1b3a <StatusBarTemp+0x10c>
					
					case 3 :
					lcd_puts("AіapёЗ іxoгa PS ");
    1ae4:	84 ec       	ldi	r24, 0xC4	; 196
    1ae6:	91 e0       	ldi	r25, 0x01	; 1
    1ae8:	0e 94 1d 06 	call	0xc3a	; 0xc3a <lcd_puts>
					tt=1;
    1aec:	81 e0       	ldi	r24, 0x01	; 1
    1aee:	90 e0       	ldi	r25, 0x00	; 0
    1af0:	90 93 13 04 	sts	0x0413, r25	; 0x800413 <tt+0x1>
    1af4:	80 93 12 04 	sts	0x0412, r24	; 0x800412 <tt>
					break;
    1af8:	20 c0       	rjmp	.+64     	; 0x1b3a <StatusBarTemp+0x10c>
					
					case 4 :
					lcd_puts("AіapёЗ 380B     ");
    1afa:	85 ed       	ldi	r24, 0xD5	; 213
    1afc:	91 e0       	ldi	r25, 0x01	; 1
    1afe:	0e 94 1d 06 	call	0xc3a	; 0xc3a <lcd_puts>
					tt=1;
    1b02:	81 e0       	ldi	r24, 0x01	; 1
    1b04:	90 e0       	ldi	r25, 0x00	; 0
    1b06:	90 93 13 04 	sts	0x0413, r25	; 0x800413 <tt+0x1>
    1b0a:	80 93 12 04 	sts	0x0412, r24	; 0x800412 <tt>
					break;
    1b0e:	15 c0       	rjmp	.+42     	; 0x1b3a <StatusBarTemp+0x10c>
					
					case 5 :
					lcd_puts("AіapёЗ »ёЅёё DHT");//DHT
    1b10:	86 ee       	ldi	r24, 0xE6	; 230
    1b12:	91 e0       	ldi	r25, 0x01	; 1
    1b14:	0e 94 1d 06 	call	0xc3a	; 0xc3a <lcd_puts>
					tt=1;
    1b18:	81 e0       	ldi	r24, 0x01	; 1
    1b1a:	90 e0       	ldi	r25, 0x00	; 0
    1b1c:	90 93 13 04 	sts	0x0413, r25	; 0x800413 <tt+0x1>
    1b20:	80 93 12 04 	sts	0x0412, r24	; 0x800412 <tt>
					break;
    1b24:	0a c0       	rjmp	.+20     	; 0x1b3a <StatusBarTemp+0x10c>
					
					case 6 :
					lcd_puts("AіapёЗ є»aѕaЅa  ");//Авария клапана
    1b26:	87 ef       	ldi	r24, 0xF7	; 247
    1b28:	91 e0       	ldi	r25, 0x01	; 1
    1b2a:	0e 94 1d 06 	call	0xc3a	; 0xc3a <lcd_puts>
					tt=1;
    1b2e:	81 e0       	ldi	r24, 0x01	; 1
    1b30:	90 e0       	ldi	r25, 0x00	; 0
    1b32:	90 93 13 04 	sts	0x0413, r25	; 0x800413 <tt+0x1>
    1b36:	80 93 12 04 	sts	0x0412, r24	; 0x800412 <tt>
					break;
					
				}
				d=m;
    1b3a:	d0 93 2a 04 	sts	0x042A, r29	; 0x80042a <d+0x1>
    1b3e:	c0 93 29 04 	sts	0x0429, r28	; 0x800429 <d>
				break;
    1b42:	0a c0       	rjmp	.+20     	; 0x1b58 <StatusBarTemp+0x12a>
    1b44:	fe 01       	movw	r30, r28
    1b46:	ee 0f       	add	r30, r30
    1b48:	ff 1f       	adc	r31, r31
    1b4a:	ed 5a       	subi	r30, 0xAD	; 173
    1b4c:	fb 4f       	sbci	r31, 0xFB	; 251
	 {
	
		lcd_gotoxy(0,1);
		tt=0;
		if(d==7){pr();}
		for(int m=d;m<7;m++)
    1b4e:	21 96       	adiw	r28, 0x01	; 1
    1b50:	c7 30       	cpi	r28, 0x07	; 7
    1b52:	d1 05       	cpc	r29, r1
    1b54:	0c f4       	brge	.+2      	; 0x1b58 <StatusBarTemp+0x12a>
    1b56:	97 cf       	rjmp	.-210    	; 0x1a86 <StatusBarTemp+0x58>
				d=m;
				break;
			}
			
		}
		if (tt==0) {pr();d=0;}
    1b58:	80 91 12 04 	lds	r24, 0x0412	; 0x800412 <tt>
    1b5c:	90 91 13 04 	lds	r25, 0x0413	; 0x800413 <tt+0x1>
    1b60:	89 2b       	or	r24, r25
    1b62:	31 f4       	brne	.+12     	; 0x1b70 <StatusBarTemp+0x142>
    1b64:	0e 94 49 04 	call	0x892	; 0x892 <pr>
    1b68:	10 92 2a 04 	sts	0x042A, r1	; 0x80042a <d+0x1>
    1b6c:	10 92 29 04 	sts	0x0429, r1	; 0x800429 <d>
		if (tt==1) {dht_read();}	
    1b70:	80 91 12 04 	lds	r24, 0x0412	; 0x800412 <tt>
    1b74:	90 91 13 04 	lds	r25, 0x0413	; 0x800413 <tt+0x1>
    1b78:	01 97       	sbiw	r24, 0x01	; 1
    1b7a:	11 f4       	brne	.+4      	; 0x1b80 <StatusBarTemp+0x152>
    1b7c:	0e 94 60 03 	call	0x6c0	; 0x6c0 <dht_read>
		if( (!(PINB & 0b0010000)) && flag2==0) { flag2=1;}
    1b80:	1c 99       	sbic	0x03, 4	; 3
    1b82:	0a c0       	rjmp	.+20     	; 0x1b98 <StatusBarTemp+0x16a>
    1b84:	80 91 ce 03 	lds	r24, 0x03CE	; 0x8003ce <flag2>
    1b88:	81 11       	cpse	r24, r1
    1b8a:	06 c0       	rjmp	.+12     	; 0x1b98 <StatusBarTemp+0x16a>
    1b8c:	81 e0       	ldi	r24, 0x01	; 1
    1b8e:	80 93 ce 03 	sts	0x03CE, r24	; 0x8003ce <flag2>
		
		if( (PINB & 0b0010000) && flag2==1 )
    1b92:	1c 9b       	sbis	0x03, 4	; 3
    1b94:	54 c0       	rjmp	.+168    	; 0x1c3e <StatusBarTemp+0x210>
    1b96:	07 c0       	rjmp	.+14     	; 0x1ba6 <StatusBarTemp+0x178>
    1b98:	1c 9b       	sbis	0x03, 4	; 3
    1b9a:	51 c0       	rjmp	.+162    	; 0x1c3e <StatusBarTemp+0x210>
    1b9c:	80 91 ce 03 	lds	r24, 0x03CE	; 0x8003ce <flag2>
    1ba0:	81 30       	cpi	r24, 0x01	; 1
    1ba2:	09 f0       	breq	.+2      	; 0x1ba6 <StatusBarTemp+0x178>
    1ba4:	4c c0       	rjmp	.+152    	; 0x1c3e <StatusBarTemp+0x210>
		{
			J1;
    1ba6:	41 e0       	ldi	r20, 0x01	; 1
    1ba8:	60 e0       	ldi	r22, 0x00	; 0
    1baa:	70 e8       	ldi	r23, 0x80	; 128
    1bac:	80 e0       	ldi	r24, 0x00	; 0
    1bae:	90 e0       	ldi	r25, 0x00	; 0
    1bb0:	0e 94 77 14 	call	0x28ee	; 0x28ee <registr>
			flag2=0;
    1bb4:	10 92 ce 03 	sts	0x03CE, r1	; 0x8003ce <flag2>
			d=d+1;
    1bb8:	e0 91 29 04 	lds	r30, 0x0429	; 0x800429 <d>
    1bbc:	f0 91 2a 04 	lds	r31, 0x042A	; 0x80042a <d+0x1>
    1bc0:	cf 01       	movw	r24, r30
    1bc2:	01 96       	adiw	r24, 0x01	; 1
    1bc4:	90 93 2a 04 	sts	0x042A, r25	; 0x80042a <d+0x1>
    1bc8:	80 93 29 04 	sts	0x0429, r24	; 0x800429 <d>
			
			
			if(stat[d]==0)
    1bcc:	dc 01       	movw	r26, r24
    1bce:	aa 0f       	add	r26, r26
    1bd0:	bb 1f       	adc	r27, r27
    1bd2:	af 5a       	subi	r26, 0xAF	; 175
    1bd4:	bb 4f       	sbci	r27, 0xFB	; 251
    1bd6:	2d 91       	ld	r18, X+
    1bd8:	3c 91       	ld	r19, X
    1bda:	23 2b       	or	r18, r19
    1bdc:	49 f5       	brne	.+82     	; 0x1c30 <StatusBarTemp+0x202>
			{
				
				for(int n=d;n<7;n++)
    1bde:	87 30       	cpi	r24, 0x07	; 7
    1be0:	91 05       	cpc	r25, r1
    1be2:	5c f0       	brlt	.+22     	; 0x1bfa <StatusBarTemp+0x1cc>
    1be4:	12 c0       	rjmp	.+36     	; 0x1c0a <StatusBarTemp+0x1dc>
				{
					if(stat[n]==1) {d=n; break;}
    1be6:	21 91       	ld	r18, Z+
    1be8:	31 91       	ld	r19, Z+
    1bea:	21 30       	cpi	r18, 0x01	; 1
    1bec:	31 05       	cpc	r19, r1
    1bee:	49 f4       	brne	.+18     	; 0x1c02 <StatusBarTemp+0x1d4>
    1bf0:	90 93 2a 04 	sts	0x042A, r25	; 0x80042a <d+0x1>
    1bf4:	80 93 29 04 	sts	0x0429, r24	; 0x800429 <d>
    1bf8:	08 c0       	rjmp	.+16     	; 0x1c0a <StatusBarTemp+0x1dc>
    1bfa:	ee 0f       	add	r30, r30
    1bfc:	ff 1f       	adc	r31, r31
    1bfe:	eb 5a       	subi	r30, 0xAB	; 171
    1c00:	fb 4f       	sbci	r31, 0xFB	; 251
			
			
			if(stat[d]==0)
			{
				
				for(int n=d;n<7;n++)
    1c02:	01 96       	adiw	r24, 0x01	; 1
    1c04:	87 30       	cpi	r24, 0x07	; 7
    1c06:	91 05       	cpc	r25, r1
    1c08:	71 f7       	brne	.-36     	; 0x1be6 <StatusBarTemp+0x1b8>
				{
					if(stat[n]==1) {d=n; break;}
				}
				
				if(d>7) d=0;
    1c0a:	80 91 29 04 	lds	r24, 0x0429	; 0x800429 <d>
    1c0e:	90 91 2a 04 	lds	r25, 0x042A	; 0x80042a <d+0x1>
    1c12:	08 97       	sbiw	r24, 0x08	; 8
    1c14:	24 f0       	brlt	.+8      	; 0x1c1e <StatusBarTemp+0x1f0>
    1c16:	10 92 2a 04 	sts	0x042A, r1	; 0x80042a <d+0x1>
    1c1a:	10 92 29 04 	sts	0x0429, r1	; 0x800429 <d>
    1c1e:	2f ef       	ldi	r18, 0xFF	; 255
    1c20:	89 ef       	ldi	r24, 0xF9	; 249
    1c22:	90 e0       	ldi	r25, 0x00	; 0
    1c24:	21 50       	subi	r18, 0x01	; 1
    1c26:	80 40       	sbci	r24, 0x00	; 0
    1c28:	90 40       	sbci	r25, 0x00	; 0
    1c2a:	e1 f7       	brne	.-8      	; 0x1c24 <StatusBarTemp+0x1f6>
    1c2c:	00 c0       	rjmp	.+0      	; 0x1c2e <StatusBarTemp+0x200>
    1c2e:	00 00       	nop
				_delay_ms(20);
				
			}
			J0;
    1c30:	40 e0       	ldi	r20, 0x00	; 0
    1c32:	60 e0       	ldi	r22, 0x00	; 0
    1c34:	70 e8       	ldi	r23, 0x80	; 128
    1c36:	80 e0       	ldi	r24, 0x00	; 0
    1c38:	90 e0       	ldi	r25, 0x00	; 0
    1c3a:	0e 94 77 14 	call	0x28ee	; 0x28ee <registr>
		}
		}
		
	 if(regim==1)
    1c3e:	80 91 9e 05 	lds	r24, 0x059E	; 0x80059e <regim>
    1c42:	81 30       	cpi	r24, 0x01	; 1
    1c44:	09 f0       	breq	.+2      	; 0x1c48 <StatusBarTemp+0x21a>
    1c46:	0c c1       	rjmp	.+536    	; 0x1e60 <StatusBarTemp+0x432>
		 		 
	 {
			 
			 lcd_gotoxy(0,1);
    1c48:	60 e0       	ldi	r22, 0x00	; 0
    1c4a:	80 ec       	ldi	r24, 0xC0	; 192
    1c4c:	0e 94 47 05 	call	0xa8e	; 0xa8e <write_to_lcd>
			 tt=0;
    1c50:	10 92 13 04 	sts	0x0413, r1	; 0x800413 <tt+0x1>
    1c54:	10 92 12 04 	sts	0x0412, r1	; 0x800412 <tt>
			 if(d==7){pr();}
    1c58:	c0 91 29 04 	lds	r28, 0x0429	; 0x800429 <d>
    1c5c:	d0 91 2a 04 	lds	r29, 0x042A	; 0x80042a <d+0x1>
    1c60:	c7 30       	cpi	r28, 0x07	; 7
    1c62:	d1 05       	cpc	r29, r1
    1c64:	09 f0       	breq	.+2      	; 0x1c68 <StatusBarTemp+0x23a>
    1c66:	f7 c0       	rjmp	.+494    	; 0x1e56 <StatusBarTemp+0x428>
    1c68:	0e 94 49 04 	call	0x892	; 0x892 <pr>
			 for(int m=d;m<7;m++)
    1c6c:	c0 91 29 04 	lds	r28, 0x0429	; 0x800429 <d>
    1c70:	d0 91 2a 04 	lds	r29, 0x042A	; 0x80042a <d+0x1>
    1c74:	c7 30       	cpi	r28, 0x07	; 7
    1c76:	d1 05       	cpc	r29, r1
    1c78:	0c f0       	brlt	.+2      	; 0x1c7c <StatusBarTemp+0x24e>
    1c7a:	74 c0       	rjmp	.+232    	; 0x1d64 <StatusBarTemp+0x336>
			 {
				 
				 if(stat[m]==1)
    1c7c:	fe 01       	movw	r30, r28
    1c7e:	ee 0f       	add	r30, r30
    1c80:	ff 1f       	adc	r31, r31
    1c82:	ef 5a       	subi	r30, 0xAF	; 175
    1c84:	fb 4f       	sbci	r31, 0xFB	; 251
    1c86:	80 81       	ld	r24, Z
    1c88:	91 81       	ldd	r25, Z+1	; 0x01
    1c8a:	01 97       	sbiw	r24, 0x01	; 1
    1c8c:	09 f0       	breq	.+2      	; 0x1c90 <StatusBarTemp+0x262>
    1c8e:	60 c0       	rjmp	.+192    	; 0x1d50 <StatusBarTemp+0x322>
    1c90:	05 c0       	rjmp	.+10     	; 0x1c9c <StatusBarTemp+0x26e>
    1c92:	81 91       	ld	r24, Z+
    1c94:	91 91       	ld	r25, Z+
    1c96:	01 97       	sbiw	r24, 0x01	; 1
    1c98:	09 f0       	breq	.+2      	; 0x1c9c <StatusBarTemp+0x26e>
    1c9a:	5f c0       	rjmp	.+190    	; 0x1d5a <StatusBarTemp+0x32c>
				 {
					 switch (m)
    1c9c:	c7 30       	cpi	r28, 0x07	; 7
    1c9e:	d1 05       	cpc	r29, r1
    1ca0:	08 f0       	brcs	.+2      	; 0x1ca4 <StatusBarTemp+0x276>
    1ca2:	51 c0       	rjmp	.+162    	; 0x1d46 <StatusBarTemp+0x318>
    1ca4:	fe 01       	movw	r30, r28
    1ca6:	e5 5c       	subi	r30, 0xC5	; 197
    1ca8:	ff 4f       	sbci	r31, 0xFF	; 255
    1caa:	0c 94 6b 26 	jmp	0x4cd6	; 0x4cd6 <__tablejump2__>
					 {
						 case 0 :
						 lcd_puts("!CёґЅa» ЁOЈAP_! ");
    1cae:	81 e9       	ldi	r24, 0x91	; 145
    1cb0:	91 e0       	ldi	r25, 0x01	; 1
    1cb2:	0e 94 1d 06 	call	0xc3a	; 0xc3a <lcd_puts>
						 tt=1;
    1cb6:	81 e0       	ldi	r24, 0x01	; 1
    1cb8:	90 e0       	ldi	r25, 0x00	; 0
    1cba:	90 93 13 04 	sts	0x0413, r25	; 0x800413 <tt+0x1>
    1cbe:	80 93 12 04 	sts	0x0412, r24	; 0x800412 <tt>
						 break;
    1cc2:	41 c0       	rjmp	.+130    	; 0x1d46 <StatusBarTemp+0x318>
						 
						 case 1 :
						 lcd_puts("AіapёЗ ѕёїaЅёЗ  ");
    1cc4:	82 ea       	ldi	r24, 0xA2	; 162
    1cc6:	91 e0       	ldi	r25, 0x01	; 1
    1cc8:	0e 94 1d 06 	call	0xc3a	; 0xc3a <lcd_puts>
						 tt=1;
    1ccc:	81 e0       	ldi	r24, 0x01	; 1
    1cce:	90 e0       	ldi	r25, 0x00	; 0
    1cd0:	90 93 13 04 	sts	0x0413, r25	; 0x800413 <tt+0x1>
    1cd4:	80 93 12 04 	sts	0x0412, r24	; 0x800412 <tt>
						 break;
    1cd8:	36 c0       	rjmp	.+108    	; 0x1d46 <StatusBarTemp+0x318>
						 
						 case 2 :
						 lcd_puts("AіapёЗ іxoгa AL ");
    1cda:	83 eb       	ldi	r24, 0xB3	; 179
    1cdc:	91 e0       	ldi	r25, 0x01	; 1
    1cde:	0e 94 1d 06 	call	0xc3a	; 0xc3a <lcd_puts>
						 tt=1;
    1ce2:	81 e0       	ldi	r24, 0x01	; 1
    1ce4:	90 e0       	ldi	r25, 0x00	; 0
    1ce6:	90 93 13 04 	sts	0x0413, r25	; 0x800413 <tt+0x1>
    1cea:	80 93 12 04 	sts	0x0412, r24	; 0x800412 <tt>
						 break;
    1cee:	2b c0       	rjmp	.+86     	; 0x1d46 <StatusBarTemp+0x318>
						 
						 case 3 :
						 lcd_puts("AіapёЗ іxoгa PS ");
    1cf0:	84 ec       	ldi	r24, 0xC4	; 196
    1cf2:	91 e0       	ldi	r25, 0x01	; 1
    1cf4:	0e 94 1d 06 	call	0xc3a	; 0xc3a <lcd_puts>
						 tt=1;
    1cf8:	81 e0       	ldi	r24, 0x01	; 1
    1cfa:	90 e0       	ldi	r25, 0x00	; 0
    1cfc:	90 93 13 04 	sts	0x0413, r25	; 0x800413 <tt+0x1>
    1d00:	80 93 12 04 	sts	0x0412, r24	; 0x800412 <tt>
						 break;
    1d04:	20 c0       	rjmp	.+64     	; 0x1d46 <StatusBarTemp+0x318>
						 
						 case 4 :
						 lcd_puts("AіapёЗ 380B     ");
    1d06:	85 ed       	ldi	r24, 0xD5	; 213
    1d08:	91 e0       	ldi	r25, 0x01	; 1
    1d0a:	0e 94 1d 06 	call	0xc3a	; 0xc3a <lcd_puts>
						 tt=1;
    1d0e:	81 e0       	ldi	r24, 0x01	; 1
    1d10:	90 e0       	ldi	r25, 0x00	; 0
    1d12:	90 93 13 04 	sts	0x0413, r25	; 0x800413 <tt+0x1>
    1d16:	80 93 12 04 	sts	0x0412, r24	; 0x800412 <tt>
						 break;
    1d1a:	15 c0       	rjmp	.+42     	; 0x1d46 <StatusBarTemp+0x318>
						 
						 case 5 :
						 lcd_puts("AіapёЗ »ёЅёё DHT");//DHT
    1d1c:	86 ee       	ldi	r24, 0xE6	; 230
    1d1e:	91 e0       	ldi	r25, 0x01	; 1
    1d20:	0e 94 1d 06 	call	0xc3a	; 0xc3a <lcd_puts>
						 tt=1;
    1d24:	81 e0       	ldi	r24, 0x01	; 1
    1d26:	90 e0       	ldi	r25, 0x00	; 0
    1d28:	90 93 13 04 	sts	0x0413, r25	; 0x800413 <tt+0x1>
    1d2c:	80 93 12 04 	sts	0x0412, r24	; 0x800412 <tt>
						 break;
    1d30:	0a c0       	rjmp	.+20     	; 0x1d46 <StatusBarTemp+0x318>
						 
						 case 6 :
						 lcd_puts("AіapёЗ є»aѕaЅa  ");//Авария клапана
    1d32:	87 ef       	ldi	r24, 0xF7	; 247
    1d34:	91 e0       	ldi	r25, 0x01	; 1
    1d36:	0e 94 1d 06 	call	0xc3a	; 0xc3a <lcd_puts>
						 tt=1;
    1d3a:	81 e0       	ldi	r24, 0x01	; 1
    1d3c:	90 e0       	ldi	r25, 0x00	; 0
    1d3e:	90 93 13 04 	sts	0x0413, r25	; 0x800413 <tt+0x1>
    1d42:	80 93 12 04 	sts	0x0412, r24	; 0x800412 <tt>
						 break;
						 
					 }
					 d=m;
    1d46:	d0 93 2a 04 	sts	0x042A, r29	; 0x80042a <d+0x1>
    1d4a:	c0 93 29 04 	sts	0x0429, r28	; 0x800429 <d>
					 break;
    1d4e:	0a c0       	rjmp	.+20     	; 0x1d64 <StatusBarTemp+0x336>
    1d50:	fe 01       	movw	r30, r28
    1d52:	ee 0f       	add	r30, r30
    1d54:	ff 1f       	adc	r31, r31
    1d56:	ed 5a       	subi	r30, 0xAD	; 173
    1d58:	fb 4f       	sbci	r31, 0xFB	; 251
	 {
			 
			 lcd_gotoxy(0,1);
			 tt=0;
			 if(d==7){pr();}
			 for(int m=d;m<7;m++)
    1d5a:	21 96       	adiw	r28, 0x01	; 1
    1d5c:	c7 30       	cpi	r28, 0x07	; 7
    1d5e:	d1 05       	cpc	r29, r1
    1d60:	0c f4       	brge	.+2      	; 0x1d64 <StatusBarTemp+0x336>
    1d62:	97 cf       	rjmp	.-210    	; 0x1c92 <StatusBarTemp+0x264>
					 d=m;
					 break;
				 }
				 
			 }
			 if (tt==0) {pr();d=0;}
    1d64:	80 91 12 04 	lds	r24, 0x0412	; 0x800412 <tt>
    1d68:	90 91 13 04 	lds	r25, 0x0413	; 0x800413 <tt+0x1>
    1d6c:	89 2b       	or	r24, r25
    1d6e:	31 f4       	brne	.+12     	; 0x1d7c <StatusBarTemp+0x34e>
    1d70:	0e 94 49 04 	call	0x892	; 0x892 <pr>
    1d74:	10 92 2a 04 	sts	0x042A, r1	; 0x80042a <d+0x1>
    1d78:	10 92 29 04 	sts	0x0429, r1	; 0x800429 <d>
			 if (tt==1) {dht_read();}	 
    1d7c:	80 91 12 04 	lds	r24, 0x0412	; 0x800412 <tt>
    1d80:	90 91 13 04 	lds	r25, 0x0413	; 0x800413 <tt+0x1>
    1d84:	01 97       	sbiw	r24, 0x01	; 1
    1d86:	11 f4       	brne	.+4      	; 0x1d8c <StatusBarTemp+0x35e>
    1d88:	0e 94 60 03 	call	0x6c0	; 0x6c0 <dht_read>
			 
			 if( (PINB & 0b00100000) && flag2==0) { flag2=1;}
    1d8c:	1d 9b       	sbis	0x03, 5	; 3
    1d8e:	0a c0       	rjmp	.+20     	; 0x1da4 <StatusBarTemp+0x376>
    1d90:	80 91 ce 03 	lds	r24, 0x03CE	; 0x8003ce <flag2>
    1d94:	81 11       	cpse	r24, r1
    1d96:	06 c0       	rjmp	.+12     	; 0x1da4 <StatusBarTemp+0x376>
    1d98:	81 e0       	ldi	r24, 0x01	; 1
    1d9a:	80 93 ce 03 	sts	0x03CE, r24	; 0x8003ce <flag2>
			 
			 if( (!(PINB & 0b00100000)) && flag2==1 )
    1d9e:	1d 99       	sbic	0x03, 5	; 3
    1da0:	5f c0       	rjmp	.+190    	; 0x1e60 <StatusBarTemp+0x432>
    1da2:	07 c0       	rjmp	.+14     	; 0x1db2 <StatusBarTemp+0x384>
    1da4:	1d 99       	sbic	0x03, 5	; 3
    1da6:	5c c0       	rjmp	.+184    	; 0x1e60 <StatusBarTemp+0x432>
    1da8:	80 91 ce 03 	lds	r24, 0x03CE	; 0x8003ce <flag2>
    1dac:	81 30       	cpi	r24, 0x01	; 1
    1dae:	09 f0       	breq	.+2      	; 0x1db2 <StatusBarTemp+0x384>
    1db0:	57 c0       	rjmp	.+174    	; 0x1e60 <StatusBarTemp+0x432>
			 {
				 J1;
    1db2:	41 e0       	ldi	r20, 0x01	; 1
    1db4:	60 e0       	ldi	r22, 0x00	; 0
    1db6:	70 e8       	ldi	r23, 0x80	; 128
    1db8:	80 e0       	ldi	r24, 0x00	; 0
    1dba:	90 e0       	ldi	r25, 0x00	; 0
    1dbc:	0e 94 77 14 	call	0x28ee	; 0x28ee <registr>
				 flag2=0;
    1dc0:	10 92 ce 03 	sts	0x03CE, r1	; 0x8003ce <flag2>
				 d=d+1;
    1dc4:	e0 91 29 04 	lds	r30, 0x0429	; 0x800429 <d>
    1dc8:	f0 91 2a 04 	lds	r31, 0x042A	; 0x80042a <d+0x1>
    1dcc:	cf 01       	movw	r24, r30
    1dce:	01 96       	adiw	r24, 0x01	; 1
    1dd0:	90 93 2a 04 	sts	0x042A, r25	; 0x80042a <d+0x1>
    1dd4:	80 93 29 04 	sts	0x0429, r24	; 0x800429 <d>
				 
				 
				 if(stat[d]==0)
    1dd8:	dc 01       	movw	r26, r24
    1dda:	aa 0f       	add	r26, r26
    1ddc:	bb 1f       	adc	r27, r27
    1dde:	af 5a       	subi	r26, 0xAF	; 175
    1de0:	bb 4f       	sbci	r27, 0xFB	; 251
    1de2:	2d 91       	ld	r18, X+
    1de4:	3c 91       	ld	r19, X
    1de6:	23 2b       	or	r18, r19
    1de8:	49 f5       	brne	.+82     	; 0x1e3c <StatusBarTemp+0x40e>
				 {
					 
					 for(int n=d;n<7;n++)
    1dea:	87 30       	cpi	r24, 0x07	; 7
    1dec:	91 05       	cpc	r25, r1
    1dee:	5c f0       	brlt	.+22     	; 0x1e06 <StatusBarTemp+0x3d8>
    1df0:	12 c0       	rjmp	.+36     	; 0x1e16 <StatusBarTemp+0x3e8>
					 {
						 if(stat[n]==1) {d=n; break;}
    1df2:	21 91       	ld	r18, Z+
    1df4:	31 91       	ld	r19, Z+
    1df6:	21 30       	cpi	r18, 0x01	; 1
    1df8:	31 05       	cpc	r19, r1
    1dfa:	49 f4       	brne	.+18     	; 0x1e0e <StatusBarTemp+0x3e0>
    1dfc:	90 93 2a 04 	sts	0x042A, r25	; 0x80042a <d+0x1>
    1e00:	80 93 29 04 	sts	0x0429, r24	; 0x800429 <d>
    1e04:	08 c0       	rjmp	.+16     	; 0x1e16 <StatusBarTemp+0x3e8>
    1e06:	ee 0f       	add	r30, r30
    1e08:	ff 1f       	adc	r31, r31
    1e0a:	eb 5a       	subi	r30, 0xAB	; 171
    1e0c:	fb 4f       	sbci	r31, 0xFB	; 251
				 
				 
				 if(stat[d]==0)
				 {
					 
					 for(int n=d;n<7;n++)
    1e0e:	01 96       	adiw	r24, 0x01	; 1
    1e10:	87 30       	cpi	r24, 0x07	; 7
    1e12:	91 05       	cpc	r25, r1
    1e14:	71 f7       	brne	.-36     	; 0x1df2 <StatusBarTemp+0x3c4>
					 {
						 if(stat[n]==1) {d=n; break;}
					 }
					 
					 if(d>7) d=0;
    1e16:	80 91 29 04 	lds	r24, 0x0429	; 0x800429 <d>
    1e1a:	90 91 2a 04 	lds	r25, 0x042A	; 0x80042a <d+0x1>
    1e1e:	08 97       	sbiw	r24, 0x08	; 8
    1e20:	24 f0       	brlt	.+8      	; 0x1e2a <StatusBarTemp+0x3fc>
    1e22:	10 92 2a 04 	sts	0x042A, r1	; 0x80042a <d+0x1>
    1e26:	10 92 29 04 	sts	0x0429, r1	; 0x800429 <d>
    1e2a:	2f ef       	ldi	r18, 0xFF	; 255
    1e2c:	89 ef       	ldi	r24, 0xF9	; 249
    1e2e:	90 e0       	ldi	r25, 0x00	; 0
    1e30:	21 50       	subi	r18, 0x01	; 1
    1e32:	80 40       	sbci	r24, 0x00	; 0
    1e34:	90 40       	sbci	r25, 0x00	; 0
    1e36:	e1 f7       	brne	.-8      	; 0x1e30 <StatusBarTemp+0x402>
    1e38:	00 c0       	rjmp	.+0      	; 0x1e3a <StatusBarTemp+0x40c>
    1e3a:	00 00       	nop
					 _delay_ms(20);
					 
				 }
				 J0;
    1e3c:	40 e0       	ldi	r20, 0x00	; 0
    1e3e:	60 e0       	ldi	r22, 0x00	; 0
    1e40:	70 e8       	ldi	r23, 0x80	; 128
    1e42:	80 e0       	ldi	r24, 0x00	; 0
    1e44:	90 e0       	ldi	r25, 0x00	; 0
    1e46:	0e 94 77 14 	call	0x28ee	; 0x28ee <registr>
			 }
		 }
				
}
    1e4a:	0a c0       	rjmp	.+20     	; 0x1e60 <StatusBarTemp+0x432>
	 {
	
		lcd_gotoxy(0,1);
		tt=0;
		if(d==7){pr();}
		for(int m=d;m<7;m++)
    1e4c:	c7 30       	cpi	r28, 0x07	; 7
    1e4e:	d1 05       	cpc	r29, r1
    1e50:	0c f4       	brge	.+2      	; 0x1e54 <StatusBarTemp+0x426>
    1e52:	0e ce       	rjmp	.-996    	; 0x1a70 <StatusBarTemp+0x42>
    1e54:	87 ce       	rjmp	.-754    	; 0x1b64 <StatusBarTemp+0x136>
	 {
			 
			 lcd_gotoxy(0,1);
			 tt=0;
			 if(d==7){pr();}
			 for(int m=d;m<7;m++)
    1e56:	c7 30       	cpi	r28, 0x07	; 7
    1e58:	d1 05       	cpc	r29, r1
    1e5a:	0c f4       	brge	.+2      	; 0x1e5e <StatusBarTemp+0x430>
    1e5c:	0f cf       	rjmp	.-482    	; 0x1c7c <StatusBarTemp+0x24e>
    1e5e:	88 cf       	rjmp	.-240    	; 0x1d70 <StatusBarTemp+0x342>
				 }
				 J0;
			 }
		 }
				
}
    1e60:	df 91       	pop	r29
    1e62:	cf 91       	pop	r28
    1e64:	08 95       	ret

00001e66 <protocol>:
//	 PORTD &=~(1 <<PD1);  // Вспомогательная строб-индикация состояния 
	 
	 }
/////////////////////////////////////////////////////////////////////////////////////////////////////////////////////////////	 
	 void protocol(void)
	 {
    1e66:	cf 93       	push	r28
    1e68:	df 93       	push	r29
		 if (tct==13)
    1e6a:	80 91 90 03 	lds	r24, 0x0390	; 0x800390 <tct>
    1e6e:	90 91 91 03 	lds	r25, 0x0391	; 0x800391 <tct+0x1>
    1e72:	8d 30       	cpi	r24, 0x0D	; 13
    1e74:	91 05       	cpc	r25, r1
    1e76:	09 f0       	breq	.+2      	; 0x1e7a <protocol+0x14>
    1e78:	1a c3       	rjmp	.+1588   	; 0x24ae <protocol+0x648>
		 {
			 directive|=(detect[10]<<3)|(detect[11]<<2)|(detect[12]<<1)|(detect[13]) ; //Определение типа запроса 
    1e7a:	c7 e6       	ldi	r28, 0x67	; 103
    1e7c:	d4 e0       	ldi	r29, 0x04	; 4
    1e7e:	2a 8d       	ldd	r18, Y+26	; 0x1a
    1e80:	3b 8d       	ldd	r19, Y+27	; 0x1b
    1e82:	80 91 2b 04 	lds	r24, 0x042B	; 0x80042b <directive>
    1e86:	90 91 2c 04 	lds	r25, 0x042C	; 0x80042c <directive+0x1>
    1e8a:	82 2b       	or	r24, r18
    1e8c:	93 2b       	or	r25, r19
    1e8e:	2c 89       	ldd	r18, Y+20	; 0x14
    1e90:	3d 89       	ldd	r19, Y+21	; 0x15
    1e92:	22 0f       	add	r18, r18
    1e94:	33 1f       	adc	r19, r19
    1e96:	22 0f       	add	r18, r18
    1e98:	33 1f       	adc	r19, r19
    1e9a:	22 0f       	add	r18, r18
    1e9c:	33 1f       	adc	r19, r19
    1e9e:	82 2b       	or	r24, r18
    1ea0:	93 2b       	or	r25, r19
    1ea2:	2e 89       	ldd	r18, Y+22	; 0x16
    1ea4:	3f 89       	ldd	r19, Y+23	; 0x17
    1ea6:	22 0f       	add	r18, r18
    1ea8:	33 1f       	adc	r19, r19
    1eaa:	22 0f       	add	r18, r18
    1eac:	33 1f       	adc	r19, r19
    1eae:	82 2b       	or	r24, r18
    1eb0:	93 2b       	or	r25, r19
    1eb2:	28 8d       	ldd	r18, Y+24	; 0x18
    1eb4:	39 8d       	ldd	r19, Y+25	; 0x19
    1eb6:	22 0f       	add	r18, r18
    1eb8:	33 1f       	adc	r19, r19
    1eba:	82 2b       	or	r24, r18
    1ebc:	93 2b       	or	r25, r19
    1ebe:	90 93 2c 04 	sts	0x042C, r25	; 0x80042c <directive+0x1>
    1ec2:	80 93 2b 04 	sts	0x042B, r24	; 0x80042b <directive>
    1ec6:	08 c0       	rjmp	.+16     	; 0x1ed8 <protocol+0x72>
		 }
		 
		if(tct==9) {  PORTB|= (1 <<PB1); PORTC|= (1 <<PC5);}   //OWR в активном состоянии при запросе от ППКП  
    1ec8:	29 9a       	sbi	0x05, 1	; 5
    1eca:	45 9a       	sbi	0x08, 5	; 8
		if(tct==13){  PORTB|= (1 <<PB1); PORTC|= (1 <<PC5);}   //OWR в активном состоянии при запросе от программатора/ППКП
    1ecc:	80 91 90 03 	lds	r24, 0x0390	; 0x800390 <tct>
    1ed0:	90 91 91 03 	lds	r25, 0x0391	; 0x800391 <tct+0x1>
    1ed4:	0d 97       	sbiw	r24, 0x0d	; 13
    1ed6:	11 f4       	brne	.+4      	; 0x1edc <protocol+0x76>
    1ed8:	29 9a       	sbi	0x05, 1	; 5
    1eda:	45 9a       	sbi	0x08, 5	; 8
		if((tct==14)&&((stat[0]==1)||(external==2)))   {  PORTB|= (1 <<PB1); PORTC|= (1 <<PC5);}   //СОСТОЯНИЕ ТРЕВОГИ 
    1edc:	80 91 90 03 	lds	r24, 0x0390	; 0x800390 <tct>
    1ee0:	90 91 91 03 	lds	r25, 0x0391	; 0x800391 <tct+0x1>
    1ee4:	0e 97       	sbiw	r24, 0x0e	; 14
    1ee6:	61 f4       	brne	.+24     	; 0x1f00 <protocol+0x9a>
    1ee8:	80 91 51 04 	lds	r24, 0x0451	; 0x800451 <stat>
    1eec:	90 91 52 04 	lds	r25, 0x0452	; 0x800452 <stat+0x1>
    1ef0:	01 97       	sbiw	r24, 0x01	; 1
    1ef2:	21 f0       	breq	.+8      	; 0x1efc <protocol+0x96>
    1ef4:	80 91 28 04 	lds	r24, 0x0428	; 0x800428 <external>
    1ef8:	82 30       	cpi	r24, 0x02	; 2
    1efa:	b1 f4       	brne	.+44     	; 0x1f28 <protocol+0xc2>
    1efc:	29 9a       	sbi	0x05, 1	; 5
    1efe:	45 9a       	sbi	0x08, 5	; 8
		 
		 
		if(tct>=13)
    1f00:	80 91 90 03 	lds	r24, 0x0390	; 0x800390 <tct>
    1f04:	90 91 91 03 	lds	r25, 0x0391	; 0x800391 <tct+0x1>
    1f08:	8d 30       	cpi	r24, 0x0D	; 13
    1f0a:	91 05       	cpc	r25, r1
    1f0c:	0c f4       	brge	.+2      	; 0x1f10 <protocol+0xaa>
    1f0e:	db c2       	rjmp	.+1462   	; 0x24c6 <protocol+0x660>
		{ 
			
			if(tct==22){  PORTB |= (1 <<PB1); PORTC|= (1 <<PC5);}                  // Импульс синхронизации
    1f10:	46 97       	sbiw	r24, 0x16	; 22
    1f12:	11 f4       	brne	.+4      	; 0x1f18 <protocol+0xb2>
    1f14:	29 9a       	sbi	0x05, 1	; 5
    1f16:	45 9a       	sbi	0x08, 5	; 8
			if(tct==31){  PORTB |= (1 <<PB1); PORTC|= (1 <<PC5);}                  // Импульс синхронизации
    1f18:	80 91 90 03 	lds	r24, 0x0390	; 0x800390 <tct>
    1f1c:	90 91 91 03 	lds	r25, 0x0391	; 0x800391 <tct+0x1>
    1f20:	4f 97       	sbiw	r24, 0x1f	; 31
    1f22:	11 f4       	brne	.+4      	; 0x1f28 <protocol+0xc2>
    1f24:	29 9a       	sbi	0x05, 1	; 5
    1f26:	45 9a       	sbi	0x08, 5	; 8
			if(tct==40){  PORTB |= (1 <<PB1); PORTC|= (1 <<PC5);}                  // Импульс синхронизации
    1f28:	80 91 90 03 	lds	r24, 0x0390	; 0x800390 <tct>
    1f2c:	90 91 91 03 	lds	r25, 0x0391	; 0x800391 <tct+0x1>
    1f30:	88 97       	sbiw	r24, 0x28	; 40
    1f32:	11 f4       	brne	.+4      	; 0x1f38 <protocol+0xd2>
    1f34:	29 9a       	sbi	0x05, 1	; 5
    1f36:	45 9a       	sbi	0x08, 5	; 8
			if(tct==49){  PORTB |= (1 <<PB1); PORTC|= (1 <<PC5);}                  // Импульс синхронизации
    1f38:	80 91 90 03 	lds	r24, 0x0390	; 0x800390 <tct>
    1f3c:	90 91 91 03 	lds	r25, 0x0391	; 0x800391 <tct+0x1>
    1f40:	c1 97       	sbiw	r24, 0x31	; 49
    1f42:	11 f4       	brne	.+4      	; 0x1f48 <protocol+0xe2>
    1f44:	29 9a       	sbi	0x05, 1	; 5
    1f46:	45 9a       	sbi	0x08, 5	; 8
			if(tct==58){  PORTB |= (1 <<PB1); PORTC|= (1 <<PC5);}                  // Импульс синхронизации
    1f48:	80 91 90 03 	lds	r24, 0x0390	; 0x800390 <tct>
    1f4c:	90 91 91 03 	lds	r25, 0x0391	; 0x800391 <tct+0x1>
    1f50:	ca 97       	sbiw	r24, 0x3a	; 58
    1f52:	11 f4       	brne	.+4      	; 0x1f58 <protocol+0xf2>
    1f54:	29 9a       	sbi	0x05, 1	; 5
    1f56:	45 9a       	sbi	0x08, 5	; 8
			if(tct==67){  PORTB |= (1 <<PB1); PORTC|= (1 <<PC5);}                  // Импульс синхронизации
    1f58:	80 91 90 03 	lds	r24, 0x0390	; 0x800390 <tct>
    1f5c:	90 91 91 03 	lds	r25, 0x0391	; 0x800391 <tct+0x1>
    1f60:	83 34       	cpi	r24, 0x43	; 67
    1f62:	91 05       	cpc	r25, r1
    1f64:	11 f4       	brne	.+4      	; 0x1f6a <protocol+0x104>
    1f66:	29 9a       	sbi	0x05, 1	; 5
    1f68:	45 9a       	sbi	0x08, 5	; 8
			if(tct==76){  PORTB |= (1 <<PB1); PORTC|= (1 <<PC5);}                  // Импульс синхронизации
    1f6a:	80 91 90 03 	lds	r24, 0x0390	; 0x800390 <tct>
    1f6e:	90 91 91 03 	lds	r25, 0x0391	; 0x800391 <tct+0x1>
    1f72:	8c 34       	cpi	r24, 0x4C	; 76
    1f74:	91 05       	cpc	r25, r1
    1f76:	11 f4       	brne	.+4      	; 0x1f7c <protocol+0x116>
    1f78:	29 9a       	sbi	0x05, 1	; 5
    1f7a:	45 9a       	sbi	0x08, 5	; 8
				
				
		  switch(directive)
    1f7c:	80 91 2b 04 	lds	r24, 0x042B	; 0x80042b <directive>
    1f80:	90 91 2c 04 	lds	r25, 0x042C	; 0x80042c <directive+0x1>
    1f84:	82 30       	cpi	r24, 0x02	; 2
    1f86:	91 05       	cpc	r25, r1
    1f88:	09 f4       	brne	.+2      	; 0x1f8c <protocol+0x126>
    1f8a:	6a c0       	rjmp	.+212    	; 0x2060 <protocol+0x1fa>
    1f8c:	1c f4       	brge	.+6      	; 0x1f94 <protocol+0x12e>
    1f8e:	89 2b       	or	r24, r25
    1f90:	49 f0       	breq	.+18     	; 0x1fa4 <protocol+0x13e>
    1f92:	99 c2       	rjmp	.+1330   	; 0x24c6 <protocol+0x660>
    1f94:	83 30       	cpi	r24, 0x03	; 3
    1f96:	91 05       	cpc	r25, r1
    1f98:	09 f4       	brne	.+2      	; 0x1f9c <protocol+0x136>
    1f9a:	7f c0       	rjmp	.+254    	; 0x209a <protocol+0x234>
    1f9c:	0e 97       	sbiw	r24, 0x0e	; 14
    1f9e:	09 f4       	brne	.+2      	; 0x1fa2 <protocol+0x13c>
    1fa0:	1f c2       	rjmp	.+1086   	; 0x23e0 <protocol+0x57a>
    1fa2:	91 c2       	rjmp	.+1314   	; 0x24c6 <protocol+0x660>
		   {
			   
		   case 0 :
		   if(tct==9) {  PORTB|= (1 <<PB1); PORTC|= (1 <<PC5);}                 //OWR в активном состоянии при запросе от ППКП
    1fa4:	80 91 90 03 	lds	r24, 0x0390	; 0x800390 <tct>
    1fa8:	90 91 91 03 	lds	r25, 0x0391	; 0x800391 <tct+0x1>
    1fac:	09 97       	sbiw	r24, 0x09	; 9
    1fae:	11 f4       	brne	.+4      	; 0x1fb4 <protocol+0x14e>
    1fb0:	29 9a       	sbi	0x05, 1	; 5
    1fb2:	45 9a       	sbi	0x08, 5	; 8
		   if(tct==13){  PORTB|= (1 <<PB1); PORTC|= (1 <<PC5);}                  //OWR в активном состоянии при запросе от программатора/ППКП   
    1fb4:	80 91 90 03 	lds	r24, 0x0390	; 0x800390 <tct>
    1fb8:	90 91 91 03 	lds	r25, 0x0391	; 0x800391 <tct+0x1>
    1fbc:	0d 97       	sbiw	r24, 0x0d	; 13
    1fbe:	11 f4       	brne	.+4      	; 0x1fc4 <protocol+0x15e>
    1fc0:	29 9a       	sbi	0x05, 1	; 5
    1fc2:	45 9a       	sbi	0x08, 5	; 8
		   if((tct==14)&&((stat[0]==1)||(external==2)))   {  PORTB|= (1 <<PB1); PORTC|= (1 <<PC5);}   //СОСТОЯНИЕ ТРЕВОГИ
    1fc4:	80 91 90 03 	lds	r24, 0x0390	; 0x800390 <tct>
    1fc8:	90 91 91 03 	lds	r25, 0x0391	; 0x800391 <tct+0x1>
    1fcc:	0e 97       	sbiw	r24, 0x0e	; 14
    1fce:	61 f4       	brne	.+24     	; 0x1fe8 <protocol+0x182>
    1fd0:	80 91 51 04 	lds	r24, 0x0451	; 0x800451 <stat>
    1fd4:	90 91 52 04 	lds	r25, 0x0452	; 0x800452 <stat+0x1>
    1fd8:	01 97       	sbiw	r24, 0x01	; 1
    1fda:	21 f0       	breq	.+8      	; 0x1fe4 <protocol+0x17e>
    1fdc:	80 91 28 04 	lds	r24, 0x0428	; 0x800428 <external>
    1fe0:	82 30       	cpi	r24, 0x02	; 2
    1fe2:	91 f4       	brne	.+36     	; 0x2008 <protocol+0x1a2>
    1fe4:	29 9a       	sbi	0x05, 1	; 5
    1fe6:	45 9a       	sbi	0x08, 5	; 8
			   
			   if(tct==22){  PORTB |= (1 <<PB1); PORTC|= (1 <<PC5);}                  // Импульс синхронизации
    1fe8:	80 91 90 03 	lds	r24, 0x0390	; 0x800390 <tct>
    1fec:	90 91 91 03 	lds	r25, 0x0391	; 0x800391 <tct+0x1>
    1ff0:	46 97       	sbiw	r24, 0x16	; 22
    1ff2:	11 f4       	brne	.+4      	; 0x1ff8 <protocol+0x192>
    1ff4:	29 9a       	sbi	0x05, 1	; 5
    1ff6:	45 9a       	sbi	0x08, 5	; 8
			   if(tct==31){  PORTB |= (1 <<PB1); PORTC|= (1 <<PC5);}                  // Импульс синхронизации
    1ff8:	80 91 90 03 	lds	r24, 0x0390	; 0x800390 <tct>
    1ffc:	90 91 91 03 	lds	r25, 0x0391	; 0x800391 <tct+0x1>
    2000:	4f 97       	sbiw	r24, 0x1f	; 31
    2002:	11 f4       	brne	.+4      	; 0x2008 <protocol+0x1a2>
    2004:	29 9a       	sbi	0x05, 1	; 5
    2006:	45 9a       	sbi	0x08, 5	; 8
			   if(tct==40){  PORTB |= (1 <<PB1); PORTC|= (1 <<PC5);}                  // Импульс синхронизации
    2008:	80 91 90 03 	lds	r24, 0x0390	; 0x800390 <tct>
    200c:	90 91 91 03 	lds	r25, 0x0391	; 0x800391 <tct+0x1>
    2010:	88 97       	sbiw	r24, 0x28	; 40
    2012:	11 f4       	brne	.+4      	; 0x2018 <protocol+0x1b2>
    2014:	29 9a       	sbi	0x05, 1	; 5
    2016:	45 9a       	sbi	0x08, 5	; 8
			   if(tct==49){  PORTB |= (1 <<PB1); PORTC|= (1 <<PC5);}                  // Импульс синхронизации
    2018:	80 91 90 03 	lds	r24, 0x0390	; 0x800390 <tct>
    201c:	90 91 91 03 	lds	r25, 0x0391	; 0x800391 <tct+0x1>
    2020:	c1 97       	sbiw	r24, 0x31	; 49
    2022:	11 f4       	brne	.+4      	; 0x2028 <protocol+0x1c2>
    2024:	29 9a       	sbi	0x05, 1	; 5
    2026:	45 9a       	sbi	0x08, 5	; 8
			   if(tct==58){  PORTB |= (1 <<PB1); PORTC|= (1 <<PC5);}                  // Импульс синхронизации
    2028:	80 91 90 03 	lds	r24, 0x0390	; 0x800390 <tct>
    202c:	90 91 91 03 	lds	r25, 0x0391	; 0x800391 <tct+0x1>
    2030:	ca 97       	sbiw	r24, 0x3a	; 58
    2032:	11 f4       	brne	.+4      	; 0x2038 <protocol+0x1d2>
    2034:	29 9a       	sbi	0x05, 1	; 5
    2036:	45 9a       	sbi	0x08, 5	; 8
			   if(tct==67){  PORTB |= (1 <<PB1); PORTC|= (1 <<PC5);}                  // Импульс синхронизации
    2038:	80 91 90 03 	lds	r24, 0x0390	; 0x800390 <tct>
    203c:	90 91 91 03 	lds	r25, 0x0391	; 0x800391 <tct+0x1>
    2040:	83 34       	cpi	r24, 0x43	; 67
    2042:	91 05       	cpc	r25, r1
    2044:	11 f4       	brne	.+4      	; 0x204a <protocol+0x1e4>
    2046:	29 9a       	sbi	0x05, 1	; 5
    2048:	45 9a       	sbi	0x08, 5	; 8
			   if(tct==76){  PORTB |= (1 <<PB1); PORTC|= (1 <<PC5);}                  // Импульс синхронизации
    204a:	80 91 90 03 	lds	r24, 0x0390	; 0x800390 <tct>
    204e:	90 91 91 03 	lds	r25, 0x0391	; 0x800391 <tct+0x1>
    2052:	8c 34       	cpi	r24, 0x4C	; 76
    2054:	91 05       	cpc	r25, r1
    2056:	09 f0       	breq	.+2      	; 0x205a <protocol+0x1f4>
    2058:	36 c2       	rjmp	.+1132   	; 0x24c6 <protocol+0x660>
    205a:	29 9a       	sbi	0x05, 1	; 5
    205c:	45 9a       	sbi	0x08, 5	; 8
    205e:	33 c2       	rjmp	.+1126   	; 0x24c6 <protocol+0x660>
			   
		   break;
		   
		   case 2 :
		  
		   if(tct==13){  PORTB|= (1 <<PB1); PORTC|= (1 <<PC5);}                  //OWR в активном состоянии при запросе от программатора/ППКП
    2060:	80 91 90 03 	lds	r24, 0x0390	; 0x800390 <tct>
    2064:	90 91 91 03 	lds	r25, 0x0391	; 0x800391 <tct+0x1>
    2068:	0d 97       	sbiw	r24, 0x0d	; 13
    206a:	11 f4       	brne	.+4      	; 0x2070 <protocol+0x20a>
    206c:	29 9a       	sbi	0x05, 1	; 5
    206e:	45 9a       	sbi	0x08, 5	; 8
		   if((tct==14)&&((stat[0]==1)||(external==2)))   {  PORTB|= (1 <<PB1); PORTC|= (1 <<PC5);}   //СОСТОЯНИЕ ТРЕВОГИ
    2070:	80 91 90 03 	lds	r24, 0x0390	; 0x800390 <tct>
    2074:	90 91 91 03 	lds	r25, 0x0391	; 0x800391 <tct+0x1>
    2078:	0e 97       	sbiw	r24, 0x0e	; 14
    207a:	09 f0       	breq	.+2      	; 0x207e <protocol+0x218>
    207c:	24 c2       	rjmp	.+1096   	; 0x24c6 <protocol+0x660>
    207e:	80 91 51 04 	lds	r24, 0x0451	; 0x800451 <stat>
    2082:	90 91 52 04 	lds	r25, 0x0452	; 0x800452 <stat+0x1>
    2086:	01 97       	sbiw	r24, 0x01	; 1
    2088:	29 f0       	breq	.+10     	; 0x2094 <protocol+0x22e>
    208a:	80 91 28 04 	lds	r24, 0x0428	; 0x800428 <external>
    208e:	82 30       	cpi	r24, 0x02	; 2
    2090:	09 f0       	breq	.+2      	; 0x2094 <protocol+0x22e>
    2092:	19 c2       	rjmp	.+1074   	; 0x24c6 <protocol+0x660>
    2094:	29 9a       	sbi	0x05, 1	; 5
    2096:	45 9a       	sbi	0x08, 5	; 8
    2098:	16 c2       	rjmp	.+1068   	; 0x24c6 <protocol+0x660>
		   break;
		   
		   case 3 :
		 
		   if(tct==13){  PORTB|= (1 <<PB1); PORTC|= (1 <<PC5);}                  //OWR в активном состоянии при запросе от программатора/ППКП
    209a:	80 91 90 03 	lds	r24, 0x0390	; 0x800390 <tct>
    209e:	90 91 91 03 	lds	r25, 0x0391	; 0x800391 <tct+0x1>
    20a2:	0d 97       	sbiw	r24, 0x0d	; 13
    20a4:	11 f4       	brne	.+4      	; 0x20aa <protocol+0x244>
    20a6:	29 9a       	sbi	0x05, 1	; 5
    20a8:	45 9a       	sbi	0x08, 5	; 8
		   if((tct==14)&&((stat[0]==1)||(external==2)))   {  PORTB|= (1 <<PB1); PORTC|= (1 <<PC5);}   //СОСТОЯНИЕ ТРЕВОГИ
    20aa:	80 91 90 03 	lds	r24, 0x0390	; 0x800390 <tct>
    20ae:	90 91 91 03 	lds	r25, 0x0391	; 0x800391 <tct+0x1>
    20b2:	0e 97       	sbiw	r24, 0x0e	; 14
    20b4:	61 f4       	brne	.+24     	; 0x20ce <protocol+0x268>
    20b6:	80 91 51 04 	lds	r24, 0x0451	; 0x800451 <stat>
    20ba:	90 91 52 04 	lds	r25, 0x0452	; 0x800452 <stat+0x1>
    20be:	01 97       	sbiw	r24, 0x01	; 1
    20c0:	21 f0       	breq	.+8      	; 0x20ca <protocol+0x264>
    20c2:	80 91 28 04 	lds	r24, 0x0428	; 0x800428 <external>
    20c6:	82 30       	cpi	r24, 0x02	; 2
    20c8:	91 f4       	brne	.+36     	; 0x20ee <protocol+0x288>
    20ca:	29 9a       	sbi	0x05, 1	; 5
    20cc:	45 9a       	sbi	0x08, 5	; 8
		
		   if(tct==22){  PORTB |= (1 <<PB1); PORTC|= (1 <<PC5);}                  // Импульс синхронизации 
    20ce:	80 91 90 03 	lds	r24, 0x0390	; 0x800390 <tct>
    20d2:	90 91 91 03 	lds	r25, 0x0391	; 0x800391 <tct+0x1>
    20d6:	46 97       	sbiw	r24, 0x16	; 22
    20d8:	11 f4       	brne	.+4      	; 0x20de <protocol+0x278>
    20da:	29 9a       	sbi	0x05, 1	; 5
    20dc:	45 9a       	sbi	0x08, 5	; 8
		   if(tct==31){  PORTB |= (1 <<PB1); PORTC|= (1 <<PC5);}                  // Импульс синхронизации
    20de:	80 91 90 03 	lds	r24, 0x0390	; 0x800390 <tct>
    20e2:	90 91 91 03 	lds	r25, 0x0391	; 0x800391 <tct+0x1>
    20e6:	4f 97       	sbiw	r24, 0x1f	; 31
    20e8:	11 f4       	brne	.+4      	; 0x20ee <protocol+0x288>
    20ea:	29 9a       	sbi	0x05, 1	; 5
    20ec:	45 9a       	sbi	0x08, 5	; 8
		   if(tct==40){  PORTB |= (1 <<PB1); PORTC|= (1 <<PC5);}                  // Импульс синхронизации
    20ee:	80 91 90 03 	lds	r24, 0x0390	; 0x800390 <tct>
    20f2:	90 91 91 03 	lds	r25, 0x0391	; 0x800391 <tct+0x1>
    20f6:	88 97       	sbiw	r24, 0x28	; 40
    20f8:	11 f4       	brne	.+4      	; 0x20fe <protocol+0x298>
    20fa:	29 9a       	sbi	0x05, 1	; 5
    20fc:	45 9a       	sbi	0x08, 5	; 8
		   if(tct==49){  PORTB |= (1 <<PB1); PORTC|= (1 <<PC5);}                  // Импульс синхронизации
    20fe:	80 91 90 03 	lds	r24, 0x0390	; 0x800390 <tct>
    2102:	90 91 91 03 	lds	r25, 0x0391	; 0x800391 <tct+0x1>
    2106:	c1 97       	sbiw	r24, 0x31	; 49
    2108:	11 f4       	brne	.+4      	; 0x210e <protocol+0x2a8>
    210a:	29 9a       	sbi	0x05, 1	; 5
    210c:	45 9a       	sbi	0x08, 5	; 8
		   if(tct==58){  PORTB |= (1 <<PB1); PORTC|= (1 <<PC5);}                  // Импульс синхронизации
    210e:	80 91 90 03 	lds	r24, 0x0390	; 0x800390 <tct>
    2112:	90 91 91 03 	lds	r25, 0x0391	; 0x800391 <tct+0x1>
    2116:	ca 97       	sbiw	r24, 0x3a	; 58
    2118:	11 f4       	brne	.+4      	; 0x211e <protocol+0x2b8>
    211a:	29 9a       	sbi	0x05, 1	; 5
    211c:	45 9a       	sbi	0x08, 5	; 8
		   if(tct==67){  PORTB |= (1 <<PB1); PORTC|= (1 <<PC5);}                  // Импульс синхронизации
    211e:	80 91 90 03 	lds	r24, 0x0390	; 0x800390 <tct>
    2122:	90 91 91 03 	lds	r25, 0x0391	; 0x800391 <tct+0x1>
    2126:	83 34       	cpi	r24, 0x43	; 67
    2128:	91 05       	cpc	r25, r1
    212a:	11 f4       	brne	.+4      	; 0x2130 <protocol+0x2ca>
    212c:	29 9a       	sbi	0x05, 1	; 5
    212e:	45 9a       	sbi	0x08, 5	; 8
		   if(tct==76){  PORTB |= (1 <<PB1); PORTC|= (1 <<PC5);}                  // Импульс синхронизации
    2130:	80 91 90 03 	lds	r24, 0x0390	; 0x800390 <tct>
    2134:	90 91 91 03 	lds	r25, 0x0391	; 0x800391 <tct+0x1>
    2138:	8c 34       	cpi	r24, 0x4C	; 76
    213a:	91 05       	cpc	r25, r1
    213c:	11 f4       	brne	.+4      	; 0x2142 <protocol+0x2dc>
    213e:	29 9a       	sbi	0x05, 1	; 5
    2140:	45 9a       	sbi	0x08, 5	; 8
		
	   	   if((tct>=14)&&(tct<22))   //индентификатор устройства
    2142:	80 91 90 03 	lds	r24, 0x0390	; 0x800390 <tct>
    2146:	90 91 91 03 	lds	r25, 0x0391	; 0x800391 <tct+0x1>
    214a:	9c 01       	movw	r18, r24
    214c:	2e 50       	subi	r18, 0x0E	; 14
    214e:	31 09       	sbc	r19, r1
    2150:	28 30       	cpi	r18, 0x08	; 8
    2152:	31 05       	cpc	r19, r1
    2154:	20 f5       	brcc	.+72     	; 0x219e <protocol+0x338>
			    {
				 temp_ID|=(device_ID>>(21-tct))&(0b1);
    2156:	25 e1       	ldi	r18, 0x15	; 21
    2158:	30 e0       	ldi	r19, 0x00	; 0
    215a:	28 1b       	sub	r18, r24
    215c:	39 0b       	sbc	r19, r25
    215e:	80 91 fb 03 	lds	r24, 0x03FB	; 0x8003fb <device_ID>
    2162:	90 91 fc 03 	lds	r25, 0x03FC	; 0x8003fc <device_ID+0x1>
    2166:	02 c0       	rjmp	.+4      	; 0x216c <protocol+0x306>
    2168:	95 95       	asr	r25
    216a:	87 95       	ror	r24
    216c:	2a 95       	dec	r18
    216e:	e2 f7       	brpl	.-8      	; 0x2168 <protocol+0x302>
    2170:	81 70       	andi	r24, 0x01	; 1
    2172:	99 27       	eor	r25, r25
    2174:	20 91 c8 03 	lds	r18, 0x03C8	; 0x8003c8 <temp_ID>
    2178:	30 91 c9 03 	lds	r19, 0x03C9	; 0x8003c9 <temp_ID+0x1>
    217c:	82 2b       	or	r24, r18
    217e:	93 2b       	or	r25, r19
    2180:	90 93 c9 03 	sts	0x03C9, r25	; 0x8003c9 <temp_ID+0x1>
    2184:	80 93 c8 03 	sts	0x03C8, r24	; 0x8003c8 <temp_ID>
				 if(temp_ID==1){  PORTB |= (1 <<PB1); PORTC|= (1 <<PC5);}
    2188:	01 97       	sbiw	r24, 0x01	; 1
    218a:	11 f4       	brne	.+4      	; 0x2190 <protocol+0x32a>
    218c:	29 9a       	sbi	0x05, 1	; 5
    218e:	45 9a       	sbi	0x08, 5	; 8
				 if(temp_ID==0){  PORTB &=~ (1 <<PB1);}
    2190:	80 91 c8 03 	lds	r24, 0x03C8	; 0x8003c8 <temp_ID>
    2194:	90 91 c9 03 	lds	r25, 0x03C9	; 0x8003c9 <temp_ID+0x1>
    2198:	89 2b       	or	r24, r25
    219a:	09 f4       	brne	.+2      	; 0x219e <protocol+0x338>
    219c:	29 98       	cbi	0x05, 1	; 5
			    }  
				
			if((tct==30)&&(tct<32))  //Активация выхода -тревога
    219e:	80 91 90 03 	lds	r24, 0x0390	; 0x800390 <tct>
    21a2:	90 91 91 03 	lds	r25, 0x0391	; 0x800391 <tct+0x1>
    21a6:	4e 97       	sbiw	r24, 0x1e	; 30
    21a8:	e1 f4       	brne	.+56     	; 0x21e2 <protocol+0x37c>
			{
				temp_ID|=((external)&(0b1));
    21aa:	80 91 28 04 	lds	r24, 0x0428	; 0x800428 <external>
    21ae:	e8 2f       	mov	r30, r24
    21b0:	e1 70       	andi	r30, 0x01	; 1
    21b2:	f0 e0       	ldi	r31, 0x00	; 0
    21b4:	80 91 c8 03 	lds	r24, 0x03C8	; 0x8003c8 <temp_ID>
    21b8:	90 91 c9 03 	lds	r25, 0x03C9	; 0x8003c9 <temp_ID+0x1>
    21bc:	e8 2b       	or	r30, r24
    21be:	f9 2b       	or	r31, r25
    21c0:	f0 93 c9 03 	sts	0x03C9, r31	; 0x8003c9 <temp_ID+0x1>
    21c4:	e0 93 c8 03 	sts	0x03C8, r30	; 0x8003c8 <temp_ID>
				if(temp_ID==1){  PORTB |= (1 <<PB1); PORTC|= (1 <<PC5);}
    21c8:	e1 30       	cpi	r30, 0x01	; 1
    21ca:	f1 05       	cpc	r31, r1
    21cc:	09 f0       	breq	.+2      	; 0x21d0 <protocol+0x36a>
    21ce:	73 c1       	rjmp	.+742    	; 0x24b6 <protocol+0x650>
    21d0:	29 9a       	sbi	0x05, 1	; 5
    21d2:	45 9a       	sbi	0x08, 5	; 8
				if(temp_ID==0){  PORTB &=~(1 <<PB1);}
    21d4:	80 91 c8 03 	lds	r24, 0x03C8	; 0x8003c8 <temp_ID>
    21d8:	90 91 c9 03 	lds	r25, 0x03C9	; 0x8003c9 <temp_ID+0x1>
    21dc:	89 2b       	or	r24, r25
    21de:	09 f4       	brne	.+2      	; 0x21e2 <protocol+0x37c>
    21e0:	29 98       	cbi	0x05, 1	; 5
			}	
				
				
				
		   if((tct>=34)&&(tct<36))  //ручной режим (НЕ АВТО)
    21e2:	80 91 90 03 	lds	r24, 0x0390	; 0x800390 <tct>
    21e6:	90 91 91 03 	lds	r25, 0x0391	; 0x800391 <tct+0x1>
    21ea:	82 97       	sbiw	r24, 0x22	; 34
    21ec:	02 97       	sbiw	r24, 0x02	; 2
    21ee:	d0 f4       	brcc	.+52     	; 0x2224 <protocol+0x3be>
			    {
				 temp_ID|=((mode)&(0b1));
    21f0:	80 91 f2 03 	lds	r24, 0x03F2	; 0x8003f2 <mode>
    21f4:	a8 2f       	mov	r26, r24
    21f6:	a1 70       	andi	r26, 0x01	; 1
    21f8:	b0 e0       	ldi	r27, 0x00	; 0
    21fa:	80 91 c8 03 	lds	r24, 0x03C8	; 0x8003c8 <temp_ID>
    21fe:	90 91 c9 03 	lds	r25, 0x03C9	; 0x8003c9 <temp_ID+0x1>
    2202:	a8 2b       	or	r26, r24
    2204:	b9 2b       	or	r27, r25
    2206:	b0 93 c9 03 	sts	0x03C9, r27	; 0x8003c9 <temp_ID+0x1>
    220a:	a0 93 c8 03 	sts	0x03C8, r26	; 0x8003c8 <temp_ID>
				 if(temp_ID==1){  PORTB |= (1 <<PB1); PORTC|= (1 <<PC5);}
    220e:	11 97       	sbiw	r26, 0x01	; 1
    2210:	11 f4       	brne	.+4      	; 0x2216 <protocol+0x3b0>
    2212:	29 9a       	sbi	0x05, 1	; 5
    2214:	45 9a       	sbi	0x08, 5	; 8
				 if(temp_ID==0){  PORTB &=~ (1 <<PB1);}
    2216:	80 91 c8 03 	lds	r24, 0x03C8	; 0x8003c8 <temp_ID>
    221a:	90 91 c9 03 	lds	r25, 0x03C9	; 0x8003c9 <temp_ID+0x1>
    221e:	89 2b       	or	r24, r25
    2220:	09 f4       	brne	.+2      	; 0x2224 <protocol+0x3be>
    2222:	29 98       	cbi	0x05, 1	; 5
			    }
       ///////////////////////////////////////////////////////////////////////////// 
			if((tct>=36)&&(tct<40))  //Активация выхода -тревога
    2224:	80 91 90 03 	lds	r24, 0x0390	; 0x800390 <tct>
    2228:	90 91 91 03 	lds	r25, 0x0391	; 0x800391 <tct+0x1>
    222c:	84 97       	sbiw	r24, 0x24	; 36
    222e:	04 97       	sbiw	r24, 0x04	; 4
    2230:	d8 f4       	brcc	.+54     	; 0x2268 <protocol+0x402>
			{
				temp_ID|=((external)&(0b1));
    2232:	80 91 28 04 	lds	r24, 0x0428	; 0x800428 <external>
    2236:	48 2f       	mov	r20, r24
    2238:	41 70       	andi	r20, 0x01	; 1
    223a:	50 e0       	ldi	r21, 0x00	; 0
    223c:	80 91 c8 03 	lds	r24, 0x03C8	; 0x8003c8 <temp_ID>
    2240:	90 91 c9 03 	lds	r25, 0x03C9	; 0x8003c9 <temp_ID+0x1>
    2244:	48 2b       	or	r20, r24
    2246:	59 2b       	or	r21, r25
    2248:	50 93 c9 03 	sts	0x03C9, r21	; 0x8003c9 <temp_ID+0x1>
    224c:	40 93 c8 03 	sts	0x03C8, r20	; 0x8003c8 <temp_ID>
				if(temp_ID==1){  PORTB |= (1 <<PB1); PORTC|= (1 <<PC5);}
    2250:	41 30       	cpi	r20, 0x01	; 1
    2252:	51 05       	cpc	r21, r1
    2254:	11 f4       	brne	.+4      	; 0x225a <protocol+0x3f4>
    2256:	29 9a       	sbi	0x05, 1	; 5
    2258:	45 9a       	sbi	0x08, 5	; 8
				if(temp_ID==0){  PORTB &=~(1 <<PB1);}
    225a:	80 91 c8 03 	lds	r24, 0x03C8	; 0x8003c8 <temp_ID>
    225e:	90 91 c9 03 	lds	r25, 0x03C9	; 0x8003c9 <temp_ID+0x1>
    2262:	89 2b       	or	r24, r25
    2264:	09 f4       	brne	.+2      	; 0x2268 <protocol+0x402>
    2266:	29 98       	cbi	0x05, 1	; 5
				if(temp_ID==1){  PORTB |= (1 <<PB1); PORTC|= (1 <<PC5);}
				if(temp_ID==0){  PORTB &=~(1 <<PB1);}
			}
		*/	
				 
		   if((tct>=39)&&(tct<40))  //авария датчика DHT
    2268:	80 91 90 03 	lds	r24, 0x0390	; 0x800390 <tct>
    226c:	90 91 91 03 	lds	r25, 0x0391	; 0x800391 <tct+0x1>
    2270:	87 97       	sbiw	r24, 0x27	; 39
    2272:	e1 f4       	brne	.+56     	; 0x22ac <protocol+0x446>
			    {
				 temp_ID|=((receivemode)&(0b1));
    2274:	80 91 95 05 	lds	r24, 0x0595	; 0x800595 <receivemode>
    2278:	68 2f       	mov	r22, r24
    227a:	61 70       	andi	r22, 0x01	; 1
    227c:	70 e0       	ldi	r23, 0x00	; 0
    227e:	80 91 c8 03 	lds	r24, 0x03C8	; 0x8003c8 <temp_ID>
    2282:	90 91 c9 03 	lds	r25, 0x03C9	; 0x8003c9 <temp_ID+0x1>
    2286:	68 2b       	or	r22, r24
    2288:	79 2b       	or	r23, r25
    228a:	70 93 c9 03 	sts	0x03C9, r23	; 0x8003c9 <temp_ID+0x1>
    228e:	60 93 c8 03 	sts	0x03C8, r22	; 0x8003c8 <temp_ID>
				 if(temp_ID==1){  PORTB |= (1 <<PB1); PORTC|= (1 <<PC5);}
    2292:	61 30       	cpi	r22, 0x01	; 1
    2294:	71 05       	cpc	r23, r1
    2296:	09 f0       	breq	.+2      	; 0x229a <protocol+0x434>
    2298:	12 c1       	rjmp	.+548    	; 0x24be <protocol+0x658>
    229a:	29 9a       	sbi	0x05, 1	; 5
    229c:	45 9a       	sbi	0x08, 5	; 8
				 if(temp_ID==0){  PORTB &=~(1 <<PB1);}
    229e:	80 91 c8 03 	lds	r24, 0x03C8	; 0x8003c8 <temp_ID>
    22a2:	90 91 c9 03 	lds	r25, 0x03C9	; 0x8003c9 <temp_ID+0x1>
    22a6:	89 2b       	or	r24, r25
    22a8:	09 f4       	brne	.+2      	; 0x22ac <protocol+0x446>
    22aa:	29 98       	cbi	0x05, 1	; 5
			    }   
			 
		   if((tct>=51)&&(tct<57))  //состояние АЦП входа AL
    22ac:	20 91 90 03 	lds	r18, 0x0390	; 0x800390 <tct>
    22b0:	30 91 91 03 	lds	r19, 0x0391	; 0x800391 <tct+0x1>
    22b4:	c9 01       	movw	r24, r18
    22b6:	c3 97       	sbiw	r24, 0x33	; 51
    22b8:	06 97       	sbiw	r24, 0x06	; 6
    22ba:	60 f5       	brcc	.+88     	; 0x2314 <protocol+0x4ae>
			    {
				  temp_ID|=((fire/4)>>(57-tct))&(0b1);
    22bc:	80 91 83 03 	lds	r24, 0x0383	; 0x800383 <fire>
    22c0:	90 91 84 03 	lds	r25, 0x0384	; 0x800384 <fire+0x1>
    22c4:	99 23       	and	r25, r25
    22c6:	0c f4       	brge	.+2      	; 0x22ca <protocol+0x464>
    22c8:	03 96       	adiw	r24, 0x03	; 3
    22ca:	95 95       	asr	r25
    22cc:	87 95       	ror	r24
    22ce:	95 95       	asr	r25
    22d0:	87 95       	ror	r24
    22d2:	49 e3       	ldi	r20, 0x39	; 57
    22d4:	50 e0       	ldi	r21, 0x00	; 0
    22d6:	ba 01       	movw	r22, r20
    22d8:	62 1b       	sub	r22, r18
    22da:	73 0b       	sbc	r23, r19
    22dc:	02 c0       	rjmp	.+4      	; 0x22e2 <protocol+0x47c>
    22de:	95 95       	asr	r25
    22e0:	87 95       	ror	r24
    22e2:	6a 95       	dec	r22
    22e4:	e2 f7       	brpl	.-8      	; 0x22de <protocol+0x478>
    22e6:	81 70       	andi	r24, 0x01	; 1
    22e8:	99 27       	eor	r25, r25
    22ea:	20 91 c8 03 	lds	r18, 0x03C8	; 0x8003c8 <temp_ID>
    22ee:	30 91 c9 03 	lds	r19, 0x03C9	; 0x8003c9 <temp_ID+0x1>
    22f2:	82 2b       	or	r24, r18
    22f4:	93 2b       	or	r25, r19
    22f6:	90 93 c9 03 	sts	0x03C9, r25	; 0x8003c9 <temp_ID+0x1>
    22fa:	80 93 c8 03 	sts	0x03C8, r24	; 0x8003c8 <temp_ID>
				  if(temp_ID==1){  PORTB |= (1 <<PB1); PORTC|= (1 <<PC5);}
    22fe:	01 97       	sbiw	r24, 0x01	; 1
    2300:	11 f4       	brne	.+4      	; 0x2306 <protocol+0x4a0>
    2302:	29 9a       	sbi	0x05, 1	; 5
    2304:	45 9a       	sbi	0x08, 5	; 8
				  if(temp_ID==0){  PORTB &=~ (1 <<PB1);}          
    2306:	80 91 c8 03 	lds	r24, 0x03C8	; 0x8003c8 <temp_ID>
    230a:	90 91 c9 03 	lds	r25, 0x03C9	; 0x8003c9 <temp_ID+0x1>
    230e:	89 2b       	or	r24, r25
    2310:	09 f4       	brne	.+2      	; 0x2314 <protocol+0x4ae>
    2312:	29 98       	cbi	0x05, 1	; 5
			    }
				
		   if((tct>=60)&&(tct<67)) // температура
    2314:	80 91 90 03 	lds	r24, 0x0390	; 0x800390 <tct>
    2318:	90 91 91 03 	lds	r25, 0x0391	; 0x800391 <tct+0x1>
    231c:	9c 01       	movw	r18, r24
    231e:	2c 53       	subi	r18, 0x3C	; 60
    2320:	31 09       	sbc	r19, r1
    2322:	27 30       	cpi	r18, 0x07	; 7
    2324:	31 05       	cpc	r19, r1
    2326:	20 f5       	brcc	.+72     	; 0x2370 <protocol+0x50a>
				{
				  temp_ID|=(tmp>>(66-tct))&(0b1);
    2328:	22 e4       	ldi	r18, 0x42	; 66
    232a:	30 e0       	ldi	r19, 0x00	; 0
    232c:	28 1b       	sub	r18, r24
    232e:	39 0b       	sbc	r19, r25
    2330:	80 91 8e 03 	lds	r24, 0x038E	; 0x80038e <tmp>
    2334:	90 91 8f 03 	lds	r25, 0x038F	; 0x80038f <tmp+0x1>
    2338:	02 c0       	rjmp	.+4      	; 0x233e <protocol+0x4d8>
    233a:	95 95       	asr	r25
    233c:	87 95       	ror	r24
    233e:	2a 95       	dec	r18
    2340:	e2 f7       	brpl	.-8      	; 0x233a <protocol+0x4d4>
    2342:	81 70       	andi	r24, 0x01	; 1
    2344:	99 27       	eor	r25, r25
    2346:	20 91 c8 03 	lds	r18, 0x03C8	; 0x8003c8 <temp_ID>
    234a:	30 91 c9 03 	lds	r19, 0x03C9	; 0x8003c9 <temp_ID+0x1>
    234e:	82 2b       	or	r24, r18
    2350:	93 2b       	or	r25, r19
    2352:	90 93 c9 03 	sts	0x03C9, r25	; 0x8003c9 <temp_ID+0x1>
    2356:	80 93 c8 03 	sts	0x03C8, r24	; 0x8003c8 <temp_ID>
				  if(temp_ID==1){  PORTB |= (1 <<PB1); PORTC|= (1 <<PC5);}                  
    235a:	01 97       	sbiw	r24, 0x01	; 1
    235c:	11 f4       	brne	.+4      	; 0x2362 <protocol+0x4fc>
    235e:	29 9a       	sbi	0x05, 1	; 5
    2360:	45 9a       	sbi	0x08, 5	; 8
				  if(temp_ID==0){  PORTB &=~ (1 <<PB1);}                
    2362:	80 91 c8 03 	lds	r24, 0x03C8	; 0x8003c8 <temp_ID>
    2366:	90 91 c9 03 	lds	r25, 0x03C9	; 0x8003c9 <temp_ID+0x1>
    236a:	89 2b       	or	r24, r25
    236c:	09 f4       	brne	.+2      	; 0x2370 <protocol+0x50a>
    236e:	29 98       	cbi	0x05, 1	; 5
				}
		   if((tct>=69)&&(tct<76))  //состояние АЦП входа PS
    2370:	20 91 90 03 	lds	r18, 0x0390	; 0x800390 <tct>
    2374:	30 91 91 03 	lds	r19, 0x0391	; 0x800391 <tct+0x1>
    2378:	c9 01       	movw	r24, r18
    237a:	85 54       	subi	r24, 0x45	; 69
    237c:	91 09       	sbc	r25, r1
    237e:	07 97       	sbiw	r24, 0x07	; 7
    2380:	08 f0       	brcs	.+2      	; 0x2384 <protocol+0x51e>
    2382:	a1 c0       	rjmp	.+322    	; 0x24c6 <protocol+0x660>
			    {
				temp_ID|=((preasure/4)>>(75-tct))&(0b1);
    2384:	80 91 80 03 	lds	r24, 0x0380	; 0x800380 <preasure>
    2388:	90 91 81 03 	lds	r25, 0x0381	; 0x800381 <preasure+0x1>
    238c:	99 23       	and	r25, r25
    238e:	0c f4       	brge	.+2      	; 0x2392 <protocol+0x52c>
    2390:	03 96       	adiw	r24, 0x03	; 3
    2392:	95 95       	asr	r25
    2394:	87 95       	ror	r24
    2396:	95 95       	asr	r25
    2398:	87 95       	ror	r24
    239a:	4b e4       	ldi	r20, 0x4B	; 75
    239c:	50 e0       	ldi	r21, 0x00	; 0
    239e:	ba 01       	movw	r22, r20
    23a0:	62 1b       	sub	r22, r18
    23a2:	73 0b       	sbc	r23, r19
    23a4:	02 c0       	rjmp	.+4      	; 0x23aa <protocol+0x544>
    23a6:	95 95       	asr	r25
    23a8:	87 95       	ror	r24
    23aa:	6a 95       	dec	r22
    23ac:	e2 f7       	brpl	.-8      	; 0x23a6 <protocol+0x540>
    23ae:	81 70       	andi	r24, 0x01	; 1
    23b0:	99 27       	eor	r25, r25
    23b2:	20 91 c8 03 	lds	r18, 0x03C8	; 0x8003c8 <temp_ID>
    23b6:	30 91 c9 03 	lds	r19, 0x03C9	; 0x8003c9 <temp_ID+0x1>
    23ba:	82 2b       	or	r24, r18
    23bc:	93 2b       	or	r25, r19
    23be:	90 93 c9 03 	sts	0x03C9, r25	; 0x8003c9 <temp_ID+0x1>
    23c2:	80 93 c8 03 	sts	0x03C8, r24	; 0x8003c8 <temp_ID>
				if(temp_ID==1){  PORTB |= (1 <<PB1); PORTC|= (1 <<PC5);}                
    23c6:	01 97       	sbiw	r24, 0x01	; 1
    23c8:	11 f4       	brne	.+4      	; 0x23ce <protocol+0x568>
    23ca:	29 9a       	sbi	0x05, 1	; 5
    23cc:	45 9a       	sbi	0x08, 5	; 8
				if(temp_ID==0){  PORTB &=~ (1 <<PB1);}               
    23ce:	80 91 c8 03 	lds	r24, 0x03C8	; 0x8003c8 <temp_ID>
    23d2:	90 91 c9 03 	lds	r25, 0x03C9	; 0x8003c9 <temp_ID+0x1>
    23d6:	89 2b       	or	r24, r25
    23d8:	09 f0       	breq	.+2      	; 0x23dc <protocol+0x576>
    23da:	75 c0       	rjmp	.+234    	; 0x24c6 <protocol+0x660>
    23dc:	29 98       	cbi	0x05, 1	; 5
    23de:	73 c0       	rjmp	.+230    	; 0x24c6 <protocol+0x660>
			    } 
			   
		   break;
		   
		   case 14 :
		   if(tct==13){  PORTB |= (1 <<PB1); PORTC|= (1 <<PC5);}                 
    23e0:	80 91 90 03 	lds	r24, 0x0390	; 0x800390 <tct>
    23e4:	90 91 91 03 	lds	r25, 0x0391	; 0x800391 <tct+0x1>
    23e8:	0d 97       	sbiw	r24, 0x0d	; 13
    23ea:	11 f4       	brne	.+4      	; 0x23f0 <protocol+0x58a>
    23ec:	29 9a       	sbi	0x05, 1	; 5
    23ee:	45 9a       	sbi	0x08, 5	; 8
		   if(tct==30){  PORTB |= (1 <<PB1); PORTC|= (1 <<PC5);}
    23f0:	80 91 90 03 	lds	r24, 0x0390	; 0x800390 <tct>
    23f4:	90 91 91 03 	lds	r25, 0x0391	; 0x800391 <tct+0x1>
    23f8:	4e 97       	sbiw	r24, 0x1e	; 30
    23fa:	11 f4       	brne	.+4      	; 0x2400 <protocol+0x59a>
    23fc:	29 9a       	sbi	0x05, 1	; 5
    23fe:	45 9a       	sbi	0x08, 5	; 8
		   if(tct==45){  PORTB |= (1 <<PB1); PORTC|= (1 <<PC5);}
    2400:	80 91 90 03 	lds	r24, 0x0390	; 0x800390 <tct>
    2404:	90 91 91 03 	lds	r25, 0x0391	; 0x800391 <tct+0x1>
    2408:	8d 97       	sbiw	r24, 0x2d	; 45
    240a:	11 f4       	brne	.+4      	; 0x2410 <protocol+0x5aa>
    240c:	29 9a       	sbi	0x05, 1	; 5
    240e:	45 9a       	sbi	0x08, 5	; 8
		   if(tct==46)
    2410:	80 91 90 03 	lds	r24, 0x0390	; 0x800390 <tct>
    2414:	90 91 91 03 	lds	r25, 0x0391	; 0x800391 <tct+0x1>
    2418:	8e 97       	sbiw	r24, 0x2e	; 46
    241a:	09 f0       	breq	.+2      	; 0x241e <protocol+0x5b8>
    241c:	54 c0       	rjmp	.+168    	; 0x24c6 <protocol+0x660>
		   {
			   if((detect[35]==1)&&(detect[42]==1)) {J1;external=0;}
    241e:	80 91 ad 04 	lds	r24, 0x04AD	; 0x8004ad <detect+0x46>
    2422:	90 91 ae 04 	lds	r25, 0x04AE	; 0x8004ae <detect+0x47>
    2426:	01 97       	sbiw	r24, 0x01	; 1
    2428:	79 f4       	brne	.+30     	; 0x2448 <protocol+0x5e2>
    242a:	80 91 bb 04 	lds	r24, 0x04BB	; 0x8004bb <detect+0x54>
    242e:	90 91 bc 04 	lds	r25, 0x04BC	; 0x8004bc <detect+0x55>
    2432:	01 97       	sbiw	r24, 0x01	; 1
    2434:	49 f4       	brne	.+18     	; 0x2448 <protocol+0x5e2>
    2436:	41 e0       	ldi	r20, 0x01	; 1
    2438:	60 e0       	ldi	r22, 0x00	; 0
    243a:	70 e8       	ldi	r23, 0x80	; 128
    243c:	80 e0       	ldi	r24, 0x00	; 0
    243e:	90 e0       	ldi	r25, 0x00	; 0
    2440:	0e 94 77 14 	call	0x28ee	; 0x28ee <registr>
    2444:	10 92 28 04 	sts	0x0428, r1	; 0x800428 <external>
			   if((detect[36]==1)&&(detect[43]==1)) {J0;external=0;}
    2448:	80 91 af 04 	lds	r24, 0x04AF	; 0x8004af <detect+0x48>
    244c:	90 91 b0 04 	lds	r25, 0x04B0	; 0x8004b0 <detect+0x49>
    2450:	01 97       	sbiw	r24, 0x01	; 1
    2452:	79 f4       	brne	.+30     	; 0x2472 <protocol+0x60c>
    2454:	80 91 bd 04 	lds	r24, 0x04BD	; 0x8004bd <detect+0x56>
    2458:	90 91 be 04 	lds	r25, 0x04BE	; 0x8004be <detect+0x57>
    245c:	01 97       	sbiw	r24, 0x01	; 1
    245e:	49 f4       	brne	.+18     	; 0x2472 <protocol+0x60c>
    2460:	40 e0       	ldi	r20, 0x00	; 0
    2462:	60 e0       	ldi	r22, 0x00	; 0
    2464:	70 e8       	ldi	r23, 0x80	; 128
    2466:	80 e0       	ldi	r24, 0x00	; 0
    2468:	90 e0       	ldi	r25, 0x00	; 0
    246a:	0e 94 77 14 	call	0x28ee	; 0x28ee <registr>
    246e:	10 92 28 04 	sts	0x0428, r1	; 0x800428 <external>
			   if((detect[38]==1)&&(detect[45]==1)) {external=1;}
    2472:	80 91 b3 04 	lds	r24, 0x04B3	; 0x8004b3 <detect+0x4c>
    2476:	90 91 b4 04 	lds	r25, 0x04B4	; 0x8004b4 <detect+0x4d>
    247a:	01 97       	sbiw	r24, 0x01	; 1
    247c:	49 f4       	brne	.+18     	; 0x2490 <protocol+0x62a>
    247e:	80 91 c1 04 	lds	r24, 0x04C1	; 0x8004c1 <detect+0x5a>
    2482:	90 91 c2 04 	lds	r25, 0x04C2	; 0x8004c2 <detect+0x5b>
    2486:	01 97       	sbiw	r24, 0x01	; 1
    2488:	19 f4       	brne	.+6      	; 0x2490 <protocol+0x62a>
    248a:	81 e0       	ldi	r24, 0x01	; 1
    248c:	80 93 28 04 	sts	0x0428, r24	; 0x800428 <external>
			   if((detect[37]==1)&&(detect[44]==1)) {external=0;}
    2490:	80 91 b1 04 	lds	r24, 0x04B1	; 0x8004b1 <detect+0x4a>
    2494:	90 91 b2 04 	lds	r25, 0x04B2	; 0x8004b2 <detect+0x4b>
    2498:	01 97       	sbiw	r24, 0x01	; 1
    249a:	a9 f4       	brne	.+42     	; 0x24c6 <protocol+0x660>
    249c:	80 91 bf 04 	lds	r24, 0x04BF	; 0x8004bf <detect+0x58>
    24a0:	90 91 c0 04 	lds	r25, 0x04C0	; 0x8004c0 <detect+0x59>
    24a4:	01 97       	sbiw	r24, 0x01	; 1
    24a6:	79 f4       	brne	.+30     	; 0x24c6 <protocol+0x660>
    24a8:	10 92 28 04 	sts	0x0428, r1	; 0x800428 <external>
		   break;
		   
		 }
	  }
		 
 }
    24ac:	0c c0       	rjmp	.+24     	; 0x24c6 <protocol+0x660>
		 if (tct==13)
		 {
			 directive|=(detect[10]<<3)|(detect[11]<<2)|(detect[12]<<1)|(detect[13]) ; //Определение типа запроса 
		 }
		 
		if(tct==9) {  PORTB|= (1 <<PB1); PORTC|= (1 <<PC5);}   //OWR в активном состоянии при запросе от ППКП  
    24ae:	09 97       	sbiw	r24, 0x09	; 9
    24b0:	09 f0       	breq	.+2      	; 0x24b4 <protocol+0x64e>
    24b2:	14 cd       	rjmp	.-1496   	; 0x1edc <protocol+0x76>
    24b4:	09 cd       	rjmp	.-1518   	; 0x1ec8 <protocol+0x62>
				
			if((tct==30)&&(tct<32))  //Активация выхода -тревога
			{
				temp_ID|=((external)&(0b1));
				if(temp_ID==1){  PORTB |= (1 <<PB1); PORTC|= (1 <<PC5);}
				if(temp_ID==0){  PORTB &=~(1 <<PB1);}
    24b6:	ef 2b       	or	r30, r31
    24b8:	09 f4       	brne	.+2      	; 0x24bc <protocol+0x656>
    24ba:	92 ce       	rjmp	.-732    	; 0x21e0 <protocol+0x37a>
    24bc:	d5 ce       	rjmp	.-598    	; 0x2268 <protocol+0x402>
				 
		   if((tct>=39)&&(tct<40))  //авария датчика DHT
			    {
				 temp_ID|=((receivemode)&(0b1));
				 if(temp_ID==1){  PORTB |= (1 <<PB1); PORTC|= (1 <<PC5);}
				 if(temp_ID==0){  PORTB &=~(1 <<PB1);}
    24be:	67 2b       	or	r22, r23
    24c0:	09 f4       	brne	.+2      	; 0x24c4 <protocol+0x65e>
    24c2:	f3 ce       	rjmp	.-538    	; 0x22aa <protocol+0x444>
    24c4:	55 cf       	rjmp	.-342    	; 0x2370 <protocol+0x50a>
		   break;
		   
		 }
	  }
		 
 }
    24c6:	df 91       	pop	r29
    24c8:	cf 91       	pop	r28
    24ca:	08 95       	ret

000024cc <Omega_slave>:
 #include "Omega.h"
 void Omega_slave() {
 
 
// PORTD|= (1 <<PD1); // Вспомогательная строб-индикация состояния 
 stats=(PINB & 0b0000001); //Чтение состояния входа
    24cc:	23 b1       	in	r18, 0x03	; 3
    24ce:	82 2f       	mov	r24, r18
    24d0:	81 70       	andi	r24, 0x01	; 1
    24d2:	90 e0       	ldi	r25, 0x00	; 0
    24d4:	90 93 4e 04 	sts	0x044E, r25	; 0x80044e <stats+0x1>
    24d8:	80 93 4d 04 	sts	0x044D, r24	; 0x80044d <stats>

 if (( stats ==1)&&(bit_flag==0))
    24dc:	81 30       	cpi	r24, 0x01	; 1
    24de:	91 05       	cpc	r25, r1
    24e0:	09 f0       	breq	.+2      	; 0x24e4 <Omega_slave+0x18>
    24e2:	2a c1       	rjmp	.+596    	; 0x2738 <Omega_slave+0x26c>
    24e4:	80 91 fe 03 	lds	r24, 0x03FE	; 0x8003fe <bit_flag>
    24e8:	81 11       	cpse	r24, r1
    24ea:	5d c1       	rjmp	.+698    	; 0x27a6 <Omega_slave+0x2da>
 {
	 
	 if((8<low)&& (low<11)){low=0;}    // интерпритация нуля
    24ec:	80 91 ff 03 	lds	r24, 0x03FF	; 0x8003ff <low>
    24f0:	90 91 00 04 	lds	r25, 0x0400	; 0x800400 <low+0x1>
    24f4:	9c 01       	movw	r18, r24
    24f6:	29 50       	subi	r18, 0x09	; 9
    24f8:	31 09       	sbc	r19, r1
    24fa:	22 30       	cpi	r18, 0x02	; 2
    24fc:	31 05       	cpc	r19, r1
    24fe:	28 f4       	brcc	.+10     	; 0x250a <Omega_slave+0x3e>
    2500:	10 92 00 04 	sts	0x0400, r1	; 0x800400 <low+0x1>
    2504:	10 92 ff 03 	sts	0x03FF, r1	; 0x8003ff <low>
    2508:	2e c0       	rjmp	.+92     	; 0x2566 <Omega_slave+0x9a>
	 if((17<low)&& (low<21)){low=1;}   // интерпритация единицы
    250a:	42 97       	sbiw	r24, 0x12	; 18
    250c:	03 97       	sbiw	r24, 0x03	; 3
    250e:	38 f4       	brcc	.+14     	; 0x251e <Omega_slave+0x52>
    2510:	81 e0       	ldi	r24, 0x01	; 1
    2512:	90 e0       	ldi	r25, 0x00	; 0
    2514:	90 93 00 04 	sts	0x0400, r25	; 0x800400 <low+0x1>
    2518:	80 93 ff 03 	sts	0x03FF, r24	; 0x8003ff <low>
    251c:	42 c0       	rjmp	.+132    	; 0x25a2 <Omega_slave+0xd6>
	 if((26<low)&& (low<35)){low=2;tct=0; input_bit=0;adress_t=0;directive=0;}  // команда начала приёма 
    251e:	80 91 ff 03 	lds	r24, 0x03FF	; 0x8003ff <low>
    2522:	90 91 00 04 	lds	r25, 0x0400	; 0x800400 <low+0x1>
    2526:	4b 97       	sbiw	r24, 0x1b	; 27
    2528:	08 97       	sbiw	r24, 0x08	; 8
    252a:	e8 f4       	brcc	.+58     	; 0x2566 <Omega_slave+0x9a>
    252c:	82 e0       	ldi	r24, 0x02	; 2
    252e:	90 e0       	ldi	r25, 0x00	; 0
    2530:	90 93 00 04 	sts	0x0400, r25	; 0x800400 <low+0x1>
    2534:	80 93 ff 03 	sts	0x03FF, r24	; 0x8003ff <low>
    2538:	10 92 91 03 	sts	0x0391, r1	; 0x800391 <tct+0x1>
    253c:	10 92 90 03 	sts	0x0390, r1	; 0x800390 <tct>
    2540:	10 92 a8 03 	sts	0x03A8, r1	; 0x8003a8 <input_bit+0x1>
    2544:	10 92 a7 03 	sts	0x03A7, r1	; 0x8003a7 <input_bit>
    2548:	10 92 d7 03 	sts	0x03D7, r1	; 0x8003d7 <adress_t+0x1>
    254c:	10 92 d6 03 	sts	0x03D6, r1	; 0x8003d6 <adress_t>
    2550:	10 92 2c 04 	sts	0x042C, r1	; 0x80042c <directive+0x1>
    2554:	10 92 2b 04 	sts	0x042B, r1	; 0x80042b <directive>
	 if(low>1000){tct=0; input_bit=0;adress_t=0;directive=0;low=0;external=0;}
	 detect[tct]=low;
    2558:	20 e0       	ldi	r18, 0x00	; 0
    255a:	30 e0       	ldi	r19, 0x00	; 0
    255c:	90 93 68 04 	sts	0x0468, r25	; 0x800468 <detect+0x1>
    2560:	80 93 67 04 	sts	0x0467, r24	; 0x800467 <detect>
    2564:	82 c0       	rjmp	.+260    	; 0x266a <Omega_slave+0x19e>
 {
	 
	 if((8<low)&& (low<11)){low=0;}    // интерпритация нуля
	 if((17<low)&& (low<21)){low=1;}   // интерпритация единицы
	 if((26<low)&& (low<35)){low=2;tct=0; input_bit=0;adress_t=0;directive=0;}  // команда начала приёма 
	 if(low>1000){tct=0; input_bit=0;adress_t=0;directive=0;low=0;external=0;}
    2566:	80 91 ff 03 	lds	r24, 0x03FF	; 0x8003ff <low>
    256a:	90 91 00 04 	lds	r25, 0x0400	; 0x800400 <low+0x1>
    256e:	89 3e       	cpi	r24, 0xE9	; 233
    2570:	93 40       	sbci	r25, 0x03	; 3
    2572:	bc f0       	brlt	.+46     	; 0x25a2 <Omega_slave+0xd6>
    2574:	10 92 91 03 	sts	0x0391, r1	; 0x800391 <tct+0x1>
    2578:	10 92 90 03 	sts	0x0390, r1	; 0x800390 <tct>
    257c:	10 92 a8 03 	sts	0x03A8, r1	; 0x8003a8 <input_bit+0x1>
    2580:	10 92 a7 03 	sts	0x03A7, r1	; 0x8003a7 <input_bit>
    2584:	10 92 d7 03 	sts	0x03D7, r1	; 0x8003d7 <adress_t+0x1>
    2588:	10 92 d6 03 	sts	0x03D6, r1	; 0x8003d6 <adress_t>
    258c:	10 92 2c 04 	sts	0x042C, r1	; 0x80042c <directive+0x1>
    2590:	10 92 2b 04 	sts	0x042B, r1	; 0x80042b <directive>
    2594:	10 92 28 04 	sts	0x0428, r1	; 0x800428 <external>
	 detect[tct]=low;
    2598:	10 92 68 04 	sts	0x0468, r1	; 0x800468 <detect+0x1>
    259c:	10 92 67 04 	sts	0x0467, r1	; 0x800467 <detect>
    25a0:	74 c0       	rjmp	.+232    	; 0x268a <Omega_slave+0x1be>
    25a2:	20 91 90 03 	lds	r18, 0x0390	; 0x800390 <tct>
    25a6:	30 91 91 03 	lds	r19, 0x0391	; 0x800391 <tct+0x1>
    25aa:	f9 01       	movw	r30, r18
    25ac:	ee 0f       	add	r30, r30
    25ae:	ff 1f       	adc	r31, r31
    25b0:	e9 59       	subi	r30, 0x99	; 153
    25b2:	fb 4f       	sbci	r31, 0xFB	; 251
    25b4:	80 91 ff 03 	lds	r24, 0x03FF	; 0x8003ff <low>
    25b8:	90 91 00 04 	lds	r25, 0x0400	; 0x800400 <low+0x1>
    25bc:	91 83       	std	Z+1, r25	; 0x01
    25be:	80 83       	st	Z, r24
	 
	 if (tct==8)
    25c0:	28 30       	cpi	r18, 0x08	; 8
    25c2:	31 05       	cpc	r19, r1
    25c4:	09 f0       	breq	.+2      	; 0x25c8 <Omega_slave+0xfc>
    25c6:	51 c0       	rjmp	.+162    	; 0x266a <Omega_slave+0x19e>
	 {
		 adress_t|= (detect[2]<<6)|(detect[3]<<5)|(detect[4]<<4)|(detect[5]<<3)|(detect[6]<<2)|(detect[7]<<1)|(detect[8]) ;
    25c8:	e7 e6       	ldi	r30, 0x67	; 103
    25ca:	f4 e0       	ldi	r31, 0x04	; 4
    25cc:	20 89       	ldd	r18, Z+16	; 0x10
    25ce:	31 89       	ldd	r19, Z+17	; 0x11
    25d0:	80 91 d6 03 	lds	r24, 0x03D6	; 0x8003d6 <adress_t>
    25d4:	90 91 d7 03 	lds	r25, 0x03D7	; 0x8003d7 <adress_t+0x1>
    25d8:	82 2b       	or	r24, r18
    25da:	93 2b       	or	r25, r19
    25dc:	24 81       	ldd	r18, Z+4	; 0x04
    25de:	35 81       	ldd	r19, Z+5	; 0x05
    25e0:	00 24       	eor	r0, r0
    25e2:	36 95       	lsr	r19
    25e4:	27 95       	ror	r18
    25e6:	07 94       	ror	r0
    25e8:	36 95       	lsr	r19
    25ea:	27 95       	ror	r18
    25ec:	07 94       	ror	r0
    25ee:	32 2f       	mov	r19, r18
    25f0:	20 2d       	mov	r18, r0
    25f2:	82 2b       	or	r24, r18
    25f4:	93 2b       	or	r25, r19
    25f6:	26 81       	ldd	r18, Z+6	; 0x06
    25f8:	37 81       	ldd	r19, Z+7	; 0x07
    25fa:	22 0f       	add	r18, r18
    25fc:	33 1f       	adc	r19, r19
    25fe:	22 95       	swap	r18
    2600:	32 95       	swap	r19
    2602:	30 7f       	andi	r19, 0xF0	; 240
    2604:	32 27       	eor	r19, r18
    2606:	20 7f       	andi	r18, 0xF0	; 240
    2608:	32 27       	eor	r19, r18
    260a:	82 2b       	or	r24, r18
    260c:	93 2b       	or	r25, r19
    260e:	20 85       	ldd	r18, Z+8	; 0x08
    2610:	31 85       	ldd	r19, Z+9	; 0x09
    2612:	22 95       	swap	r18
    2614:	32 95       	swap	r19
    2616:	30 7f       	andi	r19, 0xF0	; 240
    2618:	32 27       	eor	r19, r18
    261a:	20 7f       	andi	r18, 0xF0	; 240
    261c:	32 27       	eor	r19, r18
    261e:	82 2b       	or	r24, r18
    2620:	93 2b       	or	r25, r19
    2622:	22 85       	ldd	r18, Z+10	; 0x0a
    2624:	33 85       	ldd	r19, Z+11	; 0x0b
    2626:	22 0f       	add	r18, r18
    2628:	33 1f       	adc	r19, r19
    262a:	22 0f       	add	r18, r18
    262c:	33 1f       	adc	r19, r19
    262e:	22 0f       	add	r18, r18
    2630:	33 1f       	adc	r19, r19
    2632:	82 2b       	or	r24, r18
    2634:	93 2b       	or	r25, r19
    2636:	24 85       	ldd	r18, Z+12	; 0x0c
    2638:	35 85       	ldd	r19, Z+13	; 0x0d
    263a:	22 0f       	add	r18, r18
    263c:	33 1f       	adc	r19, r19
    263e:	22 0f       	add	r18, r18
    2640:	33 1f       	adc	r19, r19
    2642:	82 2b       	or	r24, r18
    2644:	93 2b       	or	r25, r19
    2646:	26 85       	ldd	r18, Z+14	; 0x0e
    2648:	37 85       	ldd	r19, Z+15	; 0x0f
    264a:	22 0f       	add	r18, r18
    264c:	33 1f       	adc	r19, r19
    264e:	82 2b       	or	r24, r18
    2650:	93 2b       	or	r25, r19
    2652:	90 93 d7 03 	sts	0x03D7, r25	; 0x8003d7 <adress_t+0x1>
    2656:	80 93 d6 03 	sts	0x03D6, r24	; 0x8003d6 <adress_t>
		 if(adress_t==0){adres_call=0;}
    265a:	00 97       	sbiw	r24, 0x00	; 0
    265c:	09 f0       	breq	.+2      	; 0x2660 <Omega_slave+0x194>
    265e:	9a c0       	rjmp	.+308    	; 0x2794 <Omega_slave+0x2c8>
    2660:	10 92 d9 03 	sts	0x03D9, r1	; 0x8003d9 <adres_call+0x1>
    2664:	10 92 d8 03 	sts	0x03D8, r1	; 0x8003d8 <adres_call>
    2668:	95 c0       	rjmp	.+298    	; 0x2794 <Omega_slave+0x2c8>
	 }

	 if((adress_t==adress)&&(tct>=8)) {protocol();}
    266a:	40 91 d6 03 	lds	r20, 0x03D6	; 0x8003d6 <adress_t>
    266e:	50 91 d7 03 	lds	r21, 0x03D7	; 0x8003d7 <adress_t+0x1>
    2672:	80 91 2f 04 	lds	r24, 0x042F	; 0x80042f <adress>
    2676:	90 91 30 04 	lds	r25, 0x0430	; 0x800430 <adress+0x1>
    267a:	48 17       	cp	r20, r24
    267c:	59 07       	cpc	r21, r25
    267e:	29 f4       	brne	.+10     	; 0x268a <Omega_slave+0x1be>
    2680:	28 30       	cpi	r18, 0x08	; 8
    2682:	31 05       	cpc	r19, r1
    2684:	14 f0       	brlt	.+4      	; 0x268a <Omega_slave+0x1be>
    2686:	0e 94 33 0f 	call	0x1e66	; 0x1e66 <protocol>
	 
	   
	 bit_flag=1;
    268a:	81 e0       	ldi	r24, 0x01	; 1
    268c:	80 93 fe 03 	sts	0x03FE, r24	; 0x8003fe <bit_flag>
	 hi_flag=0;
    2690:	10 92 33 04 	sts	0x0433, r1	; 0x800433 <hi_flag>
	 low=0;
    2694:	10 92 00 04 	sts	0x0400, r1	; 0x800400 <low+0x1>
    2698:	10 92 ff 03 	sts	0x03FF, r1	; 0x8003ff <low>
	 temp_ID=0;
    269c:	10 92 c9 03 	sts	0x03C9, r1	; 0x8003c9 <temp_ID+0x1>
    26a0:	10 92 c8 03 	sts	0x03C8, r1	; 0x8003c8 <temp_ID>
	 if((detect[1]==1)&&(detect[2]==0)&&(tct==2))
    26a4:	80 91 69 04 	lds	r24, 0x0469	; 0x800469 <detect+0x2>
    26a8:	90 91 6a 04 	lds	r25, 0x046A	; 0x80046a <detect+0x3>
    26ac:	01 97       	sbiw	r24, 0x01	; 1
    26ae:	11 f5       	brne	.+68     	; 0x26f4 <Omega_slave+0x228>
    26b0:	80 91 6b 04 	lds	r24, 0x046B	; 0x80046b <detect+0x4>
    26b4:	90 91 6c 04 	lds	r25, 0x046C	; 0x80046c <detect+0x5>
    26b8:	89 2b       	or	r24, r25
    26ba:	e1 f4       	brne	.+56     	; 0x26f4 <Omega_slave+0x228>
    26bc:	80 91 90 03 	lds	r24, 0x0390	; 0x800390 <tct>
    26c0:	90 91 91 03 	lds	r25, 0x0391	; 0x800391 <tct+0x1>
    26c4:	02 97       	sbiw	r24, 0x02	; 2
    26c6:	b1 f4       	brne	.+44     	; 0x26f4 <Omega_slave+0x228>
	  {
		 adres_call=adres_call+1;
    26c8:	80 91 d8 03 	lds	r24, 0x03D8	; 0x8003d8 <adres_call>
    26cc:	90 91 d9 03 	lds	r25, 0x03D9	; 0x8003d9 <adres_call+0x1>
    26d0:	01 96       	adiw	r24, 0x01	; 1
    26d2:	90 93 d9 03 	sts	0x03D9, r25	; 0x8003d9 <adres_call+0x1>
    26d6:	80 93 d8 03 	sts	0x03D8, r24	; 0x8003d8 <adres_call>
		 if(adres_call==adress)
    26da:	20 91 2f 04 	lds	r18, 0x042F	; 0x80042f <adress>
    26de:	30 91 30 04 	lds	r19, 0x0430	; 0x800430 <adress+0x1>
    26e2:	82 17       	cp	r24, r18
    26e4:	93 07       	cpc	r25, r19
    26e6:	31 f4       	brne	.+12     	; 0x26f4 <Omega_slave+0x228>
		    {
			 adress_t=adres_call;{  PORTB |= (1 <<PB1); PORTC|= (1 <<PC5);} 	          
    26e8:	90 93 d7 03 	sts	0x03D7, r25	; 0x8003d7 <adress_t+0x1>
    26ec:	80 93 d6 03 	sts	0x03D6, r24	; 0x8003d6 <adress_t>
    26f0:	29 9a       	sbi	0x05, 1	; 5
    26f2:	45 9a       	sbi	0x08, 5	; 8
		    }
	  }
		 tct=tct+1;
    26f4:	80 91 90 03 	lds	r24, 0x0390	; 0x800390 <tct>
    26f8:	90 91 91 03 	lds	r25, 0x0391	; 0x800391 <tct+0x1>
    26fc:	01 96       	adiw	r24, 0x01	; 1
    26fe:	90 93 91 03 	sts	0x0391, r25	; 0x800391 <tct+0x1>
    2702:	80 93 90 03 	sts	0x0390, r24	; 0x800390 <tct>
	 }
	 
	 
	 if (( stats ==1)&&(bit_flag==1))
    2706:	80 91 4d 04 	lds	r24, 0x044D	; 0x80044d <stats>
    270a:	90 91 4e 04 	lds	r25, 0x044E	; 0x80044e <stats+0x1>
    270e:	81 30       	cpi	r24, 0x01	; 1
    2710:	91 05       	cpc	r25, r1
    2712:	09 f4       	brne	.+2      	; 0x2716 <Omega_slave+0x24a>
    2714:	48 c0       	rjmp	.+144    	; 0x27a6 <Omega_slave+0x2da>
    2716:	10 c0       	rjmp	.+32     	; 0x2738 <Omega_slave+0x26c>
	 {
		 active =active+1;	 
    2718:	80 91 d2 03 	lds	r24, 0x03D2	; 0x8003d2 <active>
    271c:	90 91 d3 03 	lds	r25, 0x03D3	; 0x8003d3 <active+0x1>
    2720:	01 96       	adiw	r24, 0x01	; 1
    2722:	90 93 d3 03 	sts	0x03D3, r25	; 0x8003d3 <active+0x1>
    2726:	80 93 d2 03 	sts	0x03D2, r24	; 0x8003d2 <active>
		 bit_flag=0;
		 active=0;
		 input_bit=0;//!!!!!!!!!!!!!!!!!!!!!!!!!!!!!!!!!!
	 }
	 
	 if (( stats ==0)&&(hi_flag==1))
    272a:	80 91 4d 04 	lds	r24, 0x044D	; 0x80044d <stats>
    272e:	90 91 4e 04 	lds	r25, 0x044E	; 0x80044e <stats+0x1>
    2732:	89 2b       	or	r24, r25
    2734:	e9 f0       	breq	.+58     	; 0x2770 <Omega_slave+0x2a4>
    2736:	08 95       	ret
	 {
		 active =active+1;	 
	 }
	 
	 
	 if (( stats ==0)&&(hi_flag==0))
    2738:	89 2b       	or	r24, r25
    273a:	d1 f5       	brne	.+116    	; 0x27b0 <Omega_slave+0x2e4>
    273c:	80 91 33 04 	lds	r24, 0x0433	; 0x800433 <hi_flag>
    2740:	81 11       	cpse	r24, r1
    2742:	16 c0       	rjmp	.+44     	; 0x2770 <Omega_slave+0x2a4>
	 {
		  PORTB &=~ (1 <<PB1);                // digitalWrite(13,LOW);
    2744:	29 98       	cbi	0x05, 1	; 5
		  PORTC&=~ (1 <<PC5);
    2746:	45 98       	cbi	0x08, 5	; 8
		 hi_flag=1;
    2748:	81 e0       	ldi	r24, 0x01	; 1
    274a:	80 93 33 04 	sts	0x0433, r24	; 0x800433 <hi_flag>
		 bit_flag=0;
    274e:	10 92 fe 03 	sts	0x03FE, r1	; 0x8003fe <bit_flag>
		 active=0;
    2752:	10 92 d3 03 	sts	0x03D3, r1	; 0x8003d3 <active+0x1>
    2756:	10 92 d2 03 	sts	0x03D2, r1	; 0x8003d2 <active>
		 input_bit=0;//!!!!!!!!!!!!!!!!!!!!!!!!!!!!!!!!!!
    275a:	10 92 a8 03 	sts	0x03A8, r1	; 0x8003a8 <input_bit+0x1>
    275e:	10 92 a7 03 	sts	0x03A7, r1	; 0x8003a7 <input_bit>
	 }
	 
	 if (( stats ==0)&&(hi_flag==1))
    2762:	80 91 4d 04 	lds	r24, 0x044D	; 0x80044d <stats>
    2766:	90 91 4e 04 	lds	r25, 0x044E	; 0x80044e <stats+0x1>
    276a:	89 2b       	or	r24, r25
    276c:	29 f0       	breq	.+10     	; 0x2778 <Omega_slave+0x2ac>
    276e:	08 95       	ret
    2770:	80 91 33 04 	lds	r24, 0x0433	; 0x800433 <hi_flag>
    2774:	81 30       	cpi	r24, 0x01	; 1
    2776:	e1 f4       	brne	.+56     	; 0x27b0 <Omega_slave+0x2e4>
	 {	 
		 active=0;
    2778:	10 92 d3 03 	sts	0x03D3, r1	; 0x8003d3 <active+0x1>
    277c:	10 92 d2 03 	sts	0x03D2, r1	; 0x8003d2 <active>
		 low=low+1;
    2780:	80 91 ff 03 	lds	r24, 0x03FF	; 0x8003ff <low>
    2784:	90 91 00 04 	lds	r25, 0x0400	; 0x800400 <low+0x1>
    2788:	01 96       	adiw	r24, 0x01	; 1
    278a:	90 93 00 04 	sts	0x0400, r25	; 0x800400 <low+0x1>
    278e:	80 93 ff 03 	sts	0x03FF, r24	; 0x8003ff <low>
	 }

//	 PORTD &=~(1 <<PD1);  // Вспомогательная строб-индикация состояния 
	 
	 }
    2792:	08 95       	ret
	 {
		 adress_t|= (detect[2]<<6)|(detect[3]<<5)|(detect[4]<<4)|(detect[5]<<3)|(detect[6]<<2)|(detect[7]<<1)|(detect[8]) ;
		 if(adress_t==0){adres_call=0;}
	 }

	 if((adress_t==adress)&&(tct>=8)) {protocol();}
    2794:	20 91 2f 04 	lds	r18, 0x042F	; 0x80042f <adress>
    2798:	30 91 30 04 	lds	r19, 0x0430	; 0x800430 <adress+0x1>
    279c:	82 17       	cp	r24, r18
    279e:	93 07       	cpc	r25, r19
    27a0:	09 f0       	breq	.+2      	; 0x27a4 <Omega_slave+0x2d8>
    27a2:	73 cf       	rjmp	.-282    	; 0x268a <Omega_slave+0x1be>
    27a4:	70 cf       	rjmp	.-288    	; 0x2686 <Omega_slave+0x1ba>
	  }
		 tct=tct+1;
	 }
	 
	 
	 if (( stats ==1)&&(bit_flag==1))
    27a6:	80 91 fe 03 	lds	r24, 0x03FE	; 0x8003fe <bit_flag>
    27aa:	81 30       	cpi	r24, 0x01	; 1
    27ac:	09 f4       	brne	.+2      	; 0x27b0 <Omega_slave+0x2e4>
    27ae:	b4 cf       	rjmp	.-152    	; 0x2718 <Omega_slave+0x24c>
    27b0:	08 95       	ret

000027b2 <start>:
	if(blink>=31496){pwm_finish=1;RN1;}	
 }
	}
	
	*/
	if(soft_start==1)
    27b2:	80 91 98 03 	lds	r24, 0x0398	; 0x800398 <soft_start>
    27b6:	81 30       	cpi	r24, 0x01	; 1
    27b8:	09 f0       	breq	.+2      	; 0x27bc <start+0xa>
    27ba:	98 c0       	rjmp	.+304    	; 0x28ec <start+0x13a>
	{
		if(pwm_finish==0)
    27bc:	80 91 16 04 	lds	r24, 0x0416	; 0x800416 <pwm_finish>
    27c0:	81 11       	cpse	r24, r1
    27c2:	94 c0       	rjmp	.+296    	; 0x28ec <start+0x13a>

		{
			
			blink=blink+1;
    27c4:	80 91 dc 03 	lds	r24, 0x03DC	; 0x8003dc <blink>
    27c8:	90 91 dd 03 	lds	r25, 0x03DD	; 0x8003dd <blink+0x1>
    27cc:	01 96       	adiw	r24, 0x01	; 1
    27ce:	90 93 dd 03 	sts	0x03DD, r25	; 0x8003dd <blink+0x1>
    27d2:	80 93 dc 03 	sts	0x03DC, r24	; 0x8003dc <blink>
			if(blink<7874){tk=blink/100;}
    27d6:	82 3c       	cpi	r24, 0xC2	; 194
    27d8:	2e e1       	ldi	r18, 0x1E	; 30
    27da:	92 07       	cpc	r25, r18
    27dc:	44 f4       	brge	.+16     	; 0x27ee <start+0x3c>
    27de:	64 e6       	ldi	r22, 0x64	; 100
    27e0:	70 e0       	ldi	r23, 0x00	; 0
    27e2:	0e 94 57 26 	call	0x4cae	; 0x4cae <__divmodhi4>
    27e6:	70 93 a2 03 	sts	0x03A2, r23	; 0x8003a2 <tk+0x1>
    27ea:	60 93 a1 03 	sts	0x03A1, r22	; 0x8003a1 <tk>

			peak=0;
    27ee:	10 92 18 04 	sts	0x0418, r1	; 0x800418 <peak+0x1>
    27f2:	10 92 17 04 	sts	0x0417, r1	; 0x800417 <peak>
			if(pwr_flag==0){peak=read_adc(6);}
    27f6:	80 91 db 03 	lds	r24, 0x03DB	; 0x8003db <pwr_flag>
    27fa:	81 11       	cpse	r24, r1
    27fc:	32 c0       	rjmp	.+100    	; 0x2862 <start+0xb0>
    27fe:	86 e0       	ldi	r24, 0x06	; 6
    2800:	0e 94 e2 00 	call	0x1c4	; 0x1c4 <read_adc>
    2804:	90 93 18 04 	sts	0x0418, r25	; 0x800418 <peak+0x1>
    2808:	80 93 17 04 	sts	0x0417, r24	; 0x800417 <peak>

			if((peak>=502)&&(peak<=522)&&(pwr_flag==0)&&((blink-blink_detect)>75))
    280c:	86 5f       	subi	r24, 0xF6	; 246
    280e:	91 40       	sbci	r25, 0x01	; 1
    2810:	45 97       	sbiw	r24, 0x15	; 21
    2812:	38 f5       	brcc	.+78     	; 0x2862 <start+0xb0>
    2814:	80 91 db 03 	lds	r24, 0x03DB	; 0x8003db <pwr_flag>
    2818:	81 11       	cpse	r24, r1
    281a:	23 c0       	rjmp	.+70     	; 0x2862 <start+0xb0>
    281c:	80 91 dc 03 	lds	r24, 0x03DC	; 0x8003dc <blink>
    2820:	90 91 dd 03 	lds	r25, 0x03DD	; 0x8003dd <blink+0x1>
    2824:	20 91 34 04 	lds	r18, 0x0434	; 0x800434 <blink_detect>
    2828:	30 91 35 04 	lds	r19, 0x0435	; 0x800435 <blink_detect+0x1>
    282c:	ac 01       	movw	r20, r24
    282e:	42 1b       	sub	r20, r18
    2830:	53 0b       	sbc	r21, r19
    2832:	4c 34       	cpi	r20, 0x4C	; 76
    2834:	51 05       	cpc	r21, r1
    2836:	0c f4       	brge	.+2      	; 0x283a <start+0x88>
    2838:	48 c0       	rjmp	.+144    	; 0x28ca <start+0x118>
			{
				blink_detect=blink;
    283a:	90 93 35 04 	sts	0x0435, r25	; 0x800435 <blink_detect+0x1>
    283e:	80 93 34 04 	sts	0x0434, r24	; 0x800434 <blink_detect>
				pwr_flag=1;
    2842:	81 e0       	ldi	r24, 0x01	; 1
    2844:	80 93 db 03 	sts	0x03DB, r24	; 0x8003db <pwr_flag>
				run_status=0;
    2848:	10 92 9f 03 	sts	0x039F, r1	; 0x80039f <run_status+0x1>
    284c:	10 92 9e 03 	sts	0x039E, r1	; 0x80039e <run_status>
				latch_1=0;
    2850:	10 92 92 03 	sts	0x0392, r1	; 0x800392 <latch_1>
				RN0;
    2854:	40 e0       	ldi	r20, 0x00	; 0
    2856:	60 e8       	ldi	r22, 0x80	; 128
    2858:	70 e0       	ldi	r23, 0x00	; 0
    285a:	80 e0       	ldi	r24, 0x00	; 0
    285c:	90 e0       	ldi	r25, 0x00	; 0
    285e:	0e 94 77 14 	call	0x28ee	; 0x28ee <registr>
			}
			
			if(pwr_flag==1)
    2862:	80 91 db 03 	lds	r24, 0x03DB	; 0x8003db <pwr_flag>
    2866:	81 30       	cpi	r24, 0x01	; 1
    2868:	81 f5       	brne	.+96     	; 0x28ca <start+0x118>
			{   
				run_status++;
    286a:	20 91 9e 03 	lds	r18, 0x039E	; 0x80039e <run_status>
    286e:	30 91 9f 03 	lds	r19, 0x039F	; 0x80039f <run_status+0x1>
    2872:	2f 5f       	subi	r18, 0xFF	; 255
    2874:	3f 4f       	sbci	r19, 0xFF	; 255
    2876:	30 93 9f 03 	sts	0x039F, r19	; 0x80039f <run_status+0x1>
    287a:	20 93 9e 03 	sts	0x039E, r18	; 0x80039e <run_status>
				pwr_count=79-tk;
    287e:	40 91 a1 03 	lds	r20, 0x03A1	; 0x8003a1 <tk>
    2882:	50 91 a2 03 	lds	r21, 0x03A2	; 0x8003a2 <tk+0x1>
    2886:	8f e4       	ldi	r24, 0x4F	; 79
    2888:	90 e0       	ldi	r25, 0x00	; 0
    288a:	84 1b       	sub	r24, r20
    288c:	95 0b       	sbc	r25, r21
    288e:	90 93 94 03 	sts	0x0394, r25	; 0x800394 <pwr_count+0x1>
    2892:	80 93 93 03 	sts	0x0393, r24	; 0x800393 <pwr_count>
				if((run_status==pwr_count)&&(latch_1==0)){RN1;latch_1=1;}
    2896:	28 17       	cp	r18, r24
    2898:	39 07       	cpc	r19, r25
    289a:	71 f4       	brne	.+28     	; 0x28b8 <start+0x106>
    289c:	80 91 92 03 	lds	r24, 0x0392	; 0x800392 <latch_1>
    28a0:	81 11       	cpse	r24, r1
    28a2:	0a c0       	rjmp	.+20     	; 0x28b8 <start+0x106>
    28a4:	41 e0       	ldi	r20, 0x01	; 1
    28a6:	60 e8       	ldi	r22, 0x80	; 128
    28a8:	70 e0       	ldi	r23, 0x00	; 0
    28aa:	80 e0       	ldi	r24, 0x00	; 0
    28ac:	90 e0       	ldi	r25, 0x00	; 0
    28ae:	0e 94 77 14 	call	0x28ee	; 0x28ee <registr>
    28b2:	81 e0       	ldi	r24, 0x01	; 1
    28b4:	80 93 92 03 	sts	0x0392, r24	; 0x800392 <latch_1>
				if(run_status>75){pwr_flag=0;};	
    28b8:	80 91 9e 03 	lds	r24, 0x039E	; 0x80039e <run_status>
    28bc:	90 91 9f 03 	lds	r25, 0x039F	; 0x80039f <run_status+0x1>
    28c0:	8c 34       	cpi	r24, 0x4C	; 76
    28c2:	91 05       	cpc	r25, r1
    28c4:	14 f0       	brlt	.+4      	; 0x28ca <start+0x118>
    28c6:	10 92 db 03 	sts	0x03DB, r1	; 0x8003db <pwr_flag>
			}

			if(blink>=5874){pwm_finish=1;RN1;}
    28ca:	80 91 dc 03 	lds	r24, 0x03DC	; 0x8003dc <blink>
    28ce:	90 91 dd 03 	lds	r25, 0x03DD	; 0x8003dd <blink+0x1>
    28d2:	82 3f       	cpi	r24, 0xF2	; 242
    28d4:	96 41       	sbci	r25, 0x16	; 22
    28d6:	54 f0       	brlt	.+20     	; 0x28ec <start+0x13a>
    28d8:	81 e0       	ldi	r24, 0x01	; 1
    28da:	80 93 16 04 	sts	0x0416, r24	; 0x800416 <pwm_finish>
    28de:	41 e0       	ldi	r20, 0x01	; 1
    28e0:	60 e8       	ldi	r22, 0x80	; 128
    28e2:	70 e0       	ldi	r23, 0x00	; 0
    28e4:	80 e0       	ldi	r24, 0x00	; 0
    28e6:	90 e0       	ldi	r25, 0x00	; 0
    28e8:	0e 94 77 14 	call	0x28ee	; 0x28ee <registr>
    28ec:	08 95       	ret

000028ee <registr>:
#include "Registr.h"


// Функция передачи данных в регистр
void registr(unsigned long data, unsigned char WriteOrErase)
{
    28ee:	0f 93       	push	r16
    28f0:	1f 93       	push	r17
	if(WriteOrErase == 1)
    28f2:	41 30       	cpi	r20, 0x01	; 1
    28f4:	b9 f4       	brne	.+46     	; 0x2924 <registr+0x36>
	tempdata = (tempdata|data);
    28f6:	00 91 87 03 	lds	r16, 0x0387	; 0x800387 <tempdata>
    28fa:	10 91 88 03 	lds	r17, 0x0388	; 0x800388 <tempdata+0x1>
    28fe:	20 91 89 03 	lds	r18, 0x0389	; 0x800389 <tempdata+0x2>
    2902:	30 91 8a 03 	lds	r19, 0x038A	; 0x80038a <tempdata+0x3>
    2906:	dc 01       	movw	r26, r24
    2908:	cb 01       	movw	r24, r22
    290a:	80 2b       	or	r24, r16
    290c:	91 2b       	or	r25, r17
    290e:	a2 2b       	or	r26, r18
    2910:	b3 2b       	or	r27, r19
    2912:	80 93 87 03 	sts	0x0387, r24	; 0x800387 <tempdata>
    2916:	90 93 88 03 	sts	0x0388, r25	; 0x800388 <tempdata+0x1>
    291a:	a0 93 89 03 	sts	0x0389, r26	; 0x800389 <tempdata+0x2>
    291e:	b0 93 8a 03 	sts	0x038A, r27	; 0x80038a <tempdata+0x3>
    2922:	1a c0       	rjmp	.+52     	; 0x2958 <registr+0x6a>
	else
	tempdata &= ~(data);
    2924:	00 91 87 03 	lds	r16, 0x0387	; 0x800387 <tempdata>
    2928:	10 91 88 03 	lds	r17, 0x0388	; 0x800388 <tempdata+0x1>
    292c:	20 91 89 03 	lds	r18, 0x0389	; 0x800389 <tempdata+0x2>
    2930:	30 91 8a 03 	lds	r19, 0x038A	; 0x80038a <tempdata+0x3>
    2934:	dc 01       	movw	r26, r24
    2936:	cb 01       	movw	r24, r22
    2938:	80 95       	com	r24
    293a:	90 95       	com	r25
    293c:	a0 95       	com	r26
    293e:	b0 95       	com	r27
    2940:	80 23       	and	r24, r16
    2942:	91 23       	and	r25, r17
    2944:	a2 23       	and	r26, r18
    2946:	b3 23       	and	r27, r19
    2948:	80 93 87 03 	sts	0x0387, r24	; 0x800387 <tempdata>
    294c:	90 93 88 03 	sts	0x0388, r25	; 0x800388 <tempdata+0x1>
    2950:	a0 93 89 03 	sts	0x0389, r26	; 0x800389 <tempdata+0x2>
    2954:	b0 93 8a 03 	sts	0x038A, r27	; 0x80038a <tempdata+0x3>
	PORTD &= ~(1 << PD3); // ST_CP 0
    2958:	5b 98       	cbi	0x0b, 3	; 11
	PORTD &= ~(1 << PD4); // SH_CP 0
    295a:	5c 98       	cbi	0x0b, 4	; 11
	
	if(tempdata & 0x8000)PORTD |= (1 << PD2);
    295c:	80 91 87 03 	lds	r24, 0x0387	; 0x800387 <tempdata>
    2960:	90 91 88 03 	lds	r25, 0x0388	; 0x800388 <tempdata+0x1>
    2964:	a0 91 89 03 	lds	r26, 0x0389	; 0x800389 <tempdata+0x2>
    2968:	b0 91 8a 03 	lds	r27, 0x038A	; 0x80038a <tempdata+0x3>
    296c:	97 ff       	sbrs	r25, 7
    296e:	02 c0       	rjmp	.+4      	; 0x2974 <registr+0x86>
    2970:	5a 9a       	sbi	0x0b, 2	; 11
    2972:	01 c0       	rjmp	.+2      	; 0x2976 <registr+0x88>
	else PORTD &= ~(1 << PD2);
    2974:	5a 98       	cbi	0x0b, 2	; 11
	PORTD |= (1 << PD4); // SH_CP 1
    2976:	5c 9a       	sbi	0x0b, 4	; 11
	PORTD &= ~(1 << PD4); // SH_CP 0
    2978:	5c 98       	cbi	0x0b, 4	; 11
	if(tempdata & 0x4000)PORTD |= (1 << PD2);
    297a:	80 91 87 03 	lds	r24, 0x0387	; 0x800387 <tempdata>
    297e:	90 91 88 03 	lds	r25, 0x0388	; 0x800388 <tempdata+0x1>
    2982:	a0 91 89 03 	lds	r26, 0x0389	; 0x800389 <tempdata+0x2>
    2986:	b0 91 8a 03 	lds	r27, 0x038A	; 0x80038a <tempdata+0x3>
    298a:	96 ff       	sbrs	r25, 6
    298c:	02 c0       	rjmp	.+4      	; 0x2992 <registr+0xa4>
    298e:	5a 9a       	sbi	0x0b, 2	; 11
    2990:	01 c0       	rjmp	.+2      	; 0x2994 <registr+0xa6>
	else PORTD &= ~(1 << PD2);
    2992:	5a 98       	cbi	0x0b, 2	; 11
	PORTD |= (1 << PD4); // SH_CP 1
    2994:	5c 9a       	sbi	0x0b, 4	; 11
	PORTD &= ~(1 << PD4); // SH_CP 0
    2996:	5c 98       	cbi	0x0b, 4	; 11
	if(tempdata & 0x2000)PORTD |= (1 << PD2);
    2998:	80 91 87 03 	lds	r24, 0x0387	; 0x800387 <tempdata>
    299c:	90 91 88 03 	lds	r25, 0x0388	; 0x800388 <tempdata+0x1>
    29a0:	a0 91 89 03 	lds	r26, 0x0389	; 0x800389 <tempdata+0x2>
    29a4:	b0 91 8a 03 	lds	r27, 0x038A	; 0x80038a <tempdata+0x3>
    29a8:	95 ff       	sbrs	r25, 5
    29aa:	02 c0       	rjmp	.+4      	; 0x29b0 <registr+0xc2>
    29ac:	5a 9a       	sbi	0x0b, 2	; 11
    29ae:	01 c0       	rjmp	.+2      	; 0x29b2 <registr+0xc4>
	else PORTD &= ~(1 << PD2);
    29b0:	5a 98       	cbi	0x0b, 2	; 11
	PORTD |= (1 << PD4); // SH_CP 1
    29b2:	5c 9a       	sbi	0x0b, 4	; 11
	PORTD &= ~(1 << PD4); // SH_CP 0
    29b4:	5c 98       	cbi	0x0b, 4	; 11
	if(tempdata & 0x1000)PORTD |= (1 << PD2);
    29b6:	80 91 87 03 	lds	r24, 0x0387	; 0x800387 <tempdata>
    29ba:	90 91 88 03 	lds	r25, 0x0388	; 0x800388 <tempdata+0x1>
    29be:	a0 91 89 03 	lds	r26, 0x0389	; 0x800389 <tempdata+0x2>
    29c2:	b0 91 8a 03 	lds	r27, 0x038A	; 0x80038a <tempdata+0x3>
    29c6:	94 ff       	sbrs	r25, 4
    29c8:	02 c0       	rjmp	.+4      	; 0x29ce <registr+0xe0>
    29ca:	5a 9a       	sbi	0x0b, 2	; 11
    29cc:	01 c0       	rjmp	.+2      	; 0x29d0 <registr+0xe2>
	else PORTD &= ~(1 << PD2);
    29ce:	5a 98       	cbi	0x0b, 2	; 11
	PORTD |= (1 << PD4); // SH_CP 1
    29d0:	5c 9a       	sbi	0x0b, 4	; 11
	PORTD &= ~(1 << PD4); // SH_CP 0
    29d2:	5c 98       	cbi	0x0b, 4	; 11
	if(tempdata & 0x800)PORTD |= (1 << PD2);
    29d4:	80 91 87 03 	lds	r24, 0x0387	; 0x800387 <tempdata>
    29d8:	90 91 88 03 	lds	r25, 0x0388	; 0x800388 <tempdata+0x1>
    29dc:	a0 91 89 03 	lds	r26, 0x0389	; 0x800389 <tempdata+0x2>
    29e0:	b0 91 8a 03 	lds	r27, 0x038A	; 0x80038a <tempdata+0x3>
    29e4:	93 ff       	sbrs	r25, 3
    29e6:	02 c0       	rjmp	.+4      	; 0x29ec <registr+0xfe>
    29e8:	5a 9a       	sbi	0x0b, 2	; 11
    29ea:	01 c0       	rjmp	.+2      	; 0x29ee <registr+0x100>
	else PORTD &= ~(1 << PD2);
    29ec:	5a 98       	cbi	0x0b, 2	; 11
	PORTD |= (1 << PD4); // SH_CP 1
    29ee:	5c 9a       	sbi	0x0b, 4	; 11
	PORTD &= ~(1 << PD4); // SH_CP 0
    29f0:	5c 98       	cbi	0x0b, 4	; 11
	if(tempdata & 0x400)PORTD |= (1 << PD2);
    29f2:	80 91 87 03 	lds	r24, 0x0387	; 0x800387 <tempdata>
    29f6:	90 91 88 03 	lds	r25, 0x0388	; 0x800388 <tempdata+0x1>
    29fa:	a0 91 89 03 	lds	r26, 0x0389	; 0x800389 <tempdata+0x2>
    29fe:	b0 91 8a 03 	lds	r27, 0x038A	; 0x80038a <tempdata+0x3>
    2a02:	92 ff       	sbrs	r25, 2
    2a04:	02 c0       	rjmp	.+4      	; 0x2a0a <registr+0x11c>
    2a06:	5a 9a       	sbi	0x0b, 2	; 11
    2a08:	01 c0       	rjmp	.+2      	; 0x2a0c <registr+0x11e>
	else PORTD &= ~(1 << PD2);
    2a0a:	5a 98       	cbi	0x0b, 2	; 11
	PORTD |= (1 << PD4); // SH_CP 1
    2a0c:	5c 9a       	sbi	0x0b, 4	; 11
	PORTD &= ~(1 << PD4); // SH_CP 0
    2a0e:	5c 98       	cbi	0x0b, 4	; 11
	if(tempdata & 0x200)PORTD |= (1 << PD2);
    2a10:	80 91 87 03 	lds	r24, 0x0387	; 0x800387 <tempdata>
    2a14:	90 91 88 03 	lds	r25, 0x0388	; 0x800388 <tempdata+0x1>
    2a18:	a0 91 89 03 	lds	r26, 0x0389	; 0x800389 <tempdata+0x2>
    2a1c:	b0 91 8a 03 	lds	r27, 0x038A	; 0x80038a <tempdata+0x3>
    2a20:	91 ff       	sbrs	r25, 1
    2a22:	02 c0       	rjmp	.+4      	; 0x2a28 <registr+0x13a>
    2a24:	5a 9a       	sbi	0x0b, 2	; 11
    2a26:	01 c0       	rjmp	.+2      	; 0x2a2a <registr+0x13c>
	else PORTD &= ~(1 << PD2);
    2a28:	5a 98       	cbi	0x0b, 2	; 11
	PORTD |= (1 << PD4); // SH_CP 1
    2a2a:	5c 9a       	sbi	0x0b, 4	; 11
	PORTD &= ~(1 << PD4); // SH_CP 0
    2a2c:	5c 98       	cbi	0x0b, 4	; 11
	if(tempdata & 0x100)PORTD |= (1 << PD2);
    2a2e:	80 91 87 03 	lds	r24, 0x0387	; 0x800387 <tempdata>
    2a32:	90 91 88 03 	lds	r25, 0x0388	; 0x800388 <tempdata+0x1>
    2a36:	a0 91 89 03 	lds	r26, 0x0389	; 0x800389 <tempdata+0x2>
    2a3a:	b0 91 8a 03 	lds	r27, 0x038A	; 0x80038a <tempdata+0x3>
    2a3e:	90 ff       	sbrs	r25, 0
    2a40:	02 c0       	rjmp	.+4      	; 0x2a46 <registr+0x158>
    2a42:	5a 9a       	sbi	0x0b, 2	; 11
    2a44:	01 c0       	rjmp	.+2      	; 0x2a48 <registr+0x15a>
	else PORTD &= ~(1 << PD2);
    2a46:	5a 98       	cbi	0x0b, 2	; 11
	PORTD |= (1 << PD4); // SH_CP 1
    2a48:	5c 9a       	sbi	0x0b, 4	; 11
	PORTD &= ~(1 << PD4); // SH_CP 0
    2a4a:	5c 98       	cbi	0x0b, 4	; 11
	if(tempdata & 0x80)PORTD |= (1 << PD2);
    2a4c:	80 91 87 03 	lds	r24, 0x0387	; 0x800387 <tempdata>
    2a50:	90 91 88 03 	lds	r25, 0x0388	; 0x800388 <tempdata+0x1>
    2a54:	a0 91 89 03 	lds	r26, 0x0389	; 0x800389 <tempdata+0x2>
    2a58:	b0 91 8a 03 	lds	r27, 0x038A	; 0x80038a <tempdata+0x3>
    2a5c:	87 ff       	sbrs	r24, 7
    2a5e:	02 c0       	rjmp	.+4      	; 0x2a64 <registr+0x176>
    2a60:	5a 9a       	sbi	0x0b, 2	; 11
    2a62:	01 c0       	rjmp	.+2      	; 0x2a66 <registr+0x178>
	else PORTD &= ~(1 << PD2);
    2a64:	5a 98       	cbi	0x0b, 2	; 11
	PORTD |= (1 << PD4); // SH_CP 1
    2a66:	5c 9a       	sbi	0x0b, 4	; 11
	PORTD &= ~(1 << PD4); // SH_CP 0
    2a68:	5c 98       	cbi	0x0b, 4	; 11
	if(tempdata & 0x40)PORTD |= (1 << PD2);
    2a6a:	80 91 87 03 	lds	r24, 0x0387	; 0x800387 <tempdata>
    2a6e:	90 91 88 03 	lds	r25, 0x0388	; 0x800388 <tempdata+0x1>
    2a72:	a0 91 89 03 	lds	r26, 0x0389	; 0x800389 <tempdata+0x2>
    2a76:	b0 91 8a 03 	lds	r27, 0x038A	; 0x80038a <tempdata+0x3>
    2a7a:	86 ff       	sbrs	r24, 6
    2a7c:	02 c0       	rjmp	.+4      	; 0x2a82 <registr+0x194>
    2a7e:	5a 9a       	sbi	0x0b, 2	; 11
    2a80:	01 c0       	rjmp	.+2      	; 0x2a84 <registr+0x196>
	else PORTD &= ~(1 << PD2);
    2a82:	5a 98       	cbi	0x0b, 2	; 11
	PORTD |= (1 << PD4); // SH_CP 1
    2a84:	5c 9a       	sbi	0x0b, 4	; 11
	PORTD &= ~(1 << PD4); // SH_CP 0
    2a86:	5c 98       	cbi	0x0b, 4	; 11
	if(tempdata & 0x20)PORTD |= (1 << PD2);
    2a88:	80 91 87 03 	lds	r24, 0x0387	; 0x800387 <tempdata>
    2a8c:	90 91 88 03 	lds	r25, 0x0388	; 0x800388 <tempdata+0x1>
    2a90:	a0 91 89 03 	lds	r26, 0x0389	; 0x800389 <tempdata+0x2>
    2a94:	b0 91 8a 03 	lds	r27, 0x038A	; 0x80038a <tempdata+0x3>
    2a98:	85 ff       	sbrs	r24, 5
    2a9a:	02 c0       	rjmp	.+4      	; 0x2aa0 <registr+0x1b2>
    2a9c:	5a 9a       	sbi	0x0b, 2	; 11
    2a9e:	01 c0       	rjmp	.+2      	; 0x2aa2 <registr+0x1b4>
	else PORTD &= ~(1 << PD2);
    2aa0:	5a 98       	cbi	0x0b, 2	; 11
	PORTD |= (1 << PD4); // SH_CP 1
    2aa2:	5c 9a       	sbi	0x0b, 4	; 11
	PORTD &= ~(1 << PD4); // SH_CP 0
    2aa4:	5c 98       	cbi	0x0b, 4	; 11
	if(tempdata & 0x10)PORTD |= (1 << PD2);
    2aa6:	80 91 87 03 	lds	r24, 0x0387	; 0x800387 <tempdata>
    2aaa:	90 91 88 03 	lds	r25, 0x0388	; 0x800388 <tempdata+0x1>
    2aae:	a0 91 89 03 	lds	r26, 0x0389	; 0x800389 <tempdata+0x2>
    2ab2:	b0 91 8a 03 	lds	r27, 0x038A	; 0x80038a <tempdata+0x3>
    2ab6:	84 ff       	sbrs	r24, 4
    2ab8:	02 c0       	rjmp	.+4      	; 0x2abe <registr+0x1d0>
    2aba:	5a 9a       	sbi	0x0b, 2	; 11
    2abc:	01 c0       	rjmp	.+2      	; 0x2ac0 <registr+0x1d2>
	else PORTD &= ~(1 << PD2);
    2abe:	5a 98       	cbi	0x0b, 2	; 11
	PORTD |= (1 << PD4); // SH_CP 1
    2ac0:	5c 9a       	sbi	0x0b, 4	; 11
	PORTD &= ~(1 << PD4); // SH_CP 0
    2ac2:	5c 98       	cbi	0x0b, 4	; 11
	if(tempdata & 0x08)PORTD |= (1 << PD2);
    2ac4:	80 91 87 03 	lds	r24, 0x0387	; 0x800387 <tempdata>
    2ac8:	90 91 88 03 	lds	r25, 0x0388	; 0x800388 <tempdata+0x1>
    2acc:	a0 91 89 03 	lds	r26, 0x0389	; 0x800389 <tempdata+0x2>
    2ad0:	b0 91 8a 03 	lds	r27, 0x038A	; 0x80038a <tempdata+0x3>
    2ad4:	83 ff       	sbrs	r24, 3
    2ad6:	02 c0       	rjmp	.+4      	; 0x2adc <registr+0x1ee>
    2ad8:	5a 9a       	sbi	0x0b, 2	; 11
    2ada:	01 c0       	rjmp	.+2      	; 0x2ade <registr+0x1f0>
	else PORTD &= ~(1 << PD2);
    2adc:	5a 98       	cbi	0x0b, 2	; 11
	PORTD |= (1 << PD4); // SH_CP 1
    2ade:	5c 9a       	sbi	0x0b, 4	; 11
	PORTD &= ~(1 << PD4); // SH_CP 0
    2ae0:	5c 98       	cbi	0x0b, 4	; 11
	if(tempdata & 0x04)PORTD |= (1 << PD2);
    2ae2:	80 91 87 03 	lds	r24, 0x0387	; 0x800387 <tempdata>
    2ae6:	90 91 88 03 	lds	r25, 0x0388	; 0x800388 <tempdata+0x1>
    2aea:	a0 91 89 03 	lds	r26, 0x0389	; 0x800389 <tempdata+0x2>
    2aee:	b0 91 8a 03 	lds	r27, 0x038A	; 0x80038a <tempdata+0x3>
    2af2:	82 ff       	sbrs	r24, 2
    2af4:	02 c0       	rjmp	.+4      	; 0x2afa <registr+0x20c>
    2af6:	5a 9a       	sbi	0x0b, 2	; 11
    2af8:	01 c0       	rjmp	.+2      	; 0x2afc <registr+0x20e>
	else PORTD &= ~(1 << PD2);
    2afa:	5a 98       	cbi	0x0b, 2	; 11
	PORTD |= (1 << PD4); // SH_CP 1
    2afc:	5c 9a       	sbi	0x0b, 4	; 11
	PORTD &= ~(1 << PD4); // SH_CP 0
    2afe:	5c 98       	cbi	0x0b, 4	; 11
	if(tempdata & 0x02)PORTD |= (1 << PD2);
    2b00:	80 91 87 03 	lds	r24, 0x0387	; 0x800387 <tempdata>
    2b04:	90 91 88 03 	lds	r25, 0x0388	; 0x800388 <tempdata+0x1>
    2b08:	a0 91 89 03 	lds	r26, 0x0389	; 0x800389 <tempdata+0x2>
    2b0c:	b0 91 8a 03 	lds	r27, 0x038A	; 0x80038a <tempdata+0x3>
    2b10:	81 ff       	sbrs	r24, 1
    2b12:	02 c0       	rjmp	.+4      	; 0x2b18 <registr+0x22a>
    2b14:	5a 9a       	sbi	0x0b, 2	; 11
    2b16:	01 c0       	rjmp	.+2      	; 0x2b1a <registr+0x22c>
	else PORTD &= ~(1 << PD2);
    2b18:	5a 98       	cbi	0x0b, 2	; 11
	PORTD |= (1 << PD4); // SH_CP 1
    2b1a:	5c 9a       	sbi	0x0b, 4	; 11
	PORTD &= ~(1 << PD4); // SH_CP 0
    2b1c:	5c 98       	cbi	0x0b, 4	; 11
	if(tempdata & 0x01)PORTD |= (1 << PD2);
    2b1e:	80 91 87 03 	lds	r24, 0x0387	; 0x800387 <tempdata>
    2b22:	90 91 88 03 	lds	r25, 0x0388	; 0x800388 <tempdata+0x1>
    2b26:	a0 91 89 03 	lds	r26, 0x0389	; 0x800389 <tempdata+0x2>
    2b2a:	b0 91 8a 03 	lds	r27, 0x038A	; 0x80038a <tempdata+0x3>
    2b2e:	80 ff       	sbrs	r24, 0
    2b30:	02 c0       	rjmp	.+4      	; 0x2b36 <registr+0x248>
    2b32:	5a 9a       	sbi	0x0b, 2	; 11
    2b34:	01 c0       	rjmp	.+2      	; 0x2b38 <registr+0x24a>
	else PORTD &= ~(1 << PD2);
    2b36:	5a 98       	cbi	0x0b, 2	; 11
	PORTD |= (1 << PD4); // SH_CP 1
    2b38:	5c 9a       	sbi	0x0b, 4	; 11
	PORTD |= (1 << PD3); // ST_CP 1
    2b3a:	5b 9a       	sbi	0x0b, 3	; 11
}
    2b3c:	1f 91       	pop	r17
    2b3e:	0f 91       	pop	r16
    2b40:	08 95       	ret

00002b42 <ServiceMenu>:
#include "Inputs.h"
#include "Registr.h"
#include "LCD.h"
#include "ADConverter.h"
int menu_t=0;
void ServiceMenu () {
    2b42:	cf 92       	push	r12
    2b44:	df 92       	push	r13
    2b46:	ef 92       	push	r14
    2b48:	ff 92       	push	r15
    
	// Сервисный режим
	if ((PINB & 0b0100000)  && flag1==0 && regim==3) //Кнопка нажата
    2b4a:	1d 9b       	sbis	0x03, 5	; 3
    2b4c:	48 c0       	rjmp	.+144    	; 0x2bde <ServiceMenu+0x9c>
    2b4e:	80 91 fd 03 	lds	r24, 0x03FD	; 0x8003fd <flag1>
    2b52:	81 11       	cpse	r24, r1
    2b54:	44 c0       	rjmp	.+136    	; 0x2bde <ServiceMenu+0x9c>
    2b56:	80 91 9e 05 	lds	r24, 0x059E	; 0x80059e <regim>
    2b5a:	83 30       	cpi	r24, 0x03	; 3
    2b5c:	11 f0       	breq	.+4      	; 0x2b62 <ServiceMenu+0x20>
    2b5e:	0c 94 f9 21 	jmp	0x43f2	; 0x43f2 <ServiceMenu+0x18b0>
	{
		J1;
    2b62:	41 e0       	ldi	r20, 0x01	; 1
    2b64:	60 e0       	ldi	r22, 0x00	; 0
    2b66:	70 e8       	ldi	r23, 0x80	; 128
    2b68:	80 e0       	ldi	r24, 0x00	; 0
    2b6a:	90 e0       	ldi	r25, 0x00	; 0
    2b6c:	0e 94 77 14 	call	0x28ee	; 0x28ee <registr>
	    timer_M=timing;
    2b70:	80 91 89 05 	lds	r24, 0x0589	; 0x800589 <timing>
    2b74:	90 91 8a 05 	lds	r25, 0x058A	; 0x80058a <timing+0x1>
    2b78:	90 93 04 04 	sts	0x0404, r25	; 0x800404 <timer_M+0x1>
    2b7c:	80 93 03 04 	sts	0x0403, r24	; 0x800403 <timer_M>
		service++;
    2b80:	80 91 9f 05 	lds	r24, 0x059F	; 0x80059f <service>
    2b84:	8f 5f       	subi	r24, 0xFF	; 255
    2b86:	80 93 9f 05 	sts	0x059F, r24	; 0x80059f <service>
		flag1 =1;
    2b8a:	81 e0       	ldi	r24, 0x01	; 1
    2b8c:	80 93 fd 03 	sts	0x03FD, r24	; 0x8003fd <flag1>
    2b90:	2f ef       	ldi	r18, 0xFF	; 255
    2b92:	30 e7       	ldi	r19, 0x70	; 112
    2b94:	82 e0       	ldi	r24, 0x02	; 2
    2b96:	21 50       	subi	r18, 0x01	; 1
    2b98:	30 40       	sbci	r19, 0x00	; 0
    2b9a:	80 40       	sbci	r24, 0x00	; 0
    2b9c:	e1 f7       	brne	.-8      	; 0x2b96 <ServiceMenu+0x54>
    2b9e:	00 c0       	rjmp	.+0      	; 0x2ba0 <ServiceMenu+0x5e>
    2ba0:	00 00       	nop
		_delay_ms(50);
		lcd_gotoxy(0, 1); // Выводим строки на LCD
    2ba2:	60 e0       	ldi	r22, 0x00	; 0
    2ba4:	80 ec       	ldi	r24, 0xC0	; 192
    2ba6:	0e 94 47 05 	call	0xa8e	; 0xa8e <write_to_lcd>
		lcd_puts("                ");
    2baa:	88 e0       	ldi	r24, 0x08	; 8
    2bac:	92 e0       	ldi	r25, 0x02	; 2
    2bae:	0e 94 1d 06 	call	0xc3a	; 0xc3a <lcd_puts>
		if(service>10)
    2bb2:	80 91 9f 05 	lds	r24, 0x059F	; 0x80059f <service>
    2bb6:	8b 30       	cpi	r24, 0x0B	; 11
    2bb8:	28 f0       	brcs	.+10     	; 0x2bc4 <ServiceMenu+0x82>
		{
			regim=3;
    2bba:	83 e0       	ldi	r24, 0x03	; 3
    2bbc:	80 93 9e 05 	sts	0x059E, r24	; 0x80059e <regim>
			service=0;
    2bc0:	10 92 9f 05 	sts	0x059F, r1	; 0x80059f <service>
		}
		EEPROM_write(0x00, service);
    2bc4:	60 91 9f 05 	lds	r22, 0x059F	; 0x80059f <service>
    2bc8:	80 e0       	ldi	r24, 0x00	; 0
    2bca:	90 e0       	ldi	r25, 0x00	; 0
    2bcc:	0e 94 7e 04 	call	0x8fc	; 0x8fc <EEPROM_write>
		J0;
    2bd0:	40 e0       	ldi	r20, 0x00	; 0
    2bd2:	60 e0       	ldi	r22, 0x00	; 0
    2bd4:	70 e8       	ldi	r23, 0x80	; 128
    2bd6:	80 e0       	ldi	r24, 0x00	; 0
    2bd8:	90 e0       	ldi	r25, 0x00	; 0
    2bda:	0e 94 77 14 	call	0x28ee	; 0x28ee <registr>
	}
	
	if ((PINB & 0b0100000)  && flag1==1){
    2bde:	1d 9b       	sbis	0x03, 5	; 3
    2be0:	39 c0       	rjmp	.+114    	; 0x2c54 <ServiceMenu+0x112>
    2be2:	80 91 fd 03 	lds	r24, 0x03FD	; 0x8003fd <flag1>
    2be6:	81 30       	cpi	r24, 0x01	; 1
    2be8:	11 f0       	breq	.+4      	; 0x2bee <ServiceMenu+0xac>
    2bea:	0c 94 f2 21 	jmp	0x43e4	; 0x43e4 <ServiceMenu+0x18a2>
		menu_t=timing-timer_M;
    2bee:	80 91 89 05 	lds	r24, 0x0589	; 0x800589 <timing>
    2bf2:	90 91 8a 05 	lds	r25, 0x058A	; 0x80058a <timing+0x1>
    2bf6:	20 91 03 04 	lds	r18, 0x0403	; 0x800403 <timer_M>
    2bfa:	30 91 04 04 	lds	r19, 0x0404	; 0x800404 <timer_M+0x1>
    2bfe:	82 1b       	sub	r24, r18
    2c00:	93 0b       	sbc	r25, r19
    2c02:	90 93 8c 03 	sts	0x038C, r25	; 0x80038c <menu_t+0x1>
    2c06:	80 93 8b 03 	sts	0x038B, r24	; 0x80038b <menu_t>
		
		if(menu_t>4000){
    2c0a:	81 3a       	cpi	r24, 0xA1	; 161
    2c0c:	9f 40       	sbci	r25, 0x0F	; 15
    2c0e:	14 f4       	brge	.+4      	; 0x2c14 <ServiceMenu+0xd2>
    2c10:	0c 94 ec 21 	jmp	0x43d8	; 0x43d8 <ServiceMenu+0x1896>
			J1;
    2c14:	41 e0       	ldi	r20, 0x01	; 1
    2c16:	60 e0       	ldi	r22, 0x00	; 0
    2c18:	70 e8       	ldi	r23, 0x80	; 128
    2c1a:	80 e0       	ldi	r24, 0x00	; 0
    2c1c:	90 e0       	ldi	r25, 0x00	; 0
    2c1e:	0e 94 77 14 	call	0x28ee	; 0x28ee <registr>
			timer_M=timing;
    2c22:	80 91 89 05 	lds	r24, 0x0589	; 0x800589 <timing>
    2c26:	90 91 8a 05 	lds	r25, 0x058A	; 0x80058a <timing+0x1>
    2c2a:	90 93 04 04 	sts	0x0404, r25	; 0x800404 <timer_M+0x1>
    2c2e:	80 93 03 04 	sts	0x0403, r24	; 0x800403 <timer_M>
			regim=3;
    2c32:	83 e0       	ldi	r24, 0x03	; 3
    2c34:	80 93 9e 05 	sts	0x059E, r24	; 0x80059e <regim>
			service=0;
    2c38:	10 92 9f 05 	sts	0x059F, r1	; 0x80059f <service>
			EEPROM_write(0x00, service);
    2c3c:	60 e0       	ldi	r22, 0x00	; 0
    2c3e:	80 e0       	ldi	r24, 0x00	; 0
    2c40:	90 e0       	ldi	r25, 0x00	; 0
    2c42:	0e 94 7e 04 	call	0x8fc	; 0x8fc <EEPROM_write>
			J0;
    2c46:	40 e0       	ldi	r20, 0x00	; 0
    2c48:	60 e0       	ldi	r22, 0x00	; 0
    2c4a:	70 e8       	ldi	r23, 0x80	; 128
    2c4c:	80 e0       	ldi	r24, 0x00	; 0
    2c4e:	90 e0       	ldi	r25, 0x00	; 0
    2c50:	0e 94 77 14 	call	0x28ee	; 0x28ee <registr>
		}
	}
	
	
	if (!(PINB & 0b0100000) && flag1==1  && regim==3  ) //Кнопка отпущена
    2c54:	1d 99       	sbic	0x03, 5	; 3
    2c56:	13 c0       	rjmp	.+38     	; 0x2c7e <ServiceMenu+0x13c>
    2c58:	80 91 fd 03 	lds	r24, 0x03FD	; 0x8003fd <flag1>
    2c5c:	81 30       	cpi	r24, 0x01	; 1
    2c5e:	79 f4       	brne	.+30     	; 0x2c7e <ServiceMenu+0x13c>
    2c60:	80 91 9e 05 	lds	r24, 0x059E	; 0x80059e <regim>
    2c64:	83 30       	cpi	r24, 0x03	; 3
    2c66:	59 f4       	brne	.+22     	; 0x2c7e <ServiceMenu+0x13c>
	{
		flag1=0;
    2c68:	10 92 fd 03 	sts	0x03FD, r1	; 0x8003fd <flag1>
    2c6c:	3f ef       	ldi	r19, 0xFF	; 255
    2c6e:	89 ef       	ldi	r24, 0xF9	; 249
    2c70:	90 e0       	ldi	r25, 0x00	; 0
    2c72:	31 50       	subi	r19, 0x01	; 1
    2c74:	80 40       	sbci	r24, 0x00	; 0
    2c76:	90 40       	sbci	r25, 0x00	; 0
    2c78:	e1 f7       	brne	.-8      	; 0x2c72 <ServiceMenu+0x130>
    2c7a:	00 c0       	rjmp	.+0      	; 0x2c7c <ServiceMenu+0x13a>
    2c7c:	00 00       	nop
		_delay_ms(20);
	}
	
	if(service==1)
    2c7e:	80 91 9f 05 	lds	r24, 0x059F	; 0x80059f <service>
    2c82:	81 30       	cpi	r24, 0x01	; 1
    2c84:	09 f0       	breq	.+2      	; 0x2c88 <ServiceMenu+0x146>
    2c86:	fd c0       	rjmp	.+506    	; 0x2e82 <ServiceMenu+0x340>
	
	{
		lcd_gotoxy(0, 0); // Выводим строки на LCD
    2c88:	60 e0       	ldi	r22, 0x00	; 0
    2c8a:	80 e8       	ldi	r24, 0x80	; 128
    2c8c:	0e 94 47 05 	call	0xa8e	; 0xa8e <write_to_lcd>
		lcd_puts("Oїє»oЅeЅёe(   V)");//Отклонение амплитуд
    2c90:	89 e1       	ldi	r24, 0x19	; 25
    2c92:	92 e0       	ldi	r25, 0x02	; 2
    2c94:	0e 94 1d 06 	call	0xc3a	; 0xc3a <lcd_puts>
		
		w =(w_curr -512)/1.414213*1.16;
    2c98:	60 91 31 04 	lds	r22, 0x0431	; 0x800431 <w_curr>
    2c9c:	70 91 32 04 	lds	r23, 0x0432	; 0x800432 <w_curr+0x1>
    2ca0:	72 50       	subi	r23, 0x02	; 2
    2ca2:	07 2e       	mov	r0, r23
    2ca4:	00 0c       	add	r0, r0
    2ca6:	88 0b       	sbc	r24, r24
    2ca8:	99 0b       	sbc	r25, r25
    2caa:	0e 94 e7 27 	call	0x4fce	; 0x4fce <__floatsisf>
    2cae:	2e ee       	ldi	r18, 0xEE	; 238
    2cb0:	34 e0       	ldi	r19, 0x04	; 4
    2cb2:	45 eb       	ldi	r20, 0xB5	; 181
    2cb4:	5f e3       	ldi	r21, 0x3F	; 63
    2cb6:	0e 94 3d 27 	call	0x4e7a	; 0x4e7a <__divsf3>
    2cba:	21 ee       	ldi	r18, 0xE1	; 225
    2cbc:	3a e7       	ldi	r19, 0x7A	; 122
    2cbe:	44 e9       	ldi	r20, 0x94	; 148
    2cc0:	5f e3       	ldi	r21, 0x3F	; 63
    2cc2:	0e 94 9c 28 	call	0x5138	; 0x5138 <__mulsf3>
    2cc6:	0e 94 af 27 	call	0x4f5e	; 0x4f5e <__fixsfsi>
    2cca:	70 93 c2 03 	sts	0x03C2, r23	; 0x8003c2 <w+0x1>
    2cce:	60 93 c1 03 	sts	0x03C1, r22	; 0x8003c1 <w>
		lcd_gotoxy(11, 0);
    2cd2:	60 e0       	ldi	r22, 0x00	; 0
    2cd4:	8b e8       	ldi	r24, 0x8B	; 139
    2cd6:	0e 94 47 05 	call	0xa8e	; 0xa8e <write_to_lcd>
		lcd_num_to_str(w, 3); // Выводим данные АЦП3 на LCD
    2cda:	63 e0       	ldi	r22, 0x03	; 3
    2cdc:	80 91 c1 03 	lds	r24, 0x03C1	; 0x8003c1 <w>
    2ce0:	90 91 c2 03 	lds	r25, 0x03C2	; 0x8003c2 <w+0x1>
    2ce4:	0e 94 34 06 	call	0xc68	; 0xc68 <lcd_num_to_str>
		lcd_gotoxy(0, 1);
    2ce8:	60 e0       	ldi	r22, 0x00	; 0
    2cea:	80 ec       	ldi	r24, 0xC0	; 192
    2cec:	0e 94 47 05 	call	0xa8e	; 0xa8e <write_to_lcd>
		lcd_puts("aјѕ»ёїyг,B+/-");
    2cf0:	8a e2       	ldi	r24, 0x2A	; 42
    2cf2:	92 e0       	ldi	r25, 0x02	; 2
    2cf4:	0e 94 1d 06 	call	0xc3a	; 0xc3a <lcd_puts>
		lcd_gotoxy(14, 1);
    2cf8:	60 e0       	ldi	r22, 0x00	; 0
    2cfa:	8e ec       	ldi	r24, 0xCE	; 206
    2cfc:	0e 94 47 05 	call	0xa8e	; 0xa8e <write_to_lcd>
		lcd_num_to_str(k/10, 1);
    2d00:	80 91 00 01 	lds	r24, 0x0100	; 0x800100 <__data_start>
    2d04:	90 91 01 01 	lds	r25, 0x0101	; 0x800101 <__data_start+0x1>
    2d08:	6a e0       	ldi	r22, 0x0A	; 10
    2d0a:	70 e0       	ldi	r23, 0x00	; 0
    2d0c:	0e 94 57 26 	call	0x4cae	; 0x4cae <__divmodhi4>
    2d10:	cb 01       	movw	r24, r22
    2d12:	61 e0       	ldi	r22, 0x01	; 1
    2d14:	0e 94 34 06 	call	0xc68	; 0xc68 <lcd_num_to_str>
		lcd_gotoxy(15, 1);
    2d18:	60 e0       	ldi	r22, 0x00	; 0
    2d1a:	8f ec       	ldi	r24, 0xCF	; 207
    2d1c:	0e 94 47 05 	call	0xa8e	; 0xa8e <write_to_lcd>
		lcd_num_to_str(k%100, 1);
    2d20:	80 91 00 01 	lds	r24, 0x0100	; 0x800100 <__data_start>
    2d24:	90 91 01 01 	lds	r25, 0x0101	; 0x800101 <__data_start+0x1>
    2d28:	64 e6       	ldi	r22, 0x64	; 100
    2d2a:	70 e0       	ldi	r23, 0x00	; 0
    2d2c:	0e 94 57 26 	call	0x4cae	; 0x4cae <__divmodhi4>
    2d30:	61 e0       	ldi	r22, 0x01	; 1
    2d32:	0e 94 34 06 	call	0xc68	; 0xc68 <lcd_num_to_str>
		
		if ((!(PINB & 0b001000))&&(flag2==0) )//кнопка выбора значения нажата
    2d36:	1b 99       	sbic	0x03, 3	; 3
    2d38:	35 c0       	rjmp	.+106    	; 0x2da4 <ServiceMenu+0x262>
    2d3a:	80 91 ce 03 	lds	r24, 0x03CE	; 0x8003ce <flag2>
    2d3e:	81 11       	cpse	r24, r1
    2d40:	31 c0       	rjmp	.+98     	; 0x2da4 <ServiceMenu+0x262>
		{    J1;
    2d42:	41 e0       	ldi	r20, 0x01	; 1
    2d44:	60 e0       	ldi	r22, 0x00	; 0
    2d46:	70 e8       	ldi	r23, 0x80	; 128
    2d48:	80 e0       	ldi	r24, 0x00	; 0
    2d4a:	90 e0       	ldi	r25, 0x00	; 0
    2d4c:	0e 94 77 14 	call	0x28ee	; 0x28ee <registr>
			k=k+2;
    2d50:	80 91 00 01 	lds	r24, 0x0100	; 0x800100 <__data_start>
    2d54:	90 91 01 01 	lds	r25, 0x0101	; 0x800101 <__data_start+0x1>
    2d58:	02 96       	adiw	r24, 0x02	; 2
			if(k>40)
    2d5a:	89 32       	cpi	r24, 0x29	; 41
    2d5c:	91 05       	cpc	r25, r1
    2d5e:	2c f4       	brge	.+10     	; 0x2d6a <ServiceMenu+0x228>
		lcd_gotoxy(15, 1);
		lcd_num_to_str(k%100, 1);
		
		if ((!(PINB & 0b001000))&&(flag2==0) )//кнопка выбора значения нажата
		{    J1;
			k=k+2;
    2d60:	90 93 01 01 	sts	0x0101, r25	; 0x800101 <__data_start+0x1>
    2d64:	80 93 00 01 	sts	0x0100, r24	; 0x800100 <__data_start>
    2d68:	04 c0       	rjmp	.+8      	; 0x2d72 <ServiceMenu+0x230>
			if(k>40)
			{
				k=0;
    2d6a:	10 92 01 01 	sts	0x0101, r1	; 0x800101 <__data_start+0x1>
    2d6e:	10 92 00 01 	sts	0x0100, r1	; 0x800100 <__data_start>
			}
			flag2=1;
    2d72:	81 e0       	ldi	r24, 0x01	; 1
    2d74:	80 93 ce 03 	sts	0x03CE, r24	; 0x8003ce <flag2>
			EEPROM_write(0x03,k);
    2d78:	60 91 00 01 	lds	r22, 0x0100	; 0x800100 <__data_start>
    2d7c:	83 e0       	ldi	r24, 0x03	; 3
    2d7e:	90 e0       	ldi	r25, 0x00	; 0
    2d80:	0e 94 7e 04 	call	0x8fc	; 0x8fc <EEPROM_write>
    2d84:	2f ef       	ldi	r18, 0xFF	; 255
    2d86:	39 ef       	ldi	r19, 0xF9	; 249
    2d88:	80 e0       	ldi	r24, 0x00	; 0
    2d8a:	21 50       	subi	r18, 0x01	; 1
    2d8c:	30 40       	sbci	r19, 0x00	; 0
    2d8e:	80 40       	sbci	r24, 0x00	; 0
    2d90:	e1 f7       	brne	.-8      	; 0x2d8a <ServiceMenu+0x248>
    2d92:	00 c0       	rjmp	.+0      	; 0x2d94 <ServiceMenu+0x252>
    2d94:	00 00       	nop
			_delay_ms(20);
			J0;
    2d96:	40 e0       	ldi	r20, 0x00	; 0
    2d98:	60 e0       	ldi	r22, 0x00	; 0
    2d9a:	70 e8       	ldi	r23, 0x80	; 128
    2d9c:	80 e0       	ldi	r24, 0x00	; 0
    2d9e:	90 e0       	ldi	r25, 0x00	; 0
    2da0:	0e 94 77 14 	call	0x28ee	; 0x28ee <registr>
		}
		if ((PINB & 0b001000)&&(flag2==1) )
    2da4:	1b 9b       	sbis	0x03, 3	; 3
    2da6:	1a c0       	rjmp	.+52     	; 0x2ddc <ServiceMenu+0x29a>
    2da8:	80 91 ce 03 	lds	r24, 0x03CE	; 0x8003ce <flag2>
    2dac:	81 30       	cpi	r24, 0x01	; 1
    2dae:	b1 f4       	brne	.+44     	; 0x2ddc <ServiceMenu+0x29a>
		{ 
			J1;
    2db0:	41 e0       	ldi	r20, 0x01	; 1
    2db2:	60 e0       	ldi	r22, 0x00	; 0
    2db4:	70 e8       	ldi	r23, 0x80	; 128
    2db6:	80 e0       	ldi	r24, 0x00	; 0
    2db8:	90 e0       	ldi	r25, 0x00	; 0
    2dba:	0e 94 77 14 	call	0x28ee	; 0x28ee <registr>
			flag2=0;
    2dbe:	10 92 ce 03 	sts	0x03CE, r1	; 0x8003ce <flag2>
    2dc2:	8f e3       	ldi	r24, 0x3F	; 63
    2dc4:	9c e9       	ldi	r25, 0x9C	; 156
    2dc6:	01 97       	sbiw	r24, 0x01	; 1
    2dc8:	f1 f7       	brne	.-4      	; 0x2dc6 <ServiceMenu+0x284>
    2dca:	00 c0       	rjmp	.+0      	; 0x2dcc <ServiceMenu+0x28a>
    2dcc:	00 00       	nop
			_delay_ms(10);
			J0;
    2dce:	40 e0       	ldi	r20, 0x00	; 0
    2dd0:	60 e0       	ldi	r22, 0x00	; 0
    2dd2:	70 e8       	ldi	r23, 0x80	; 128
    2dd4:	80 e0       	ldi	r24, 0x00	; 0
    2dd6:	90 e0       	ldi	r25, 0x00	; 0
    2dd8:	0e 94 77 14 	call	0x28ee	; 0x28ee <registr>
		}
//////////////////////////////////////////////////////////////////////////////////////////////////////////
      if ((!(PINB & 0b0010000))&&(flag2==0) )//кнопка выбора значения нажата
    2ddc:	1c 99       	sbic	0x03, 4	; 3
    2dde:	35 c0       	rjmp	.+106    	; 0x2e4a <ServiceMenu+0x308>
    2de0:	80 91 ce 03 	lds	r24, 0x03CE	; 0x8003ce <flag2>
    2de4:	81 11       	cpse	r24, r1
    2de6:	31 c0       	rjmp	.+98     	; 0x2e4a <ServiceMenu+0x308>
		  { 
			J1;
    2de8:	41 e0       	ldi	r20, 0x01	; 1
    2dea:	60 e0       	ldi	r22, 0x00	; 0
    2dec:	70 e8       	ldi	r23, 0x80	; 128
    2dee:	80 e0       	ldi	r24, 0x00	; 0
    2df0:	90 e0       	ldi	r25, 0x00	; 0
    2df2:	0e 94 77 14 	call	0x28ee	; 0x28ee <registr>
			k=k-2;
    2df6:	80 91 00 01 	lds	r24, 0x0100	; 0x800100 <__data_start>
    2dfa:	90 91 01 01 	lds	r25, 0x0101	; 0x800101 <__data_start+0x1>
    2dfe:	02 97       	sbiw	r24, 0x02	; 2
			if(k<0)
    2e00:	2a f0       	brmi	.+10     	; 0x2e0c <ServiceMenu+0x2ca>
		}
//////////////////////////////////////////////////////////////////////////////////////////////////////////
      if ((!(PINB & 0b0010000))&&(flag2==0) )//кнопка выбора значения нажата
		  { 
			J1;
			k=k-2;
    2e02:	90 93 01 01 	sts	0x0101, r25	; 0x800101 <__data_start+0x1>
    2e06:	80 93 00 01 	sts	0x0100, r24	; 0x800100 <__data_start>
    2e0a:	06 c0       	rjmp	.+12     	; 0x2e18 <ServiceMenu+0x2d6>
			if(k<0)
			{
				k=40;
    2e0c:	88 e2       	ldi	r24, 0x28	; 40
    2e0e:	90 e0       	ldi	r25, 0x00	; 0
    2e10:	90 93 01 01 	sts	0x0101, r25	; 0x800101 <__data_start+0x1>
    2e14:	80 93 00 01 	sts	0x0100, r24	; 0x800100 <__data_start>
			}
			flag2=1;
    2e18:	81 e0       	ldi	r24, 0x01	; 1
    2e1a:	80 93 ce 03 	sts	0x03CE, r24	; 0x8003ce <flag2>
			EEPROM_write(0x03,k);
    2e1e:	60 91 00 01 	lds	r22, 0x0100	; 0x800100 <__data_start>
    2e22:	83 e0       	ldi	r24, 0x03	; 3
    2e24:	90 e0       	ldi	r25, 0x00	; 0
    2e26:	0e 94 7e 04 	call	0x8fc	; 0x8fc <EEPROM_write>
    2e2a:	9f ef       	ldi	r25, 0xFF	; 255
    2e2c:	29 ef       	ldi	r18, 0xF9	; 249
    2e2e:	30 e0       	ldi	r19, 0x00	; 0
    2e30:	91 50       	subi	r25, 0x01	; 1
    2e32:	20 40       	sbci	r18, 0x00	; 0
    2e34:	30 40       	sbci	r19, 0x00	; 0
    2e36:	e1 f7       	brne	.-8      	; 0x2e30 <ServiceMenu+0x2ee>
    2e38:	00 c0       	rjmp	.+0      	; 0x2e3a <ServiceMenu+0x2f8>
    2e3a:	00 00       	nop
			_delay_ms(20);
			J0;
    2e3c:	40 e0       	ldi	r20, 0x00	; 0
    2e3e:	60 e0       	ldi	r22, 0x00	; 0
    2e40:	70 e8       	ldi	r23, 0x80	; 128
    2e42:	80 e0       	ldi	r24, 0x00	; 0
    2e44:	90 e0       	ldi	r25, 0x00	; 0
    2e46:	0e 94 77 14 	call	0x28ee	; 0x28ee <registr>
		  }
		
		
		if ((PINB & 0b001000)&&(flag2==1) )
    2e4a:	1b 9b       	sbis	0x03, 3	; 3
    2e4c:	1a c0       	rjmp	.+52     	; 0x2e82 <ServiceMenu+0x340>
    2e4e:	80 91 ce 03 	lds	r24, 0x03CE	; 0x8003ce <flag2>
    2e52:	81 30       	cpi	r24, 0x01	; 1
    2e54:	b1 f4       	brne	.+44     	; 0x2e82 <ServiceMenu+0x340>
		{  
			J1;
    2e56:	41 e0       	ldi	r20, 0x01	; 1
    2e58:	60 e0       	ldi	r22, 0x00	; 0
    2e5a:	70 e8       	ldi	r23, 0x80	; 128
    2e5c:	80 e0       	ldi	r24, 0x00	; 0
    2e5e:	90 e0       	ldi	r25, 0x00	; 0
    2e60:	0e 94 77 14 	call	0x28ee	; 0x28ee <registr>
			flag2=0;
    2e64:	10 92 ce 03 	sts	0x03CE, r1	; 0x8003ce <flag2>
    2e68:	8f e3       	ldi	r24, 0x3F	; 63
    2e6a:	9c e9       	ldi	r25, 0x9C	; 156
    2e6c:	01 97       	sbiw	r24, 0x01	; 1
    2e6e:	f1 f7       	brne	.-4      	; 0x2e6c <ServiceMenu+0x32a>
    2e70:	00 c0       	rjmp	.+0      	; 0x2e72 <ServiceMenu+0x330>
    2e72:	00 00       	nop
			_delay_ms(10);
			J0;
    2e74:	40 e0       	ldi	r20, 0x00	; 0
    2e76:	60 e0       	ldi	r22, 0x00	; 0
    2e78:	70 e8       	ldi	r23, 0x80	; 128
    2e7a:	80 e0       	ldi	r24, 0x00	; 0
    2e7c:	90 e0       	ldi	r25, 0x00	; 0
    2e7e:	0e 94 77 14 	call	0x28ee	; 0x28ee <registr>
		}		
		
	}
///////////////////////////////////////////////////////////////////////////////////////////////////////////////////	
	if(service==2)
    2e82:	80 91 9f 05 	lds	r24, 0x059F	; 0x80059f <service>
    2e86:	82 30       	cpi	r24, 0x02	; 2
    2e88:	09 f0       	breq	.+2      	; 0x2e8c <ServiceMenu+0x34a>
    2e8a:	e6 c0       	rjmp	.+460    	; 0x3058 <ServiceMenu+0x516>
	
	{
		
		lcd_gotoxy(0, 0); // Выводим строки на LCD
    2e8c:	60 e0       	ldi	r22, 0x00	; 0
    2e8e:	80 e8       	ldi	r24, 0x80	; 128
    2e90:	0e 94 47 05 	call	0xa8e	; 0xa8e <write_to_lcd>
		lcd_puts("BpeјЗ іГxoгa    ");//Время выхода на режим
    2e94:	88 e3       	ldi	r24, 0x38	; 56
    2e96:	92 e0       	ldi	r25, 0x02	; 2
    2e98:	0e 94 1d 06 	call	0xc3a	; 0xc3a <lcd_puts>
		lcd_gotoxy(0, 1);
    2e9c:	60 e0       	ldi	r22, 0x00	; 0
    2e9e:	80 ec       	ldi	r24, 0xC0	; 192
    2ea0:	0e 94 47 05 	call	0xa8e	; 0xa8e <write_to_lcd>
		lcd_puts("Ѕa pe¶ёј,");
    2ea4:	89 e4       	ldi	r24, 0x49	; 73
    2ea6:	92 e0       	ldi	r25, 0x02	; 2
    2ea8:	0e 94 1d 06 	call	0xc3a	; 0xc3a <lcd_puts>
		lcd_gotoxy(12,1);
    2eac:	60 e0       	ldi	r22, 0x00	; 0
    2eae:	8c ec       	ldi	r24, 0xCC	; 204
    2eb0:	0e 94 47 05 	call	0xa8e	; 0xa8e <write_to_lcd>
		lcd_puts("ceє.");
    2eb4:	83 e5       	ldi	r24, 0x53	; 83
    2eb6:	92 e0       	ldi	r25, 0x02	; 2
    2eb8:	0e 94 1d 06 	call	0xc3a	; 0xc3a <lcd_puts>
		
		
		interval=EEPROM_read(0x02);
    2ebc:	82 e0       	ldi	r24, 0x02	; 2
    2ebe:	90 e0       	ldi	r25, 0x00	; 0
    2ec0:	0e 94 86 04 	call	0x90c	; 0x90c <EEPROM_read>
    2ec4:	90 e0       	ldi	r25, 0x00	; 0
    2ec6:	90 93 25 04 	sts	0x0425, r25	; 0x800425 <interval+0x1>
    2eca:	80 93 24 04 	sts	0x0424, r24	; 0x800424 <interval>
		lcd_gotoxy(10, 1);
    2ece:	60 e0       	ldi	r22, 0x00	; 0
    2ed0:	8a ec       	ldi	r24, 0xCA	; 202
    2ed2:	0e 94 47 05 	call	0xa8e	; 0xa8e <write_to_lcd>
		lcd_num_to_str(interval/10, 1); // Выводим данные времени на LCD
    2ed6:	80 91 24 04 	lds	r24, 0x0424	; 0x800424 <interval>
    2eda:	90 91 25 04 	lds	r25, 0x0425	; 0x800425 <interval+0x1>
    2ede:	6a e0       	ldi	r22, 0x0A	; 10
    2ee0:	70 e0       	ldi	r23, 0x00	; 0
    2ee2:	0e 94 57 26 	call	0x4cae	; 0x4cae <__divmodhi4>
    2ee6:	cb 01       	movw	r24, r22
    2ee8:	61 e0       	ldi	r22, 0x01	; 1
    2eea:	0e 94 34 06 	call	0xc68	; 0xc68 <lcd_num_to_str>
		lcd_gotoxy(11, 1);
    2eee:	60 e0       	ldi	r22, 0x00	; 0
    2ef0:	8b ec       	ldi	r24, 0xCB	; 203
    2ef2:	0e 94 47 05 	call	0xa8e	; 0xa8e <write_to_lcd>
		lcd_num_to_str(interval%100, 1);
    2ef6:	80 91 24 04 	lds	r24, 0x0424	; 0x800424 <interval>
    2efa:	90 91 25 04 	lds	r25, 0x0425	; 0x800425 <interval+0x1>
    2efe:	64 e6       	ldi	r22, 0x64	; 100
    2f00:	70 e0       	ldi	r23, 0x00	; 0
    2f02:	0e 94 57 26 	call	0x4cae	; 0x4cae <__divmodhi4>
    2f06:	61 e0       	ldi	r22, 0x01	; 1
    2f08:	0e 94 34 06 	call	0xc68	; 0xc68 <lcd_num_to_str>
		if ((!(PINB & 0b001000))&&(flag2==0) )//кнопка выбора значения нажата
    2f0c:	1b 99       	sbic	0x03, 3	; 3
    2f0e:	35 c0       	rjmp	.+106    	; 0x2f7a <ServiceMenu+0x438>
    2f10:	80 91 ce 03 	lds	r24, 0x03CE	; 0x8003ce <flag2>
    2f14:	81 11       	cpse	r24, r1
    2f16:	31 c0       	rjmp	.+98     	; 0x2f7a <ServiceMenu+0x438>
		{
			J1;
    2f18:	41 e0       	ldi	r20, 0x01	; 1
    2f1a:	60 e0       	ldi	r22, 0x00	; 0
    2f1c:	70 e8       	ldi	r23, 0x80	; 128
    2f1e:	80 e0       	ldi	r24, 0x00	; 0
    2f20:	90 e0       	ldi	r25, 0x00	; 0
    2f22:	0e 94 77 14 	call	0x28ee	; 0x28ee <registr>
			interval=interval+1;
    2f26:	80 91 24 04 	lds	r24, 0x0424	; 0x800424 <interval>
    2f2a:	90 91 25 04 	lds	r25, 0x0425	; 0x800425 <interval+0x1>
    2f2e:	01 96       	adiw	r24, 0x01	; 1
			if(interval>20)
    2f30:	85 31       	cpi	r24, 0x15	; 21
    2f32:	91 05       	cpc	r25, r1
    2f34:	2c f4       	brge	.+10     	; 0x2f40 <ServiceMenu+0x3fe>
		lcd_gotoxy(11, 1);
		lcd_num_to_str(interval%100, 1);
		if ((!(PINB & 0b001000))&&(flag2==0) )//кнопка выбора значения нажата
		{
			J1;
			interval=interval+1;
    2f36:	90 93 25 04 	sts	0x0425, r25	; 0x800425 <interval+0x1>
    2f3a:	80 93 24 04 	sts	0x0424, r24	; 0x800424 <interval>
    2f3e:	04 c0       	rjmp	.+8      	; 0x2f48 <ServiceMenu+0x406>
			if(interval>20)
			{
				interval=0;
    2f40:	10 92 25 04 	sts	0x0425, r1	; 0x800425 <interval+0x1>
    2f44:	10 92 24 04 	sts	0x0424, r1	; 0x800424 <interval>
			}
			flag2=1;
    2f48:	81 e0       	ldi	r24, 0x01	; 1
    2f4a:	80 93 ce 03 	sts	0x03CE, r24	; 0x8003ce <flag2>
			EEPROM_write(0x02,interval);
    2f4e:	60 91 24 04 	lds	r22, 0x0424	; 0x800424 <interval>
    2f52:	82 e0       	ldi	r24, 0x02	; 2
    2f54:	90 e0       	ldi	r25, 0x00	; 0
    2f56:	0e 94 7e 04 	call	0x8fc	; 0x8fc <EEPROM_write>
    2f5a:	9f ef       	ldi	r25, 0xFF	; 255
    2f5c:	29 ef       	ldi	r18, 0xF9	; 249
    2f5e:	30 e0       	ldi	r19, 0x00	; 0
    2f60:	91 50       	subi	r25, 0x01	; 1
    2f62:	20 40       	sbci	r18, 0x00	; 0
    2f64:	30 40       	sbci	r19, 0x00	; 0
    2f66:	e1 f7       	brne	.-8      	; 0x2f60 <ServiceMenu+0x41e>
    2f68:	00 c0       	rjmp	.+0      	; 0x2f6a <ServiceMenu+0x428>
    2f6a:	00 00       	nop
			
			_delay_ms(20);
			J0;
    2f6c:	40 e0       	ldi	r20, 0x00	; 0
    2f6e:	60 e0       	ldi	r22, 0x00	; 0
    2f70:	70 e8       	ldi	r23, 0x80	; 128
    2f72:	80 e0       	ldi	r24, 0x00	; 0
    2f74:	90 e0       	ldi	r25, 0x00	; 0
    2f76:	0e 94 77 14 	call	0x28ee	; 0x28ee <registr>
		}
		if ((PINB & 0b001000)&&(flag2==1) )
    2f7a:	1b 9b       	sbis	0x03, 3	; 3
    2f7c:	1a c0       	rjmp	.+52     	; 0x2fb2 <ServiceMenu+0x470>
    2f7e:	80 91 ce 03 	lds	r24, 0x03CE	; 0x8003ce <flag2>
    2f82:	81 30       	cpi	r24, 0x01	; 1
    2f84:	b1 f4       	brne	.+44     	; 0x2fb2 <ServiceMenu+0x470>
		{
			flag2=0;
    2f86:	10 92 ce 03 	sts	0x03CE, r1	; 0x8003ce <flag2>
			J1;
    2f8a:	41 e0       	ldi	r20, 0x01	; 1
    2f8c:	60 e0       	ldi	r22, 0x00	; 0
    2f8e:	70 e8       	ldi	r23, 0x80	; 128
    2f90:	80 e0       	ldi	r24, 0x00	; 0
    2f92:	90 e0       	ldi	r25, 0x00	; 0
    2f94:	0e 94 77 14 	call	0x28ee	; 0x28ee <registr>
    2f98:	8f e3       	ldi	r24, 0x3F	; 63
    2f9a:	9c e9       	ldi	r25, 0x9C	; 156
    2f9c:	01 97       	sbiw	r24, 0x01	; 1
    2f9e:	f1 f7       	brne	.-4      	; 0x2f9c <ServiceMenu+0x45a>
    2fa0:	00 c0       	rjmp	.+0      	; 0x2fa2 <ServiceMenu+0x460>
    2fa2:	00 00       	nop
			_delay_ms(10);
			J0;
    2fa4:	40 e0       	ldi	r20, 0x00	; 0
    2fa6:	60 e0       	ldi	r22, 0x00	; 0
    2fa8:	70 e8       	ldi	r23, 0x80	; 128
    2faa:	80 e0       	ldi	r24, 0x00	; 0
    2fac:	90 e0       	ldi	r25, 0x00	; 0
    2fae:	0e 94 77 14 	call	0x28ee	; 0x28ee <registr>
		}
//////////////////////////////////////////////////////////////////////////////////////////////////////////		
		if ((!(PINB & 0b0010000))&&(flag2==0) )//кнопка выбора значения нажата
    2fb2:	1c 99       	sbic	0x03, 4	; 3
    2fb4:	35 c0       	rjmp	.+106    	; 0x3020 <ServiceMenu+0x4de>
    2fb6:	80 91 ce 03 	lds	r24, 0x03CE	; 0x8003ce <flag2>
    2fba:	81 11       	cpse	r24, r1
    2fbc:	31 c0       	rjmp	.+98     	; 0x3020 <ServiceMenu+0x4de>
		{
			J1;
    2fbe:	41 e0       	ldi	r20, 0x01	; 1
    2fc0:	60 e0       	ldi	r22, 0x00	; 0
    2fc2:	70 e8       	ldi	r23, 0x80	; 128
    2fc4:	80 e0       	ldi	r24, 0x00	; 0
    2fc6:	90 e0       	ldi	r25, 0x00	; 0
    2fc8:	0e 94 77 14 	call	0x28ee	; 0x28ee <registr>
			interval=interval-1;
    2fcc:	80 91 24 04 	lds	r24, 0x0424	; 0x800424 <interval>
    2fd0:	90 91 25 04 	lds	r25, 0x0425	; 0x800425 <interval+0x1>
    2fd4:	01 97       	sbiw	r24, 0x01	; 1
			if(interval<0)
    2fd6:	2a f0       	brmi	.+10     	; 0x2fe2 <ServiceMenu+0x4a0>
		}
//////////////////////////////////////////////////////////////////////////////////////////////////////////		
		if ((!(PINB & 0b0010000))&&(flag2==0) )//кнопка выбора значения нажата
		{
			J1;
			interval=interval-1;
    2fd8:	90 93 25 04 	sts	0x0425, r25	; 0x800425 <interval+0x1>
    2fdc:	80 93 24 04 	sts	0x0424, r24	; 0x800424 <interval>
    2fe0:	06 c0       	rjmp	.+12     	; 0x2fee <ServiceMenu+0x4ac>
			if(interval<0)
			{
				interval=20;
    2fe2:	84 e1       	ldi	r24, 0x14	; 20
    2fe4:	90 e0       	ldi	r25, 0x00	; 0
    2fe6:	90 93 25 04 	sts	0x0425, r25	; 0x800425 <interval+0x1>
    2fea:	80 93 24 04 	sts	0x0424, r24	; 0x800424 <interval>
				
			}
			flag2=1;
    2fee:	81 e0       	ldi	r24, 0x01	; 1
    2ff0:	80 93 ce 03 	sts	0x03CE, r24	; 0x8003ce <flag2>
			EEPROM_write(0x02,interval);
    2ff4:	60 91 24 04 	lds	r22, 0x0424	; 0x800424 <interval>
    2ff8:	82 e0       	ldi	r24, 0x02	; 2
    2ffa:	90 e0       	ldi	r25, 0x00	; 0
    2ffc:	0e 94 7e 04 	call	0x8fc	; 0x8fc <EEPROM_write>
    3000:	9f ef       	ldi	r25, 0xFF	; 255
    3002:	29 ef       	ldi	r18, 0xF9	; 249
    3004:	30 e0       	ldi	r19, 0x00	; 0
    3006:	91 50       	subi	r25, 0x01	; 1
    3008:	20 40       	sbci	r18, 0x00	; 0
    300a:	30 40       	sbci	r19, 0x00	; 0
    300c:	e1 f7       	brne	.-8      	; 0x3006 <ServiceMenu+0x4c4>
    300e:	00 c0       	rjmp	.+0      	; 0x3010 <ServiceMenu+0x4ce>
    3010:	00 00       	nop
			
			_delay_ms(20);
			J0;
    3012:	40 e0       	ldi	r20, 0x00	; 0
    3014:	60 e0       	ldi	r22, 0x00	; 0
    3016:	70 e8       	ldi	r23, 0x80	; 128
    3018:	80 e0       	ldi	r24, 0x00	; 0
    301a:	90 e0       	ldi	r25, 0x00	; 0
    301c:	0e 94 77 14 	call	0x28ee	; 0x28ee <registr>
		}
		if ((PINB & 0b0010000)&&(flag2==1) )
    3020:	1c 9b       	sbis	0x03, 4	; 3
    3022:	1a c0       	rjmp	.+52     	; 0x3058 <ServiceMenu+0x516>
    3024:	80 91 ce 03 	lds	r24, 0x03CE	; 0x8003ce <flag2>
    3028:	81 30       	cpi	r24, 0x01	; 1
    302a:	b1 f4       	brne	.+44     	; 0x3058 <ServiceMenu+0x516>
		{
			flag2=0;
    302c:	10 92 ce 03 	sts	0x03CE, r1	; 0x8003ce <flag2>
			J1;
    3030:	41 e0       	ldi	r20, 0x01	; 1
    3032:	60 e0       	ldi	r22, 0x00	; 0
    3034:	70 e8       	ldi	r23, 0x80	; 128
    3036:	80 e0       	ldi	r24, 0x00	; 0
    3038:	90 e0       	ldi	r25, 0x00	; 0
    303a:	0e 94 77 14 	call	0x28ee	; 0x28ee <registr>
    303e:	8f e3       	ldi	r24, 0x3F	; 63
    3040:	9c e9       	ldi	r25, 0x9C	; 156
    3042:	01 97       	sbiw	r24, 0x01	; 1
    3044:	f1 f7       	brne	.-4      	; 0x3042 <ServiceMenu+0x500>
    3046:	00 c0       	rjmp	.+0      	; 0x3048 <ServiceMenu+0x506>
    3048:	00 00       	nop
			_delay_ms(10);
			J0;
    304a:	40 e0       	ldi	r20, 0x00	; 0
    304c:	60 e0       	ldi	r22, 0x00	; 0
    304e:	70 e8       	ldi	r23, 0x80	; 128
    3050:	80 e0       	ldi	r24, 0x00	; 0
    3052:	90 e0       	ldi	r25, 0x00	; 0
    3054:	0e 94 77 14 	call	0x28ee	; 0x28ee <registr>
		
		
		
	}
/////////////////////////////////////////////////////////////////////////////////////////////////////////////	
	if(service==3)
    3058:	80 91 9f 05 	lds	r24, 0x059F	; 0x80059f <service>
    305c:	83 30       	cpi	r24, 0x03	; 3
    305e:	09 f0       	breq	.+2      	; 0x3062 <ServiceMenu+0x520>
    3060:	c1 c0       	rjmp	.+386    	; 0x31e4 <ServiceMenu+0x6a2>
	
	{
		lcd_gotoxy(0, 0); // Выводим строки на LCD
    3062:	60 e0       	ldi	r22, 0x00	; 0
    3064:	80 e8       	ldi	r24, 0x80	; 128
    3066:	0e 94 47 05 	call	0xa8e	; 0xa8e <write_to_lcd>
		lcd_puts("Tёѕ гaїАёєa -PS");
    306a:	88 e5       	ldi	r24, 0x58	; 88
    306c:	92 e0       	ldi	r25, 0x02	; 2
    306e:	0e 94 1d 06 	call	0xc3a	; 0xc3a <lcd_puts>
		preasure=read_adc(1); //Чтение состояния входа датчик PS
    3072:	81 e0       	ldi	r24, 0x01	; 1
    3074:	0e 94 e2 00 	call	0x1c4	; 0x1c4 <read_adc>
    3078:	90 93 81 03 	sts	0x0381, r25	; 0x800381 <preasure+0x1>
    307c:	80 93 80 03 	sts	0x0380, r24	; 0x800380 <preasure>

		lcd_gotoxy(13, 1);
    3080:	60 e0       	ldi	r22, 0x00	; 0
    3082:	8d ec       	ldi	r24, 0xCD	; 205
    3084:	0e 94 47 05 	call	0xa8e	; 0xa8e <write_to_lcd>
		lcd_num_to_str(preasure/10, 2); // Выводим данные АЦП1 на LCD
    3088:	80 91 80 03 	lds	r24, 0x0380	; 0x800380 <preasure>
    308c:	90 91 81 03 	lds	r25, 0x0381	; 0x800381 <preasure+0x1>
    3090:	6a e0       	ldi	r22, 0x0A	; 10
    3092:	70 e0       	ldi	r23, 0x00	; 0
    3094:	0e 94 57 26 	call	0x4cae	; 0x4cae <__divmodhi4>
    3098:	cb 01       	movw	r24, r22
    309a:	62 e0       	ldi	r22, 0x02	; 2
    309c:	0e 94 34 06 	call	0xc68	; 0xc68 <lcd_num_to_str>
		lcd_gotoxy(15, 1);
    30a0:	60 e0       	ldi	r22, 0x00	; 0
    30a2:	8f ec       	ldi	r24, 0xCF	; 207
    30a4:	0e 94 47 05 	call	0xa8e	; 0xa8e <write_to_lcd>
		lcd_num_to_str(preasure%100, 1);
    30a8:	80 91 80 03 	lds	r24, 0x0380	; 0x800380 <preasure>
    30ac:	90 91 81 03 	lds	r25, 0x0381	; 0x800381 <preasure+0x1>
    30b0:	64 e6       	ldi	r22, 0x64	; 100
    30b2:	70 e0       	ldi	r23, 0x00	; 0
    30b4:	0e 94 57 26 	call	0x4cae	; 0x4cae <__divmodhi4>
    30b8:	61 e0       	ldi	r22, 0x01	; 1
    30ba:	0e 94 34 06 	call	0xc68	; 0xc68 <lcd_num_to_str>
		
		if(TypePS==0)
    30be:	80 91 86 03 	lds	r24, 0x0386	; 0x800386 <TypePS>
    30c2:	81 11       	cpse	r24, r1
    30c4:	08 c0       	rjmp	.+16     	; 0x30d6 <ServiceMenu+0x594>
		{
			lcd_gotoxy(0,1);
    30c6:	60 e0       	ldi	r22, 0x00	; 0
    30c8:	80 ec       	ldi	r24, 0xC0	; 192
    30ca:	0e 94 47 05 	call	0xa8e	; 0xa8e <write_to_lcd>
			lcd_puts("-NO-oїєpГї-");
    30ce:	88 e6       	ldi	r24, 0x68	; 104
    30d0:	92 e0       	ldi	r25, 0x02	; 2
    30d2:	0e 94 1d 06 	call	0xc3a	; 0xc3a <lcd_puts>
		}
		if(TypePS==1)
    30d6:	80 91 86 03 	lds	r24, 0x0386	; 0x800386 <TypePS>
    30da:	81 30       	cpi	r24, 0x01	; 1
    30dc:	41 f4       	brne	.+16     	; 0x30ee <ServiceMenu+0x5ac>
		{
			lcd_gotoxy(0,1);
    30de:	60 e0       	ldi	r22, 0x00	; 0
    30e0:	80 ec       	ldi	r24, 0xC0	; 192
    30e2:	0e 94 47 05 	call	0xa8e	; 0xa8e <write_to_lcd>
			lcd_puts("-NC-·aјєЅyї-");
    30e6:	84 e7       	ldi	r24, 0x74	; 116
    30e8:	92 e0       	ldi	r25, 0x02	; 2
    30ea:	0e 94 1d 06 	call	0xc3a	; 0xc3a <lcd_puts>
		}
		
		if ((!(PINB & 0b001000)) &&(flag3==0) )//кнопка выбора значения нажата
    30ee:	1b 99       	sbic	0x03, 3	; 3
    30f0:	5a c0       	rjmp	.+180    	; 0x31a6 <ServiceMenu+0x664>
    30f2:	80 91 8f 05 	lds	r24, 0x058F	; 0x80058f <flag3>
    30f6:	81 11       	cpse	r24, r1
    30f8:	56 c0       	rjmp	.+172    	; 0x31a6 <ServiceMenu+0x664>
		{
			
			J1;
    30fa:	41 e0       	ldi	r20, 0x01	; 1
    30fc:	60 e0       	ldi	r22, 0x00	; 0
    30fe:	70 e8       	ldi	r23, 0x80	; 128
    3100:	80 e0       	ldi	r24, 0x00	; 0
    3102:	90 e0       	ldi	r25, 0x00	; 0
    3104:	0e 94 77 14 	call	0x28ee	; 0x28ee <registr>
			
			if((TypePS==0)&&(flag3==0))
    3108:	80 91 86 03 	lds	r24, 0x0386	; 0x800386 <TypePS>
    310c:	81 11       	cpse	r24, r1
    310e:	20 c0       	rjmp	.+64     	; 0x3150 <ServiceMenu+0x60e>
    3110:	80 91 8f 05 	lds	r24, 0x058F	; 0x80058f <flag3>
    3114:	81 11       	cpse	r24, r1
    3116:	40 c0       	rjmp	.+128    	; 0x3198 <ServiceMenu+0x656>
			{   flag3=1;
    3118:	81 e0       	ldi	r24, 0x01	; 1
    311a:	80 93 8f 05 	sts	0x058F, r24	; 0x80058f <flag3>
				TypePS=1;
    311e:	80 93 86 03 	sts	0x0386, r24	; 0x800386 <TypePS>
				lcd_gotoxy(0, 1);
    3122:	60 e0       	ldi	r22, 0x00	; 0
    3124:	80 ec       	ldi	r24, 0xC0	; 192
    3126:	0e 94 47 05 	call	0xa8e	; 0xa8e <write_to_lcd>
				lcd_puts("-NC-·aјєЅyї-");
    312a:	84 e7       	ldi	r24, 0x74	; 116
    312c:	92 e0       	ldi	r25, 0x02	; 2
    312e:	0e 94 1d 06 	call	0xc3a	; 0xc3a <lcd_puts>
				EEPROM_write(0x06,TypePS);
    3132:	60 91 86 03 	lds	r22, 0x0386	; 0x800386 <TypePS>
    3136:	86 e0       	ldi	r24, 0x06	; 6
    3138:	90 e0       	ldi	r25, 0x00	; 0
    313a:	0e 94 7e 04 	call	0x8fc	; 0x8fc <EEPROM_write>
    313e:	9f ef       	ldi	r25, 0xFF	; 255
    3140:	20 e7       	ldi	r18, 0x70	; 112
    3142:	32 e0       	ldi	r19, 0x02	; 2
    3144:	91 50       	subi	r25, 0x01	; 1
    3146:	20 40       	sbci	r18, 0x00	; 0
    3148:	30 40       	sbci	r19, 0x00	; 0
    314a:	e1 f7       	brne	.-8      	; 0x3144 <ServiceMenu+0x602>
    314c:	00 c0       	rjmp	.+0      	; 0x314e <ServiceMenu+0x60c>
    314e:	00 00       	nop
				_delay_ms(50);
			}
			
			if((TypePS==1)&&(flag3==0))
    3150:	80 91 86 03 	lds	r24, 0x0386	; 0x800386 <TypePS>
    3154:	81 30       	cpi	r24, 0x01	; 1
    3156:	01 f5       	brne	.+64     	; 0x3198 <ServiceMenu+0x656>
    3158:	80 91 8f 05 	lds	r24, 0x058F	; 0x80058f <flag3>
    315c:	81 11       	cpse	r24, r1
    315e:	1c c0       	rjmp	.+56     	; 0x3198 <ServiceMenu+0x656>
			{   flag3=1;
    3160:	81 e0       	ldi	r24, 0x01	; 1
    3162:	80 93 8f 05 	sts	0x058F, r24	; 0x80058f <flag3>
				TypePS=0;
    3166:	10 92 86 03 	sts	0x0386, r1	; 0x800386 <TypePS>
				lcd_gotoxy(0, 1);
    316a:	60 e0       	ldi	r22, 0x00	; 0
    316c:	80 ec       	ldi	r24, 0xC0	; 192
    316e:	0e 94 47 05 	call	0xa8e	; 0xa8e <write_to_lcd>
				lcd_puts("-NO-oїєpГї-");
    3172:	88 e6       	ldi	r24, 0x68	; 104
    3174:	92 e0       	ldi	r25, 0x02	; 2
    3176:	0e 94 1d 06 	call	0xc3a	; 0xc3a <lcd_puts>
				EEPROM_write(0x06,TypePS);
    317a:	60 91 86 03 	lds	r22, 0x0386	; 0x800386 <TypePS>
    317e:	86 e0       	ldi	r24, 0x06	; 6
    3180:	90 e0       	ldi	r25, 0x00	; 0
    3182:	0e 94 7e 04 	call	0x8fc	; 0x8fc <EEPROM_write>
    3186:	8f ef       	ldi	r24, 0xFF	; 255
    3188:	90 e7       	ldi	r25, 0x70	; 112
    318a:	22 e0       	ldi	r18, 0x02	; 2
    318c:	81 50       	subi	r24, 0x01	; 1
    318e:	90 40       	sbci	r25, 0x00	; 0
    3190:	20 40       	sbci	r18, 0x00	; 0
    3192:	e1 f7       	brne	.-8      	; 0x318c <ServiceMenu+0x64a>
    3194:	00 c0       	rjmp	.+0      	; 0x3196 <ServiceMenu+0x654>
    3196:	00 00       	nop
				_delay_ms(50);
			}
			
			J0;
    3198:	40 e0       	ldi	r20, 0x00	; 0
    319a:	60 e0       	ldi	r22, 0x00	; 0
    319c:	70 e8       	ldi	r23, 0x80	; 128
    319e:	80 e0       	ldi	r24, 0x00	; 0
    31a0:	90 e0       	ldi	r25, 0x00	; 0
    31a2:	0e 94 77 14 	call	0x28ee	; 0x28ee <registr>
		}
		if ((PINB & 0b001000)&&(flag3==1) )
    31a6:	1b 9b       	sbis	0x03, 3	; 3
    31a8:	1d c0       	rjmp	.+58     	; 0x31e4 <ServiceMenu+0x6a2>
    31aa:	80 91 8f 05 	lds	r24, 0x058F	; 0x80058f <flag3>
    31ae:	81 30       	cpi	r24, 0x01	; 1
    31b0:	c9 f4       	brne	.+50     	; 0x31e4 <ServiceMenu+0x6a2>
		{
			J1;
    31b2:	41 e0       	ldi	r20, 0x01	; 1
    31b4:	60 e0       	ldi	r22, 0x00	; 0
    31b6:	70 e8       	ldi	r23, 0x80	; 128
    31b8:	80 e0       	ldi	r24, 0x00	; 0
    31ba:	90 e0       	ldi	r25, 0x00	; 0
    31bc:	0e 94 77 14 	call	0x28ee	; 0x28ee <registr>
			flag3=0;
    31c0:	10 92 8f 05 	sts	0x058F, r1	; 0x80058f <flag3>
    31c4:	3f ef       	ldi	r19, 0xFF	; 255
    31c6:	80 e7       	ldi	r24, 0x70	; 112
    31c8:	92 e0       	ldi	r25, 0x02	; 2
    31ca:	31 50       	subi	r19, 0x01	; 1
    31cc:	80 40       	sbci	r24, 0x00	; 0
    31ce:	90 40       	sbci	r25, 0x00	; 0
    31d0:	e1 f7       	brne	.-8      	; 0x31ca <ServiceMenu+0x688>
    31d2:	00 c0       	rjmp	.+0      	; 0x31d4 <ServiceMenu+0x692>
    31d4:	00 00       	nop
			_delay_ms(50);
			J0;
    31d6:	40 e0       	ldi	r20, 0x00	; 0
    31d8:	60 e0       	ldi	r22, 0x00	; 0
    31da:	70 e8       	ldi	r23, 0x80	; 128
    31dc:	80 e0       	ldi	r24, 0x00	; 0
    31de:	90 e0       	ldi	r25, 0x00	; 0
    31e0:	0e 94 77 14 	call	0x28ee	; 0x28ee <registr>
		}
		
		
	}
/////////////////////////////////////////////////////////////////////////////////////////////////////////////	
	if(service==4)
    31e4:	80 91 9f 05 	lds	r24, 0x059F	; 0x80059f <service>
    31e8:	84 30       	cpi	r24, 0x04	; 4
    31ea:	09 f0       	breq	.+2      	; 0x31ee <ServiceMenu+0x6ac>
    31ec:	c1 c0       	rjmp	.+386    	; 0x3370 <ServiceMenu+0x82e>
	
	{
		lcd_gotoxy(0, 0); // Выводим строки на LCD
    31ee:	60 e0       	ldi	r22, 0x00	; 0
    31f0:	80 e8       	ldi	r24, 0x80	; 128
    31f2:	0e 94 47 05 	call	0xa8e	; 0xa8e <write_to_lcd>
		lcd_puts("Tёѕ гaїАёєa -AL");
    31f6:	81 e8       	ldi	r24, 0x81	; 129
    31f8:	92 e0       	ldi	r25, 0x02	; 2
    31fa:	0e 94 1d 06 	call	0xc3a	; 0xc3a <lcd_puts>
		fire=read_adc(2); //Чтение состояния входа датчик AL
    31fe:	82 e0       	ldi	r24, 0x02	; 2
    3200:	0e 94 e2 00 	call	0x1c4	; 0x1c4 <read_adc>
    3204:	90 93 84 03 	sts	0x0384, r25	; 0x800384 <fire+0x1>
    3208:	80 93 83 03 	sts	0x0383, r24	; 0x800383 <fire>

		lcd_gotoxy(13, 1);
    320c:	60 e0       	ldi	r22, 0x00	; 0
    320e:	8d ec       	ldi	r24, 0xCD	; 205
    3210:	0e 94 47 05 	call	0xa8e	; 0xa8e <write_to_lcd>
		lcd_num_to_str(fire/10, 2); // Выводим данные АЦП1 на LCD
    3214:	80 91 83 03 	lds	r24, 0x0383	; 0x800383 <fire>
    3218:	90 91 84 03 	lds	r25, 0x0384	; 0x800384 <fire+0x1>
    321c:	6a e0       	ldi	r22, 0x0A	; 10
    321e:	70 e0       	ldi	r23, 0x00	; 0
    3220:	0e 94 57 26 	call	0x4cae	; 0x4cae <__divmodhi4>
    3224:	cb 01       	movw	r24, r22
    3226:	62 e0       	ldi	r22, 0x02	; 2
    3228:	0e 94 34 06 	call	0xc68	; 0xc68 <lcd_num_to_str>
		lcd_gotoxy(15, 1);
    322c:	60 e0       	ldi	r22, 0x00	; 0
    322e:	8f ec       	ldi	r24, 0xCF	; 207
    3230:	0e 94 47 05 	call	0xa8e	; 0xa8e <write_to_lcd>
		lcd_num_to_str(fire%100, 1);
    3234:	80 91 83 03 	lds	r24, 0x0383	; 0x800383 <fire>
    3238:	90 91 84 03 	lds	r25, 0x0384	; 0x800384 <fire+0x1>
    323c:	64 e6       	ldi	r22, 0x64	; 100
    323e:	70 e0       	ldi	r23, 0x00	; 0
    3240:	0e 94 57 26 	call	0x4cae	; 0x4cae <__divmodhi4>
    3244:	61 e0       	ldi	r22, 0x01	; 1
    3246:	0e 94 34 06 	call	0xc68	; 0xc68 <lcd_num_to_str>
		
		if(TypeAL==0)
    324a:	80 91 85 03 	lds	r24, 0x0385	; 0x800385 <TypeAL>
    324e:	81 11       	cpse	r24, r1
    3250:	08 c0       	rjmp	.+16     	; 0x3262 <ServiceMenu+0x720>
		{
			lcd_gotoxy(0,1);
    3252:	60 e0       	ldi	r22, 0x00	; 0
    3254:	80 ec       	ldi	r24, 0xC0	; 192
    3256:	0e 94 47 05 	call	0xa8e	; 0xa8e <write_to_lcd>
			lcd_puts("-NO-oїєpГї-");
    325a:	88 e6       	ldi	r24, 0x68	; 104
    325c:	92 e0       	ldi	r25, 0x02	; 2
    325e:	0e 94 1d 06 	call	0xc3a	; 0xc3a <lcd_puts>
		}
		if(TypeAL==1)
    3262:	80 91 85 03 	lds	r24, 0x0385	; 0x800385 <TypeAL>
    3266:	81 30       	cpi	r24, 0x01	; 1
    3268:	41 f4       	brne	.+16     	; 0x327a <ServiceMenu+0x738>
		{
			lcd_gotoxy(0,1);
    326a:	60 e0       	ldi	r22, 0x00	; 0
    326c:	80 ec       	ldi	r24, 0xC0	; 192
    326e:	0e 94 47 05 	call	0xa8e	; 0xa8e <write_to_lcd>
			lcd_puts("-NC-·aјєЅyї-");
    3272:	84 e7       	ldi	r24, 0x74	; 116
    3274:	92 e0       	ldi	r25, 0x02	; 2
    3276:	0e 94 1d 06 	call	0xc3a	; 0xc3a <lcd_puts>
		}
		
		if ((!(PINB & 0b001000)) &&(flag3==0) )//кнопка выбора значения нажата
    327a:	1b 99       	sbic	0x03, 3	; 3
    327c:	5a c0       	rjmp	.+180    	; 0x3332 <ServiceMenu+0x7f0>
    327e:	80 91 8f 05 	lds	r24, 0x058F	; 0x80058f <flag3>
    3282:	81 11       	cpse	r24, r1
    3284:	56 c0       	rjmp	.+172    	; 0x3332 <ServiceMenu+0x7f0>
		{
			
			J1;
    3286:	41 e0       	ldi	r20, 0x01	; 1
    3288:	60 e0       	ldi	r22, 0x00	; 0
    328a:	70 e8       	ldi	r23, 0x80	; 128
    328c:	80 e0       	ldi	r24, 0x00	; 0
    328e:	90 e0       	ldi	r25, 0x00	; 0
    3290:	0e 94 77 14 	call	0x28ee	; 0x28ee <registr>
			
			if((TypeAL==0)&&(flag3==0))
    3294:	80 91 85 03 	lds	r24, 0x0385	; 0x800385 <TypeAL>
    3298:	81 11       	cpse	r24, r1
    329a:	20 c0       	rjmp	.+64     	; 0x32dc <ServiceMenu+0x79a>
    329c:	80 91 8f 05 	lds	r24, 0x058F	; 0x80058f <flag3>
    32a0:	81 11       	cpse	r24, r1
    32a2:	40 c0       	rjmp	.+128    	; 0x3324 <ServiceMenu+0x7e2>
			{   flag3=1;
    32a4:	81 e0       	ldi	r24, 0x01	; 1
    32a6:	80 93 8f 05 	sts	0x058F, r24	; 0x80058f <flag3>
				TypeAL=1;
    32aa:	80 93 85 03 	sts	0x0385, r24	; 0x800385 <TypeAL>
				lcd_gotoxy(0, 1);
    32ae:	60 e0       	ldi	r22, 0x00	; 0
    32b0:	80 ec       	ldi	r24, 0xC0	; 192
    32b2:	0e 94 47 05 	call	0xa8e	; 0xa8e <write_to_lcd>
				lcd_puts("-NC-·aјєЅyї-");
    32b6:	84 e7       	ldi	r24, 0x74	; 116
    32b8:	92 e0       	ldi	r25, 0x02	; 2
    32ba:	0e 94 1d 06 	call	0xc3a	; 0xc3a <lcd_puts>
				EEPROM_write(0x07,TypeAL);
    32be:	60 91 85 03 	lds	r22, 0x0385	; 0x800385 <TypeAL>
    32c2:	87 e0       	ldi	r24, 0x07	; 7
    32c4:	90 e0       	ldi	r25, 0x00	; 0
    32c6:	0e 94 7e 04 	call	0x8fc	; 0x8fc <EEPROM_write>
    32ca:	2f ef       	ldi	r18, 0xFF	; 255
    32cc:	30 e7       	ldi	r19, 0x70	; 112
    32ce:	82 e0       	ldi	r24, 0x02	; 2
    32d0:	21 50       	subi	r18, 0x01	; 1
    32d2:	30 40       	sbci	r19, 0x00	; 0
    32d4:	80 40       	sbci	r24, 0x00	; 0
    32d6:	e1 f7       	brne	.-8      	; 0x32d0 <ServiceMenu+0x78e>
    32d8:	00 c0       	rjmp	.+0      	; 0x32da <ServiceMenu+0x798>
    32da:	00 00       	nop
				_delay_ms(50);
			}
			
			if((TypeAL==1)&&(flag3==0))
    32dc:	80 91 85 03 	lds	r24, 0x0385	; 0x800385 <TypeAL>
    32e0:	81 30       	cpi	r24, 0x01	; 1
    32e2:	01 f5       	brne	.+64     	; 0x3324 <ServiceMenu+0x7e2>
    32e4:	80 91 8f 05 	lds	r24, 0x058F	; 0x80058f <flag3>
    32e8:	81 11       	cpse	r24, r1
    32ea:	1c c0       	rjmp	.+56     	; 0x3324 <ServiceMenu+0x7e2>
			{   flag3=1;
    32ec:	81 e0       	ldi	r24, 0x01	; 1
    32ee:	80 93 8f 05 	sts	0x058F, r24	; 0x80058f <flag3>
				TypeAL=0;
    32f2:	10 92 85 03 	sts	0x0385, r1	; 0x800385 <TypeAL>
				lcd_gotoxy(0, 1);
    32f6:	60 e0       	ldi	r22, 0x00	; 0
    32f8:	80 ec       	ldi	r24, 0xC0	; 192
    32fa:	0e 94 47 05 	call	0xa8e	; 0xa8e <write_to_lcd>
				lcd_puts("-NO-oїєpГї-");
    32fe:	88 e6       	ldi	r24, 0x68	; 104
    3300:	92 e0       	ldi	r25, 0x02	; 2
    3302:	0e 94 1d 06 	call	0xc3a	; 0xc3a <lcd_puts>
				EEPROM_write(0x07,TypeAL);
    3306:	60 91 85 03 	lds	r22, 0x0385	; 0x800385 <TypeAL>
    330a:	87 e0       	ldi	r24, 0x07	; 7
    330c:	90 e0       	ldi	r25, 0x00	; 0
    330e:	0e 94 7e 04 	call	0x8fc	; 0x8fc <EEPROM_write>
    3312:	9f ef       	ldi	r25, 0xFF	; 255
    3314:	20 e7       	ldi	r18, 0x70	; 112
    3316:	32 e0       	ldi	r19, 0x02	; 2
    3318:	91 50       	subi	r25, 0x01	; 1
    331a:	20 40       	sbci	r18, 0x00	; 0
    331c:	30 40       	sbci	r19, 0x00	; 0
    331e:	e1 f7       	brne	.-8      	; 0x3318 <ServiceMenu+0x7d6>
    3320:	00 c0       	rjmp	.+0      	; 0x3322 <ServiceMenu+0x7e0>
    3322:	00 00       	nop
				_delay_ms(50);
			}
			
			J0;
    3324:	40 e0       	ldi	r20, 0x00	; 0
    3326:	60 e0       	ldi	r22, 0x00	; 0
    3328:	70 e8       	ldi	r23, 0x80	; 128
    332a:	80 e0       	ldi	r24, 0x00	; 0
    332c:	90 e0       	ldi	r25, 0x00	; 0
    332e:	0e 94 77 14 	call	0x28ee	; 0x28ee <registr>
		}
		if ((PINB & 0b001000)&&(flag3==1) )
    3332:	1b 9b       	sbis	0x03, 3	; 3
    3334:	1d c0       	rjmp	.+58     	; 0x3370 <ServiceMenu+0x82e>
    3336:	80 91 8f 05 	lds	r24, 0x058F	; 0x80058f <flag3>
    333a:	81 30       	cpi	r24, 0x01	; 1
    333c:	c9 f4       	brne	.+50     	; 0x3370 <ServiceMenu+0x82e>
		{
			J1;
    333e:	41 e0       	ldi	r20, 0x01	; 1
    3340:	60 e0       	ldi	r22, 0x00	; 0
    3342:	70 e8       	ldi	r23, 0x80	; 128
    3344:	80 e0       	ldi	r24, 0x00	; 0
    3346:	90 e0       	ldi	r25, 0x00	; 0
    3348:	0e 94 77 14 	call	0x28ee	; 0x28ee <registr>
			flag3=0;
    334c:	10 92 8f 05 	sts	0x058F, r1	; 0x80058f <flag3>
    3350:	8f ef       	ldi	r24, 0xFF	; 255
    3352:	90 e7       	ldi	r25, 0x70	; 112
    3354:	22 e0       	ldi	r18, 0x02	; 2
    3356:	81 50       	subi	r24, 0x01	; 1
    3358:	90 40       	sbci	r25, 0x00	; 0
    335a:	20 40       	sbci	r18, 0x00	; 0
    335c:	e1 f7       	brne	.-8      	; 0x3356 <ServiceMenu+0x814>
    335e:	00 c0       	rjmp	.+0      	; 0x3360 <ServiceMenu+0x81e>
    3360:	00 00       	nop
			_delay_ms(50);
			J0;
    3362:	40 e0       	ldi	r20, 0x00	; 0
    3364:	60 e0       	ldi	r22, 0x00	; 0
    3366:	70 e8       	ldi	r23, 0x80	; 128
    3368:	80 e0       	ldi	r24, 0x00	; 0
    336a:	90 e0       	ldi	r25, 0x00	; 0
    336c:	0e 94 77 14 	call	0x28ee	; 0x28ee <registr>
		}
		
		
	}
/////////////////////////////////////////////////////////////////////////////////////////////////////////////	
	if(service==5)
    3370:	80 91 9f 05 	lds	r24, 0x059F	; 0x80059f <service>
    3374:	85 30       	cpi	r24, 0x05	; 5
    3376:	09 f0       	breq	.+2      	; 0x337a <ServiceMenu+0x838>
    3378:	d4 c1       	rjmp	.+936    	; 0x3722 <ServiceMenu+0xbe0>
	
	{
		delta_T=EEPROM_read(0x11);
    337a:	81 e1       	ldi	r24, 0x11	; 17
    337c:	90 e0       	ldi	r25, 0x00	; 0
    337e:	0e 94 86 04 	call	0x90c	; 0x90c <EEPROM_read>
    3382:	68 2f       	mov	r22, r24
    3384:	70 e0       	ldi	r23, 0x00	; 0
    3386:	80 e0       	ldi	r24, 0x00	; 0
    3388:	90 e0       	ldi	r25, 0x00	; 0
    338a:	0e 94 e5 27 	call	0x4fca	; 0x4fca <__floatunsisf>
    338e:	6b 01       	movw	r12, r22
    3390:	7c 01       	movw	r14, r24
    3392:	60 93 36 04 	sts	0x0436, r22	; 0x800436 <delta_T>
    3396:	70 93 37 04 	sts	0x0437, r23	; 0x800437 <delta_T+0x1>
    339a:	80 93 38 04 	sts	0x0438, r24	; 0x800438 <delta_T+0x2>
    339e:	90 93 39 04 	sts	0x0439, r25	; 0x800439 <delta_T+0x3>
		if((delta_T<=60)&&(delta_T>=-10))
    33a2:	20 e0       	ldi	r18, 0x00	; 0
    33a4:	30 e0       	ldi	r19, 0x00	; 0
    33a6:	40 e7       	ldi	r20, 0x70	; 112
    33a8:	52 e4       	ldi	r21, 0x42	; 66
    33aa:	0e 94 38 27 	call	0x4e70	; 0x4e70 <__cmpsf2>
    33ae:	18 16       	cp	r1, r24
    33b0:	0c f4       	brge	.+2      	; 0x33b4 <ServiceMenu+0x872>
    33b2:	4a c0       	rjmp	.+148    	; 0x3448 <ServiceMenu+0x906>
    33b4:	20 e0       	ldi	r18, 0x00	; 0
    33b6:	30 e0       	ldi	r19, 0x00	; 0
    33b8:	40 e2       	ldi	r20, 0x20	; 32
    33ba:	51 ec       	ldi	r21, 0xC1	; 193
    33bc:	c7 01       	movw	r24, r14
    33be:	b6 01       	movw	r22, r12
    33c0:	0e 94 97 28 	call	0x512e	; 0x512e <__gesf2>
    33c4:	88 23       	and	r24, r24
    33c6:	0c f4       	brge	.+2      	; 0x33ca <ServiceMenu+0x888>
    33c8:	3f c0       	rjmp	.+126    	; 0x3448 <ServiceMenu+0x906>
		{
			lcd_gotoxy(0, 0); // Выводим строки на LCD
    33ca:	60 e0       	ldi	r22, 0x00	; 0
    33cc:	80 e8       	ldi	r24, 0x80	; 128
    33ce:	0e 94 47 05 	call	0xa8e	; 0xa8e <write_to_lcd>
			lcd_puts("Maєcёјa»ДЅaЗ    ");//Порог сработки 
    33d2:	81 e9       	ldi	r24, 0x91	; 145
    33d4:	92 e0       	ldi	r25, 0x02	; 2
    33d6:	0e 94 1d 06 	call	0xc3a	; 0xc3a <lcd_puts>
			lcd_gotoxy(0, 1); // Выводим строки на LCD
    33da:	60 e0       	ldi	r22, 0x00	; 0
    33dc:	80 ec       	ldi	r24, 0xC0	; 192
    33de:	0e 94 47 05 	call	0xa8e	; 0xa8e <write_to_lcd>
			lcd_puts("їeј-pa,C      ");//датчика температуры
    33e2:	82 ea       	ldi	r24, 0xA2	; 162
    33e4:	92 e0       	ldi	r25, 0x02	; 2
    33e6:	0e 94 1d 06 	call	0xc3a	; 0xc3a <lcd_puts>
			
			lcd_gotoxy(14, 1);
    33ea:	60 e0       	ldi	r22, 0x00	; 0
    33ec:	8e ec       	ldi	r24, 0xCE	; 206
    33ee:	0e 94 47 05 	call	0xa8e	; 0xa8e <write_to_lcd>
			lcd_num_to_str(delta_T/10, 1); // Выводим данные времени на LCD
    33f2:	20 e0       	ldi	r18, 0x00	; 0
    33f4:	30 e0       	ldi	r19, 0x00	; 0
    33f6:	40 e2       	ldi	r20, 0x20	; 32
    33f8:	51 e4       	ldi	r21, 0x41	; 65
    33fa:	60 91 36 04 	lds	r22, 0x0436	; 0x800436 <delta_T>
    33fe:	70 91 37 04 	lds	r23, 0x0437	; 0x800437 <delta_T+0x1>
    3402:	80 91 38 04 	lds	r24, 0x0438	; 0x800438 <delta_T+0x2>
    3406:	90 91 39 04 	lds	r25, 0x0439	; 0x800439 <delta_T+0x3>
    340a:	0e 94 3d 27 	call	0x4e7a	; 0x4e7a <__divsf3>
    340e:	0e 94 b6 27 	call	0x4f6c	; 0x4f6c <__fixunssfsi>
    3412:	dc 01       	movw	r26, r24
    3414:	cb 01       	movw	r24, r22
    3416:	61 e0       	ldi	r22, 0x01	; 1
    3418:	0e 94 34 06 	call	0xc68	; 0xc68 <lcd_num_to_str>
			lcd_gotoxy(15, 1);
    341c:	60 e0       	ldi	r22, 0x00	; 0
    341e:	8f ec       	ldi	r24, 0xCF	; 207
    3420:	0e 94 47 05 	call	0xa8e	; 0xa8e <write_to_lcd>
			lcd_num_to_str((int)delta_T%100, 1);
    3424:	60 91 36 04 	lds	r22, 0x0436	; 0x800436 <delta_T>
    3428:	70 91 37 04 	lds	r23, 0x0437	; 0x800437 <delta_T+0x1>
    342c:	80 91 38 04 	lds	r24, 0x0438	; 0x800438 <delta_T+0x2>
    3430:	90 91 39 04 	lds	r25, 0x0439	; 0x800439 <delta_T+0x3>
    3434:	0e 94 af 27 	call	0x4f5e	; 0x4f5e <__fixsfsi>
    3438:	cb 01       	movw	r24, r22
    343a:	64 e6       	ldi	r22, 0x64	; 100
    343c:	70 e0       	ldi	r23, 0x00	; 0
    343e:	0e 94 57 26 	call	0x4cae	; 0x4cae <__divmodhi4>
    3442:	61 e0       	ldi	r22, 0x01	; 1
    3444:	0e 94 34 06 	call	0xc68	; 0xc68 <lcd_num_to_str>
			
		}
		
		if((delta_T>60)||(delta_T<-10))
    3448:	c0 90 36 04 	lds	r12, 0x0436	; 0x800436 <delta_T>
    344c:	d0 90 37 04 	lds	r13, 0x0437	; 0x800437 <delta_T+0x1>
    3450:	e0 90 38 04 	lds	r14, 0x0438	; 0x800438 <delta_T+0x2>
    3454:	f0 90 39 04 	lds	r15, 0x0439	; 0x800439 <delta_T+0x3>
    3458:	20 e0       	ldi	r18, 0x00	; 0
    345a:	30 e0       	ldi	r19, 0x00	; 0
    345c:	40 e7       	ldi	r20, 0x70	; 112
    345e:	52 e4       	ldi	r21, 0x42	; 66
    3460:	c7 01       	movw	r24, r14
    3462:	b6 01       	movw	r22, r12
    3464:	0e 94 97 28 	call	0x512e	; 0x512e <__gesf2>
    3468:	18 16       	cp	r1, r24
    346a:	54 f0       	brlt	.+20     	; 0x3480 <ServiceMenu+0x93e>
    346c:	20 e0       	ldi	r18, 0x00	; 0
    346e:	30 e0       	ldi	r19, 0x00	; 0
    3470:	40 e2       	ldi	r20, 0x20	; 32
    3472:	51 ec       	ldi	r21, 0xC1	; 193
    3474:	c7 01       	movw	r24, r14
    3476:	b6 01       	movw	r22, r12
    3478:	0e 94 38 27 	call	0x4e70	; 0x4e70 <__cmpsf2>
    347c:	88 23       	and	r24, r24
    347e:	84 f4       	brge	.+32     	; 0x34a0 <ServiceMenu+0x95e>
		{
			lcd_gotoxy(0, 0); // Выводим строки на LCD
    3480:	60 e0       	ldi	r22, 0x00	; 0
    3482:	80 e8       	ldi	r24, 0x80	; 128
    3484:	0e 94 47 05 	call	0xa8e	; 0xa8e <write_to_lcd>
			lcd_puts("KoЅїpo»Д        ");//Контроль
    3488:	81 eb       	ldi	r24, 0xB1	; 177
    348a:	92 e0       	ldi	r25, 0x02	; 2
    348c:	0e 94 1d 06 	call	0xc3a	; 0xc3a <lcd_puts>
			lcd_gotoxy(0, 1); // Выводим строки на LCD
    3490:	60 e0       	ldi	r22, 0x00	; 0
    3492:	80 ec       	ldi	r24, 0xC0	; 192
    3494:	0e 94 47 05 	call	0xa8e	; 0xa8e <write_to_lcd>
			lcd_puts("їeјѕ-pГ     OTK§");//температурного режима отключён 
    3498:	82 ec       	ldi	r24, 0xC2	; 194
    349a:	92 e0       	ldi	r25, 0x02	; 2
    349c:	0e 94 1d 06 	call	0xc3a	; 0xc3a <lcd_puts>
			
		}
		
	/////////////////////////////////////////////////////////////////////////////////////////	
		if ((!(PINB & 0b001000))&&(flag2==0) )//кнопка выбора значения нажата
    34a0:	1b 99       	sbic	0x03, 3	; 3
    34a2:	5d c0       	rjmp	.+186    	; 0x355e <ServiceMenu+0xa1c>
    34a4:	80 91 ce 03 	lds	r24, 0x03CE	; 0x8003ce <flag2>
    34a8:	81 11       	cpse	r24, r1
    34aa:	59 c0       	rjmp	.+178    	; 0x355e <ServiceMenu+0xa1c>
		{
			J1;
    34ac:	41 e0       	ldi	r20, 0x01	; 1
    34ae:	60 e0       	ldi	r22, 0x00	; 0
    34b0:	70 e8       	ldi	r23, 0x80	; 128
    34b2:	80 e0       	ldi	r24, 0x00	; 0
    34b4:	90 e0       	ldi	r25, 0x00	; 0
    34b6:	0e 94 77 14 	call	0x28ee	; 0x28ee <registr>
	        timer_M=timing;
    34ba:	80 91 89 05 	lds	r24, 0x0589	; 0x800589 <timing>
    34be:	90 91 8a 05 	lds	r25, 0x058A	; 0x80058a <timing+0x1>
    34c2:	90 93 04 04 	sts	0x0404, r25	; 0x800404 <timer_M+0x1>
    34c6:	80 93 03 04 	sts	0x0403, r24	; 0x800403 <timer_M>
			flag2=1;	
    34ca:	81 e0       	ldi	r24, 0x01	; 1
    34cc:	80 93 ce 03 	sts	0x03CE, r24	; 0x8003ce <flag2>
			delta_T=delta_T+2;
    34d0:	20 e0       	ldi	r18, 0x00	; 0
    34d2:	30 e0       	ldi	r19, 0x00	; 0
    34d4:	40 e0       	ldi	r20, 0x00	; 0
    34d6:	50 e4       	ldi	r21, 0x40	; 64
    34d8:	60 91 36 04 	lds	r22, 0x0436	; 0x800436 <delta_T>
    34dc:	70 91 37 04 	lds	r23, 0x0437	; 0x800437 <delta_T+0x1>
    34e0:	80 91 38 04 	lds	r24, 0x0438	; 0x800438 <delta_T+0x2>
    34e4:	90 91 39 04 	lds	r25, 0x0439	; 0x800439 <delta_T+0x3>
    34e8:	0e 94 cc 26 	call	0x4d98	; 0x4d98 <__addsf3>
    34ec:	6b 01       	movw	r12, r22
    34ee:	7c 01       	movw	r14, r24
			if(delta_T>62)
    34f0:	20 e0       	ldi	r18, 0x00	; 0
    34f2:	30 e0       	ldi	r19, 0x00	; 0
    34f4:	48 e7       	ldi	r20, 0x78	; 120
    34f6:	52 e4       	ldi	r21, 0x42	; 66
    34f8:	0e 94 97 28 	call	0x512e	; 0x512e <__gesf2>
    34fc:	18 16       	cp	r1, r24
    34fe:	4c f0       	brlt	.+18     	; 0x3512 <ServiceMenu+0x9d0>
		if ((!(PINB & 0b001000))&&(flag2==0) )//кнопка выбора значения нажата
		{
			J1;
	        timer_M=timing;
			flag2=1;	
			delta_T=delta_T+2;
    3500:	c0 92 36 04 	sts	0x0436, r12	; 0x800436 <delta_T>
    3504:	d0 92 37 04 	sts	0x0437, r13	; 0x800437 <delta_T+0x1>
    3508:	e0 92 38 04 	sts	0x0438, r14	; 0x800438 <delta_T+0x2>
    350c:	f0 92 39 04 	sts	0x0439, r15	; 0x800439 <delta_T+0x3>
    3510:	08 c0       	rjmp	.+16     	; 0x3522 <ServiceMenu+0x9e0>
			if(delta_T>62)
			{
				delta_T=0;
    3512:	10 92 36 04 	sts	0x0436, r1	; 0x800436 <delta_T>
    3516:	10 92 37 04 	sts	0x0437, r1	; 0x800437 <delta_T+0x1>
    351a:	10 92 38 04 	sts	0x0438, r1	; 0x800438 <delta_T+0x2>
    351e:	10 92 39 04 	sts	0x0439, r1	; 0x800439 <delta_T+0x3>
			}

			EEPROM_write(0x11,delta_T);
    3522:	60 91 36 04 	lds	r22, 0x0436	; 0x800436 <delta_T>
    3526:	70 91 37 04 	lds	r23, 0x0437	; 0x800437 <delta_T+0x1>
    352a:	80 91 38 04 	lds	r24, 0x0438	; 0x800438 <delta_T+0x2>
    352e:	90 91 39 04 	lds	r25, 0x0439	; 0x800439 <delta_T+0x3>
    3532:	0e 94 b6 27 	call	0x4f6c	; 0x4f6c <__fixunssfsi>
    3536:	81 e1       	ldi	r24, 0x11	; 17
    3538:	90 e0       	ldi	r25, 0x00	; 0
    353a:	0e 94 7e 04 	call	0x8fc	; 0x8fc <EEPROM_write>
    353e:	3f ef       	ldi	r19, 0xFF	; 255
    3540:	89 ef       	ldi	r24, 0xF9	; 249
    3542:	90 e0       	ldi	r25, 0x00	; 0
    3544:	31 50       	subi	r19, 0x01	; 1
    3546:	80 40       	sbci	r24, 0x00	; 0
    3548:	90 40       	sbci	r25, 0x00	; 0
    354a:	e1 f7       	brne	.-8      	; 0x3544 <ServiceMenu+0xa02>
    354c:	00 c0       	rjmp	.+0      	; 0x354e <ServiceMenu+0xa0c>
    354e:	00 00       	nop
			_delay_ms(20);
			J0;
    3550:	40 e0       	ldi	r20, 0x00	; 0
    3552:	60 e0       	ldi	r22, 0x00	; 0
    3554:	70 e8       	ldi	r23, 0x80	; 128
    3556:	80 e0       	ldi	r24, 0x00	; 0
    3558:	90 e0       	ldi	r25, 0x00	; 0
    355a:	0e 94 77 14 	call	0x28ee	; 0x28ee <registr>
		}
		if ((PINB & 0b001000)&&(flag2==1) )
    355e:	1b 9b       	sbis	0x03, 3	; 3
    3560:	1b c0       	rjmp	.+54     	; 0x3598 <ServiceMenu+0xa56>
    3562:	80 91 ce 03 	lds	r24, 0x03CE	; 0x8003ce <flag2>
    3566:	81 30       	cpi	r24, 0x01	; 1
    3568:	09 f0       	breq	.+2      	; 0x356c <ServiceMenu+0xa2a>
    356a:	3f c7       	rjmp	.+3710   	; 0x43ea <ServiceMenu+0x18a8>
		{
			J1;
    356c:	41 e0       	ldi	r20, 0x01	; 1
    356e:	60 e0       	ldi	r22, 0x00	; 0
    3570:	70 e8       	ldi	r23, 0x80	; 128
    3572:	80 e0       	ldi	r24, 0x00	; 0
    3574:	90 e0       	ldi	r25, 0x00	; 0
    3576:	0e 94 77 14 	call	0x28ee	; 0x28ee <registr>
			
			flag2=0;
    357a:	10 92 ce 03 	sts	0x03CE, r1	; 0x8003ce <flag2>
    357e:	8f e3       	ldi	r24, 0x3F	; 63
    3580:	9c e9       	ldi	r25, 0x9C	; 156
    3582:	01 97       	sbiw	r24, 0x01	; 1
    3584:	f1 f7       	brne	.-4      	; 0x3582 <ServiceMenu+0xa40>
    3586:	00 c0       	rjmp	.+0      	; 0x3588 <ServiceMenu+0xa46>
    3588:	00 00       	nop
			_delay_ms(10);
			J0;
    358a:	40 e0       	ldi	r20, 0x00	; 0
    358c:	60 e0       	ldi	r22, 0x00	; 0
    358e:	70 e8       	ldi	r23, 0x80	; 128
    3590:	80 e0       	ldi	r24, 0x00	; 0
    3592:	90 e0       	ldi	r25, 0x00	; 0
    3594:	0e 94 77 14 	call	0x28ee	; 0x28ee <registr>
		}
/////////////////////.....////////////////////////
         if ((!(PINB & 0b001000))&&(flag2==1))//кнопка выбора значения нажата
    3598:	1b 99       	sbic	0x03, 3	; 3
    359a:	50 c0       	rjmp	.+160    	; 0x363c <ServiceMenu+0xafa>
    359c:	80 91 ce 03 	lds	r24, 0x03CE	; 0x8003ce <flag2>
    35a0:	81 30       	cpi	r24, 0x01	; 1
    35a2:	09 f0       	breq	.+2      	; 0x35a6 <ServiceMenu+0xa64>
    35a4:	4b c0       	rjmp	.+150    	; 0x363c <ServiceMenu+0xafa>
         {
			 menu_t=timing-timer_M;
    35a6:	e0 90 89 05 	lds	r14, 0x0589	; 0x800589 <timing>
    35aa:	f0 90 8a 05 	lds	r15, 0x058A	; 0x80058a <timing+0x1>
    35ae:	80 91 03 04 	lds	r24, 0x0403	; 0x800403 <timer_M>
    35b2:	90 91 04 04 	lds	r25, 0x0404	; 0x800404 <timer_M+0x1>
    35b6:	97 01       	movw	r18, r14
    35b8:	28 1b       	sub	r18, r24
    35ba:	39 0b       	sbc	r19, r25
    35bc:	c9 01       	movw	r24, r18
    35be:	30 93 8c 03 	sts	0x038C, r19	; 0x80038c <menu_t+0x1>
    35c2:	20 93 8b 03 	sts	0x038B, r18	; 0x80038b <menu_t>
             
			 		 
			 if(menu_t>2000){
    35c6:	81 3d       	cpi	r24, 0xD1	; 209
    35c8:	97 40       	sbci	r25, 0x07	; 7
    35ca:	c4 f1       	brlt	.+112    	; 0x363c <ServiceMenu+0xafa>
				 delta_T=delta_T+1;
    35cc:	20 e0       	ldi	r18, 0x00	; 0
    35ce:	30 e0       	ldi	r19, 0x00	; 0
    35d0:	40 e8       	ldi	r20, 0x80	; 128
    35d2:	5f e3       	ldi	r21, 0x3F	; 63
    35d4:	60 91 36 04 	lds	r22, 0x0436	; 0x800436 <delta_T>
    35d8:	70 91 37 04 	lds	r23, 0x0437	; 0x800437 <delta_T+0x1>
    35dc:	80 91 38 04 	lds	r24, 0x0438	; 0x800438 <delta_T+0x2>
    35e0:	90 91 39 04 	lds	r25, 0x0439	; 0x800439 <delta_T+0x3>
    35e4:	0e 94 cc 26 	call	0x4d98	; 0x4d98 <__addsf3>
    35e8:	60 93 36 04 	sts	0x0436, r22	; 0x800436 <delta_T>
    35ec:	70 93 37 04 	sts	0x0437, r23	; 0x800437 <delta_T+0x1>
    35f0:	80 93 38 04 	sts	0x0438, r24	; 0x800438 <delta_T+0x2>
    35f4:	90 93 39 04 	sts	0x0439, r25	; 0x800439 <delta_T+0x3>
				 timer_M=timing;
    35f8:	f0 92 04 04 	sts	0x0404, r15	; 0x800404 <timer_M+0x1>
    35fc:	e0 92 03 04 	sts	0x0403, r14	; 0x800403 <timer_M>
				 if(delta_T>62)
    3600:	20 e0       	ldi	r18, 0x00	; 0
    3602:	30 e0       	ldi	r19, 0x00	; 0
    3604:	48 e7       	ldi	r20, 0x78	; 120
    3606:	52 e4       	ldi	r21, 0x42	; 66
    3608:	0e 94 97 28 	call	0x512e	; 0x512e <__gesf2>
    360c:	18 16       	cp	r1, r24
    360e:	44 f4       	brge	.+16     	; 0x3620 <ServiceMenu+0xade>
				 {
					 delta_T=0;
    3610:	10 92 36 04 	sts	0x0436, r1	; 0x800436 <delta_T>
    3614:	10 92 37 04 	sts	0x0437, r1	; 0x800437 <delta_T+0x1>
    3618:	10 92 38 04 	sts	0x0438, r1	; 0x800438 <delta_T+0x2>
    361c:	10 92 39 04 	sts	0x0439, r1	; 0x800439 <delta_T+0x3>
				 }

				 EEPROM_write(0x11,delta_T);	
    3620:	60 91 36 04 	lds	r22, 0x0436	; 0x800436 <delta_T>
    3624:	70 91 37 04 	lds	r23, 0x0437	; 0x800437 <delta_T+0x1>
    3628:	80 91 38 04 	lds	r24, 0x0438	; 0x800438 <delta_T+0x2>
    362c:	90 91 39 04 	lds	r25, 0x0439	; 0x800439 <delta_T+0x3>
    3630:	0e 94 b6 27 	call	0x4f6c	; 0x4f6c <__fixunssfsi>
    3634:	81 e1       	ldi	r24, 0x11	; 17
    3636:	90 e0       	ldi	r25, 0x00	; 0
    3638:	0e 94 7e 04 	call	0x8fc	; 0x8fc <EEPROM_write>
			    }
			  
		 }
////////////////////////////////////////////////////////////////////////////////////////////////////////////////////		
		if ((!(PINB & 0b010000))&&(flag3==0) )//кнопка выбора значения нажата
    363c:	1c 99       	sbic	0x03, 4	; 3
    363e:	55 c0       	rjmp	.+170    	; 0x36ea <ServiceMenu+0xba8>
    3640:	80 91 8f 05 	lds	r24, 0x058F	; 0x80058f <flag3>
    3644:	81 11       	cpse	r24, r1
    3646:	51 c0       	rjmp	.+162    	; 0x36ea <ServiceMenu+0xba8>
		{
			J1;
    3648:	41 e0       	ldi	r20, 0x01	; 1
    364a:	60 e0       	ldi	r22, 0x00	; 0
    364c:	70 e8       	ldi	r23, 0x80	; 128
    364e:	80 e0       	ldi	r24, 0x00	; 0
    3650:	90 e0       	ldi	r25, 0x00	; 0
    3652:	0e 94 77 14 	call	0x28ee	; 0x28ee <registr>
			delta_T=delta_T-1;
    3656:	20 e0       	ldi	r18, 0x00	; 0
    3658:	30 e0       	ldi	r19, 0x00	; 0
    365a:	40 e8       	ldi	r20, 0x80	; 128
    365c:	5f e3       	ldi	r21, 0x3F	; 63
    365e:	60 91 36 04 	lds	r22, 0x0436	; 0x800436 <delta_T>
    3662:	70 91 37 04 	lds	r23, 0x0437	; 0x800437 <delta_T+0x1>
    3666:	80 91 38 04 	lds	r24, 0x0438	; 0x800438 <delta_T+0x2>
    366a:	90 91 39 04 	lds	r25, 0x0439	; 0x800439 <delta_T+0x3>
    366e:	0e 94 cb 26 	call	0x4d96	; 0x4d96 <__subsf3>
    3672:	6b 01       	movw	r12, r22
    3674:	7c 01       	movw	r14, r24
			if(delta_T<-10)
    3676:	20 e0       	ldi	r18, 0x00	; 0
    3678:	30 e0       	ldi	r19, 0x00	; 0
    367a:	40 e2       	ldi	r20, 0x20	; 32
    367c:	51 ec       	ldi	r21, 0xC1	; 193
    367e:	0e 94 38 27 	call	0x4e70	; 0x4e70 <__cmpsf2>
    3682:	88 23       	and	r24, r24
    3684:	4c f0       	brlt	.+18     	; 0x3698 <ServiceMenu+0xb56>
		 }
////////////////////////////////////////////////////////////////////////////////////////////////////////////////////		
		if ((!(PINB & 0b010000))&&(flag3==0) )//кнопка выбора значения нажата
		{
			J1;
			delta_T=delta_T-1;
    3686:	c0 92 36 04 	sts	0x0436, r12	; 0x800436 <delta_T>
    368a:	d0 92 37 04 	sts	0x0437, r13	; 0x800437 <delta_T+0x1>
    368e:	e0 92 38 04 	sts	0x0438, r14	; 0x800438 <delta_T+0x2>
    3692:	f0 92 39 04 	sts	0x0439, r15	; 0x800439 <delta_T+0x3>
    3696:	08 c0       	rjmp	.+16     	; 0x36a8 <ServiceMenu+0xb66>
			if(delta_T<-10)
			{
				delta_T=0;
    3698:	10 92 36 04 	sts	0x0436, r1	; 0x800436 <delta_T>
    369c:	10 92 37 04 	sts	0x0437, r1	; 0x800437 <delta_T+0x1>
    36a0:	10 92 38 04 	sts	0x0438, r1	; 0x800438 <delta_T+0x2>
    36a4:	10 92 39 04 	sts	0x0439, r1	; 0x800439 <delta_T+0x3>
			}

			flag3=1;
    36a8:	81 e0       	ldi	r24, 0x01	; 1
    36aa:	80 93 8f 05 	sts	0x058F, r24	; 0x80058f <flag3>
			EEPROM_write(0x11,delta_T);
    36ae:	60 91 36 04 	lds	r22, 0x0436	; 0x800436 <delta_T>
    36b2:	70 91 37 04 	lds	r23, 0x0437	; 0x800437 <delta_T+0x1>
    36b6:	80 91 38 04 	lds	r24, 0x0438	; 0x800438 <delta_T+0x2>
    36ba:	90 91 39 04 	lds	r25, 0x0439	; 0x800439 <delta_T+0x3>
    36be:	0e 94 b6 27 	call	0x4f6c	; 0x4f6c <__fixunssfsi>
    36c2:	81 e1       	ldi	r24, 0x11	; 17
    36c4:	90 e0       	ldi	r25, 0x00	; 0
    36c6:	0e 94 7e 04 	call	0x8fc	; 0x8fc <EEPROM_write>
    36ca:	8f ef       	ldi	r24, 0xFF	; 255
    36cc:	99 ef       	ldi	r25, 0xF9	; 249
    36ce:	20 e0       	ldi	r18, 0x00	; 0
    36d0:	81 50       	subi	r24, 0x01	; 1
    36d2:	90 40       	sbci	r25, 0x00	; 0
    36d4:	20 40       	sbci	r18, 0x00	; 0
    36d6:	e1 f7       	brne	.-8      	; 0x36d0 <ServiceMenu+0xb8e>
    36d8:	00 c0       	rjmp	.+0      	; 0x36da <ServiceMenu+0xb98>
    36da:	00 00       	nop
			_delay_ms(20);
			J0;
    36dc:	40 e0       	ldi	r20, 0x00	; 0
    36de:	60 e0       	ldi	r22, 0x00	; 0
    36e0:	70 e8       	ldi	r23, 0x80	; 128
    36e2:	80 e0       	ldi	r24, 0x00	; 0
    36e4:	90 e0       	ldi	r25, 0x00	; 0
    36e6:	0e 94 77 14 	call	0x28ee	; 0x28ee <registr>
		}
		if ((PINB & 0b010000)&&(flag3==1) )
    36ea:	1c 9b       	sbis	0x03, 4	; 3
    36ec:	1a c0       	rjmp	.+52     	; 0x3722 <ServiceMenu+0xbe0>
    36ee:	80 91 8f 05 	lds	r24, 0x058F	; 0x80058f <flag3>
    36f2:	81 30       	cpi	r24, 0x01	; 1
    36f4:	b1 f4       	brne	.+44     	; 0x3722 <ServiceMenu+0xbe0>
		{
			J1;
    36f6:	41 e0       	ldi	r20, 0x01	; 1
    36f8:	60 e0       	ldi	r22, 0x00	; 0
    36fa:	70 e8       	ldi	r23, 0x80	; 128
    36fc:	80 e0       	ldi	r24, 0x00	; 0
    36fe:	90 e0       	ldi	r25, 0x00	; 0
    3700:	0e 94 77 14 	call	0x28ee	; 0x28ee <registr>
			flag3=0;
    3704:	10 92 8f 05 	sts	0x058F, r1	; 0x80058f <flag3>
    3708:	8f e3       	ldi	r24, 0x3F	; 63
    370a:	9c e9       	ldi	r25, 0x9C	; 156
    370c:	01 97       	sbiw	r24, 0x01	; 1
    370e:	f1 f7       	brne	.-4      	; 0x370c <ServiceMenu+0xbca>
    3710:	00 c0       	rjmp	.+0      	; 0x3712 <ServiceMenu+0xbd0>
    3712:	00 00       	nop
			_delay_ms(10);
			J0;
    3714:	40 e0       	ldi	r20, 0x00	; 0
    3716:	60 e0       	ldi	r22, 0x00	; 0
    3718:	70 e8       	ldi	r23, 0x80	; 128
    371a:	80 e0       	ldi	r24, 0x00	; 0
    371c:	90 e0       	ldi	r25, 0x00	; 0
    371e:	0e 94 77 14 	call	0x28ee	; 0x28ee <registr>
		}
				
	}
/////////////////////////////////////////////////////////////////////////////////////////////////////////////////////	
	if(service==6)
    3722:	80 91 9f 05 	lds	r24, 0x059F	; 0x80059f <service>
    3726:	86 30       	cpi	r24, 0x06	; 6
    3728:	09 f0       	breq	.+2      	; 0x372c <ServiceMenu+0xbea>
    372a:	62 c1       	rjmp	.+708    	; 0x39f0 <ServiceMenu+0xeae>
	
	{
		
		delta_F=EEPROM_read(0x09);
    372c:	89 e0       	ldi	r24, 0x09	; 9
    372e:	90 e0       	ldi	r25, 0x00	; 0
    3730:	0e 94 86 04 	call	0x90c	; 0x90c <EEPROM_read>
    3734:	90 e0       	ldi	r25, 0x00	; 0
    3736:	90 93 50 04 	sts	0x0450, r25	; 0x800450 <delta_F+0x1>
    373a:	80 93 4f 04 	sts	0x044F, r24	; 0x80044f <delta_F>
		if(delta_H<=99)
    373e:	20 e0       	ldi	r18, 0x00	; 0
    3740:	30 e0       	ldi	r19, 0x00	; 0
    3742:	46 ec       	ldi	r20, 0xC6	; 198
    3744:	52 e4       	ldi	r21, 0x42	; 66
    3746:	60 91 f5 03 	lds	r22, 0x03F5	; 0x8003f5 <delta_H>
    374a:	70 91 f6 03 	lds	r23, 0x03F6	; 0x8003f6 <delta_H+0x1>
    374e:	80 91 f7 03 	lds	r24, 0x03F7	; 0x8003f7 <delta_H+0x2>
    3752:	90 91 f8 03 	lds	r25, 0x03F8	; 0x8003f8 <delta_H+0x3>
    3756:	0e 94 38 27 	call	0x4e70	; 0x4e70 <__cmpsf2>
    375a:	18 16       	cp	r1, r24
    375c:	0c f4       	brge	.+2      	; 0x3760 <ServiceMenu+0xc1e>
    375e:	3f c0       	rjmp	.+126    	; 0x37de <ServiceMenu+0xc9c>
		{
			lcd_gotoxy(0, 0); // Выводим строки на LCD
    3760:	60 e0       	ldi	r22, 0x00	; 0
    3762:	80 e8       	ldi	r24, 0x80	; 128
    3764:	0e 94 47 05 	call	0xa8e	; 0xa8e <write_to_lcd>
			lcd_puts("Maєcёјa»ДЅaЗ    ");//Допустимая
    3768:	81 e9       	ldi	r24, 0x91	; 145
    376a:	92 e0       	ldi	r25, 0x02	; 2
    376c:	0e 94 1d 06 	call	0xc3a	; 0xc3a <lcd_puts>
			lcd_gotoxy(0, 1); // Выводим строки на LCD
    3770:	60 e0       	ldi	r22, 0x00	; 0
    3772:	80 ec       	ldi	r24, 0xC0	; 192
    3774:	0e 94 47 05 	call	0xa8e	; 0xa8e <write_to_lcd>
			lcd_puts("і»a¶ЅocїД    %");//влажность 
    3778:	83 ed       	ldi	r24, 0xD3	; 211
    377a:	92 e0       	ldi	r25, 0x02	; 2
    377c:	0e 94 1d 06 	call	0xc3a	; 0xc3a <lcd_puts>
			
			lcd_gotoxy(14, 1);
    3780:	60 e0       	ldi	r22, 0x00	; 0
    3782:	8e ec       	ldi	r24, 0xCE	; 206
    3784:	0e 94 47 05 	call	0xa8e	; 0xa8e <write_to_lcd>
			lcd_num_to_str(delta_H/10, 1); // Выводим данные времени на LCD
    3788:	20 e0       	ldi	r18, 0x00	; 0
    378a:	30 e0       	ldi	r19, 0x00	; 0
    378c:	40 e2       	ldi	r20, 0x20	; 32
    378e:	51 e4       	ldi	r21, 0x41	; 65
    3790:	60 91 f5 03 	lds	r22, 0x03F5	; 0x8003f5 <delta_H>
    3794:	70 91 f6 03 	lds	r23, 0x03F6	; 0x8003f6 <delta_H+0x1>
    3798:	80 91 f7 03 	lds	r24, 0x03F7	; 0x8003f7 <delta_H+0x2>
    379c:	90 91 f8 03 	lds	r25, 0x03F8	; 0x8003f8 <delta_H+0x3>
    37a0:	0e 94 3d 27 	call	0x4e7a	; 0x4e7a <__divsf3>
    37a4:	0e 94 b6 27 	call	0x4f6c	; 0x4f6c <__fixunssfsi>
    37a8:	dc 01       	movw	r26, r24
    37aa:	cb 01       	movw	r24, r22
    37ac:	61 e0       	ldi	r22, 0x01	; 1
    37ae:	0e 94 34 06 	call	0xc68	; 0xc68 <lcd_num_to_str>
			lcd_gotoxy(15, 1);
    37b2:	60 e0       	ldi	r22, 0x00	; 0
    37b4:	8f ec       	ldi	r24, 0xCF	; 207
    37b6:	0e 94 47 05 	call	0xa8e	; 0xa8e <write_to_lcd>
			lcd_num_to_str((int)delta_H%100, 1);
    37ba:	60 91 f5 03 	lds	r22, 0x03F5	; 0x8003f5 <delta_H>
    37be:	70 91 f6 03 	lds	r23, 0x03F6	; 0x8003f6 <delta_H+0x1>
    37c2:	80 91 f7 03 	lds	r24, 0x03F7	; 0x8003f7 <delta_H+0x2>
    37c6:	90 91 f8 03 	lds	r25, 0x03F8	; 0x8003f8 <delta_H+0x3>
    37ca:	0e 94 af 27 	call	0x4f5e	; 0x4f5e <__fixsfsi>
    37ce:	cb 01       	movw	r24, r22
    37d0:	64 e6       	ldi	r22, 0x64	; 100
    37d2:	70 e0       	ldi	r23, 0x00	; 0
    37d4:	0e 94 57 26 	call	0x4cae	; 0x4cae <__divmodhi4>
    37d8:	61 e0       	ldi	r22, 0x01	; 1
    37da:	0e 94 34 06 	call	0xc68	; 0xc68 <lcd_num_to_str>
		}
		if(delta_H>99)
    37de:	20 e0       	ldi	r18, 0x00	; 0
    37e0:	30 e0       	ldi	r19, 0x00	; 0
    37e2:	46 ec       	ldi	r20, 0xC6	; 198
    37e4:	52 e4       	ldi	r21, 0x42	; 66
    37e6:	60 91 f5 03 	lds	r22, 0x03F5	; 0x8003f5 <delta_H>
    37ea:	70 91 f6 03 	lds	r23, 0x03F6	; 0x8003f6 <delta_H+0x1>
    37ee:	80 91 f7 03 	lds	r24, 0x03F7	; 0x8003f7 <delta_H+0x2>
    37f2:	90 91 f8 03 	lds	r25, 0x03F8	; 0x8003f8 <delta_H+0x3>
    37f6:	0e 94 97 28 	call	0x512e	; 0x512e <__gesf2>
    37fa:	18 16       	cp	r1, r24
    37fc:	84 f4       	brge	.+32     	; 0x381e <ServiceMenu+0xcdc>
		{
			lcd_gotoxy(0, 0); // Выводим строки на LCD
    37fe:	60 e0       	ldi	r22, 0x00	; 0
    3800:	80 e8       	ldi	r24, 0x80	; 128
    3802:	0e 94 47 05 	call	0xa8e	; 0xa8e <write_to_lcd>
			lcd_puts("KoЅїpo»Д        ");//Контроль
    3806:	81 eb       	ldi	r24, 0xB1	; 177
    3808:	92 e0       	ldi	r25, 0x02	; 2
    380a:	0e 94 1d 06 	call	0xc3a	; 0xc3a <lcd_puts>
			lcd_gotoxy(0, 1); // Выводим строки на LCD
    380e:	60 e0       	ldi	r22, 0x00	; 0
    3810:	80 ec       	ldi	r24, 0xC0	; 192
    3812:	0e 94 47 05 	call	0xa8e	; 0xa8e <write_to_lcd>
			lcd_puts("і»a¶Ѕocїё   OTK§");//влажности ОТКЛ
    3816:	82 ee       	ldi	r24, 0xE2	; 226
    3818:	92 e0       	ldi	r25, 0x02	; 2
    381a:	0e 94 1d 06 	call	0xc3a	; 0xc3a <lcd_puts>
			
		}
		
		
		if ((!(PINB & 0b001000))&&(flag2==0) )//кнопка выбора значения нажата
    381e:	1b 99       	sbic	0x03, 3	; 3
    3820:	55 c0       	rjmp	.+170    	; 0x38cc <ServiceMenu+0xd8a>
    3822:	80 91 ce 03 	lds	r24, 0x03CE	; 0x8003ce <flag2>
    3826:	81 11       	cpse	r24, r1
    3828:	51 c0       	rjmp	.+162    	; 0x38cc <ServiceMenu+0xd8a>
		{
			J1;
    382a:	41 e0       	ldi	r20, 0x01	; 1
    382c:	60 e0       	ldi	r22, 0x00	; 0
    382e:	70 e8       	ldi	r23, 0x80	; 128
    3830:	80 e0       	ldi	r24, 0x00	; 0
    3832:	90 e0       	ldi	r25, 0x00	; 0
    3834:	0e 94 77 14 	call	0x28ee	; 0x28ee <registr>
			delta_H=delta_H+2;
    3838:	20 e0       	ldi	r18, 0x00	; 0
    383a:	30 e0       	ldi	r19, 0x00	; 0
    383c:	40 e0       	ldi	r20, 0x00	; 0
    383e:	50 e4       	ldi	r21, 0x40	; 64
    3840:	60 91 f5 03 	lds	r22, 0x03F5	; 0x8003f5 <delta_H>
    3844:	70 91 f6 03 	lds	r23, 0x03F6	; 0x8003f6 <delta_H+0x1>
    3848:	80 91 f7 03 	lds	r24, 0x03F7	; 0x8003f7 <delta_H+0x2>
    384c:	90 91 f8 03 	lds	r25, 0x03F8	; 0x8003f8 <delta_H+0x3>
    3850:	0e 94 cc 26 	call	0x4d98	; 0x4d98 <__addsf3>
    3854:	6b 01       	movw	r12, r22
    3856:	7c 01       	movw	r14, r24
			if(delta_H>100)
    3858:	20 e0       	ldi	r18, 0x00	; 0
    385a:	30 e0       	ldi	r19, 0x00	; 0
    385c:	48 ec       	ldi	r20, 0xC8	; 200
    385e:	52 e4       	ldi	r21, 0x42	; 66
    3860:	0e 94 97 28 	call	0x512e	; 0x512e <__gesf2>
    3864:	18 16       	cp	r1, r24
    3866:	4c f0       	brlt	.+18     	; 0x387a <ServiceMenu+0xd38>
		
		
		if ((!(PINB & 0b001000))&&(flag2==0) )//кнопка выбора значения нажата
		{
			J1;
			delta_H=delta_H+2;
    3868:	c0 92 f5 03 	sts	0x03F5, r12	; 0x8003f5 <delta_H>
    386c:	d0 92 f6 03 	sts	0x03F6, r13	; 0x8003f6 <delta_H+0x1>
    3870:	e0 92 f7 03 	sts	0x03F7, r14	; 0x8003f7 <delta_H+0x2>
    3874:	f0 92 f8 03 	sts	0x03F8, r15	; 0x8003f8 <delta_H+0x3>
    3878:	08 c0       	rjmp	.+16     	; 0x388a <ServiceMenu+0xd48>
			if(delta_H>100)
			{
				delta_H=0;
    387a:	10 92 f5 03 	sts	0x03F5, r1	; 0x8003f5 <delta_H>
    387e:	10 92 f6 03 	sts	0x03F6, r1	; 0x8003f6 <delta_H+0x1>
    3882:	10 92 f7 03 	sts	0x03F7, r1	; 0x8003f7 <delta_H+0x2>
    3886:	10 92 f8 03 	sts	0x03F8, r1	; 0x8003f8 <delta_H+0x3>
			}

			flag2=1;
    388a:	81 e0       	ldi	r24, 0x01	; 1
    388c:	80 93 ce 03 	sts	0x03CE, r24	; 0x8003ce <flag2>
			EEPROM_write(0x12,delta_H);
    3890:	60 91 f5 03 	lds	r22, 0x03F5	; 0x8003f5 <delta_H>
    3894:	70 91 f6 03 	lds	r23, 0x03F6	; 0x8003f6 <delta_H+0x1>
    3898:	80 91 f7 03 	lds	r24, 0x03F7	; 0x8003f7 <delta_H+0x2>
    389c:	90 91 f8 03 	lds	r25, 0x03F8	; 0x8003f8 <delta_H+0x3>
    38a0:	0e 94 b6 27 	call	0x4f6c	; 0x4f6c <__fixunssfsi>
    38a4:	82 e1       	ldi	r24, 0x12	; 18
    38a6:	90 e0       	ldi	r25, 0x00	; 0
    38a8:	0e 94 7e 04 	call	0x8fc	; 0x8fc <EEPROM_write>
    38ac:	9f ef       	ldi	r25, 0xFF	; 255
    38ae:	29 ef       	ldi	r18, 0xF9	; 249
    38b0:	30 e0       	ldi	r19, 0x00	; 0
    38b2:	91 50       	subi	r25, 0x01	; 1
    38b4:	20 40       	sbci	r18, 0x00	; 0
    38b6:	30 40       	sbci	r19, 0x00	; 0
    38b8:	e1 f7       	brne	.-8      	; 0x38b2 <ServiceMenu+0xd70>
    38ba:	00 c0       	rjmp	.+0      	; 0x38bc <ServiceMenu+0xd7a>
    38bc:	00 00       	nop
			_delay_ms(20);
			J0;
    38be:	40 e0       	ldi	r20, 0x00	; 0
    38c0:	60 e0       	ldi	r22, 0x00	; 0
    38c2:	70 e8       	ldi	r23, 0x80	; 128
    38c4:	80 e0       	ldi	r24, 0x00	; 0
    38c6:	90 e0       	ldi	r25, 0x00	; 0
    38c8:	0e 94 77 14 	call	0x28ee	; 0x28ee <registr>
		}
		if ((PINB & 0b001000)&&(flag2==1) )
    38cc:	1b 9b       	sbis	0x03, 3	; 3
    38ce:	1a c0       	rjmp	.+52     	; 0x3904 <ServiceMenu+0xdc2>
    38d0:	80 91 ce 03 	lds	r24, 0x03CE	; 0x8003ce <flag2>
    38d4:	81 30       	cpi	r24, 0x01	; 1
    38d6:	b1 f4       	brne	.+44     	; 0x3904 <ServiceMenu+0xdc2>
		{
			flag2=0;
    38d8:	10 92 ce 03 	sts	0x03CE, r1	; 0x8003ce <flag2>
			J1;
    38dc:	41 e0       	ldi	r20, 0x01	; 1
    38de:	60 e0       	ldi	r22, 0x00	; 0
    38e0:	70 e8       	ldi	r23, 0x80	; 128
    38e2:	80 e0       	ldi	r24, 0x00	; 0
    38e4:	90 e0       	ldi	r25, 0x00	; 0
    38e6:	0e 94 77 14 	call	0x28ee	; 0x28ee <registr>
    38ea:	8f e3       	ldi	r24, 0x3F	; 63
    38ec:	9c e9       	ldi	r25, 0x9C	; 156
    38ee:	01 97       	sbiw	r24, 0x01	; 1
    38f0:	f1 f7       	brne	.-4      	; 0x38ee <ServiceMenu+0xdac>
    38f2:	00 c0       	rjmp	.+0      	; 0x38f4 <ServiceMenu+0xdb2>
    38f4:	00 00       	nop
			_delay_ms(10);
			J0;
    38f6:	40 e0       	ldi	r20, 0x00	; 0
    38f8:	60 e0       	ldi	r22, 0x00	; 0
    38fa:	70 e8       	ldi	r23, 0x80	; 128
    38fc:	80 e0       	ldi	r24, 0x00	; 0
    38fe:	90 e0       	ldi	r25, 0x00	; 0
    3900:	0e 94 77 14 	call	0x28ee	; 0x28ee <registr>
		}
		
		if ((!(PINB & 0b010000))&&(flag3==0) )//кнопка выбора значения нажата
    3904:	1c 99       	sbic	0x03, 4	; 3
    3906:	58 c0       	rjmp	.+176    	; 0x39b8 <ServiceMenu+0xe76>
    3908:	80 91 8f 05 	lds	r24, 0x058F	; 0x80058f <flag3>
    390c:	81 11       	cpse	r24, r1
    390e:	54 c0       	rjmp	.+168    	; 0x39b8 <ServiceMenu+0xe76>
		{
			J1;
    3910:	41 e0       	ldi	r20, 0x01	; 1
    3912:	60 e0       	ldi	r22, 0x00	; 0
    3914:	70 e8       	ldi	r23, 0x80	; 128
    3916:	80 e0       	ldi	r24, 0x00	; 0
    3918:	90 e0       	ldi	r25, 0x00	; 0
    391a:	0e 94 77 14 	call	0x28ee	; 0x28ee <registr>
			delta_H=delta_H-1;
    391e:	20 e0       	ldi	r18, 0x00	; 0
    3920:	30 e0       	ldi	r19, 0x00	; 0
    3922:	40 e8       	ldi	r20, 0x80	; 128
    3924:	5f e3       	ldi	r21, 0x3F	; 63
    3926:	60 91 f5 03 	lds	r22, 0x03F5	; 0x8003f5 <delta_H>
    392a:	70 91 f6 03 	lds	r23, 0x03F6	; 0x8003f6 <delta_H+0x1>
    392e:	80 91 f7 03 	lds	r24, 0x03F7	; 0x8003f7 <delta_H+0x2>
    3932:	90 91 f8 03 	lds	r25, 0x03F8	; 0x8003f8 <delta_H+0x3>
    3936:	0e 94 cb 26 	call	0x4d96	; 0x4d96 <__subsf3>
    393a:	6b 01       	movw	r12, r22
    393c:	7c 01       	movw	r14, r24
			if(delta_H<0)
    393e:	20 e0       	ldi	r18, 0x00	; 0
    3940:	30 e0       	ldi	r19, 0x00	; 0
    3942:	a9 01       	movw	r20, r18
    3944:	0e 94 38 27 	call	0x4e70	; 0x4e70 <__cmpsf2>
    3948:	88 23       	and	r24, r24
    394a:	4c f0       	brlt	.+18     	; 0x395e <ServiceMenu+0xe1c>
		}
		
		if ((!(PINB & 0b010000))&&(flag3==0) )//кнопка выбора значения нажата
		{
			J1;
			delta_H=delta_H-1;
    394c:	c0 92 f5 03 	sts	0x03F5, r12	; 0x8003f5 <delta_H>
    3950:	d0 92 f6 03 	sts	0x03F6, r13	; 0x8003f6 <delta_H+0x1>
    3954:	e0 92 f7 03 	sts	0x03F7, r14	; 0x8003f7 <delta_H+0x2>
    3958:	f0 92 f8 03 	sts	0x03F8, r15	; 0x8003f8 <delta_H+0x3>
    395c:	0c c0       	rjmp	.+24     	; 0x3976 <ServiceMenu+0xe34>
			if(delta_H<0)
			{
				delta_H=100;
    395e:	80 e0       	ldi	r24, 0x00	; 0
    3960:	90 e0       	ldi	r25, 0x00	; 0
    3962:	a8 ec       	ldi	r26, 0xC8	; 200
    3964:	b2 e4       	ldi	r27, 0x42	; 66
    3966:	80 93 f5 03 	sts	0x03F5, r24	; 0x8003f5 <delta_H>
    396a:	90 93 f6 03 	sts	0x03F6, r25	; 0x8003f6 <delta_H+0x1>
    396e:	a0 93 f7 03 	sts	0x03F7, r26	; 0x8003f7 <delta_H+0x2>
    3972:	b0 93 f8 03 	sts	0x03F8, r27	; 0x8003f8 <delta_H+0x3>
			}

			flag3=1;
    3976:	81 e0       	ldi	r24, 0x01	; 1
    3978:	80 93 8f 05 	sts	0x058F, r24	; 0x80058f <flag3>
			EEPROM_write(0x12,delta_H);
    397c:	60 91 f5 03 	lds	r22, 0x03F5	; 0x8003f5 <delta_H>
    3980:	70 91 f6 03 	lds	r23, 0x03F6	; 0x8003f6 <delta_H+0x1>
    3984:	80 91 f7 03 	lds	r24, 0x03F7	; 0x8003f7 <delta_H+0x2>
    3988:	90 91 f8 03 	lds	r25, 0x03F8	; 0x8003f8 <delta_H+0x3>
    398c:	0e 94 b6 27 	call	0x4f6c	; 0x4f6c <__fixunssfsi>
    3990:	82 e1       	ldi	r24, 0x12	; 18
    3992:	90 e0       	ldi	r25, 0x00	; 0
    3994:	0e 94 7e 04 	call	0x8fc	; 0x8fc <EEPROM_write>
    3998:	9f ef       	ldi	r25, 0xFF	; 255
    399a:	29 ef       	ldi	r18, 0xF9	; 249
    399c:	30 e0       	ldi	r19, 0x00	; 0
    399e:	91 50       	subi	r25, 0x01	; 1
    39a0:	20 40       	sbci	r18, 0x00	; 0
    39a2:	30 40       	sbci	r19, 0x00	; 0
    39a4:	e1 f7       	brne	.-8      	; 0x399e <ServiceMenu+0xe5c>
    39a6:	00 c0       	rjmp	.+0      	; 0x39a8 <ServiceMenu+0xe66>
    39a8:	00 00       	nop
			_delay_ms(20);
			J0;
    39aa:	40 e0       	ldi	r20, 0x00	; 0
    39ac:	60 e0       	ldi	r22, 0x00	; 0
    39ae:	70 e8       	ldi	r23, 0x80	; 128
    39b0:	80 e0       	ldi	r24, 0x00	; 0
    39b2:	90 e0       	ldi	r25, 0x00	; 0
    39b4:	0e 94 77 14 	call	0x28ee	; 0x28ee <registr>
		}
		if ((PINB & 0b010000)&&(flag3==1) )
    39b8:	1c 9b       	sbis	0x03, 4	; 3
    39ba:	1a c0       	rjmp	.+52     	; 0x39f0 <ServiceMenu+0xeae>
    39bc:	80 91 8f 05 	lds	r24, 0x058F	; 0x80058f <flag3>
    39c0:	81 30       	cpi	r24, 0x01	; 1
    39c2:	b1 f4       	brne	.+44     	; 0x39f0 <ServiceMenu+0xeae>
		{
			J1;
    39c4:	41 e0       	ldi	r20, 0x01	; 1
    39c6:	60 e0       	ldi	r22, 0x00	; 0
    39c8:	70 e8       	ldi	r23, 0x80	; 128
    39ca:	80 e0       	ldi	r24, 0x00	; 0
    39cc:	90 e0       	ldi	r25, 0x00	; 0
    39ce:	0e 94 77 14 	call	0x28ee	; 0x28ee <registr>
			flag3=0;
    39d2:	10 92 8f 05 	sts	0x058F, r1	; 0x80058f <flag3>
    39d6:	8f e3       	ldi	r24, 0x3F	; 63
    39d8:	9c e9       	ldi	r25, 0x9C	; 156
    39da:	01 97       	sbiw	r24, 0x01	; 1
    39dc:	f1 f7       	brne	.-4      	; 0x39da <ServiceMenu+0xe98>
    39de:	00 c0       	rjmp	.+0      	; 0x39e0 <ServiceMenu+0xe9e>
    39e0:	00 00       	nop
			_delay_ms(10);
			J0;
    39e2:	40 e0       	ldi	r20, 0x00	; 0
    39e4:	60 e0       	ldi	r22, 0x00	; 0
    39e6:	70 e8       	ldi	r23, 0x80	; 128
    39e8:	80 e0       	ldi	r24, 0x00	; 0
    39ea:	90 e0       	ldi	r25, 0x00	; 0
    39ec:	0e 94 77 14 	call	0x28ee	; 0x28ee <registr>
		}
		
		
	}
	////////////////////////////////////////////////////////////////////////////////////////
	if(service==7)
    39f0:	80 91 9f 05 	lds	r24, 0x059F	; 0x80059f <service>
    39f4:	87 30       	cpi	r24, 0x07	; 7
    39f6:	09 f0       	breq	.+2      	; 0x39fa <ServiceMenu+0xeb8>
    39f8:	7c c1       	rjmp	.+760    	; 0x3cf2 <ServiceMenu+0x11b0>
	
	{
		if(delta_T>=61){service=service+1;}
    39fa:	c0 90 36 04 	lds	r12, 0x0436	; 0x800436 <delta_T>
    39fe:	d0 90 37 04 	lds	r13, 0x0437	; 0x800437 <delta_T+0x1>
    3a02:	e0 90 38 04 	lds	r14, 0x0438	; 0x800438 <delta_T+0x2>
    3a06:	f0 90 39 04 	lds	r15, 0x0439	; 0x800439 <delta_T+0x3>
    3a0a:	20 e0       	ldi	r18, 0x00	; 0
    3a0c:	30 e0       	ldi	r19, 0x00	; 0
    3a0e:	44 e7       	ldi	r20, 0x74	; 116
    3a10:	52 e4       	ldi	r21, 0x42	; 66
    3a12:	c7 01       	movw	r24, r14
    3a14:	b6 01       	movw	r22, r12
    3a16:	0e 94 97 28 	call	0x512e	; 0x512e <__gesf2>
    3a1a:	88 23       	and	r24, r24
    3a1c:	1c f0       	brlt	.+6      	; 0x3a24 <ServiceMenu+0xee2>
    3a1e:	88 e0       	ldi	r24, 0x08	; 8
    3a20:	80 93 9f 05 	sts	0x059F, r24	; 0x80059f <service>
			
		if((dt<=5.5)&&(delta_T<61))
    3a24:	20 e0       	ldi	r18, 0x00	; 0
    3a26:	30 e0       	ldi	r19, 0x00	; 0
    3a28:	40 eb       	ldi	r20, 0xB0	; 176
    3a2a:	50 e4       	ldi	r21, 0x40	; 64
    3a2c:	60 91 8b 05 	lds	r22, 0x058B	; 0x80058b <dt>
    3a30:	70 91 8c 05 	lds	r23, 0x058C	; 0x80058c <dt+0x1>
    3a34:	80 91 8d 05 	lds	r24, 0x058D	; 0x80058d <dt+0x2>
    3a38:	90 91 8e 05 	lds	r25, 0x058E	; 0x80058e <dt+0x3>
    3a3c:	0e 94 38 27 	call	0x4e70	; 0x4e70 <__cmpsf2>
    3a40:	18 16       	cp	r1, r24
    3a42:	cc f1       	brlt	.+114    	; 0x3ab6 <ServiceMenu+0xf74>
    3a44:	20 e0       	ldi	r18, 0x00	; 0
    3a46:	30 e0       	ldi	r19, 0x00	; 0
    3a48:	44 e7       	ldi	r20, 0x74	; 116
    3a4a:	52 e4       	ldi	r21, 0x42	; 66
    3a4c:	c7 01       	movw	r24, r14
    3a4e:	b6 01       	movw	r22, r12
    3a50:	0e 94 38 27 	call	0x4e70	; 0x4e70 <__cmpsf2>
    3a54:	88 23       	and	r24, r24
    3a56:	7c f5       	brge	.+94     	; 0x3ab6 <ServiceMenu+0xf74>
		{
			lcd_gotoxy(0, 0); // Выводим строки на LCD
    3a58:	60 e0       	ldi	r22, 0x00	; 0
    3a5a:	80 e8       	ldi	r24, 0x80	; 128
    3a5c:	0e 94 47 05 	call	0xa8e	; 0xa8e <write_to_lcd>
			lcd_puts("Ўёcїepe·ёc      ");//Допустимая
    3a60:	83 ef       	ldi	r24, 0xF3	; 243
    3a62:	92 e0       	ldi	r25, 0x02	; 2
    3a64:	0e 94 1d 06 	call	0xc3a	; 0xc3a <lcd_puts>
			
			
			lcd_gotoxy(0,1);              //перешли
    3a68:	60 e0       	ldi	r22, 0x00	; 0
    3a6a:	80 ec       	ldi	r24, 0xC0	; 192
    3a6c:	0e 94 47 05 	call	0xa8e	; 0xa8e <write_to_lcd>
			sprintf(buff,"Tmp+/-   %.1fC      ",dt);
    3a70:	80 91 8e 05 	lds	r24, 0x058E	; 0x80058e <dt+0x3>
    3a74:	8f 93       	push	r24
    3a76:	80 91 8d 05 	lds	r24, 0x058D	; 0x80058d <dt+0x2>
    3a7a:	8f 93       	push	r24
    3a7c:	80 91 8c 05 	lds	r24, 0x058C	; 0x80058c <dt+0x1>
    3a80:	8f 93       	push	r24
    3a82:	80 91 8b 05 	lds	r24, 0x058B	; 0x80058b <dt>
    3a86:	8f 93       	push	r24
    3a88:	84 e0       	ldi	r24, 0x04	; 4
    3a8a:	93 e0       	ldi	r25, 0x03	; 3
    3a8c:	9f 93       	push	r25
    3a8e:	8f 93       	push	r24
    3a90:	81 eb       	ldi	r24, 0xB1	; 177
    3a92:	93 e0       	ldi	r25, 0x03	; 3
    3a94:	9f 93       	push	r25
    3a96:	8f 93       	push	r24
    3a98:	0e 94 33 2a 	call	0x5466	; 0x5466 <sprintf>
			lcd_puts(buff);
    3a9c:	81 eb       	ldi	r24, 0xB1	; 177
    3a9e:	93 e0       	ldi	r25, 0x03	; 3
    3aa0:	0e 94 1d 06 	call	0xc3a	; 0xc3a <lcd_puts>
    3aa4:	2d b7       	in	r18, 0x3d	; 61
    3aa6:	3e b7       	in	r19, 0x3e	; 62
    3aa8:	28 5f       	subi	r18, 0xF8	; 248
    3aaa:	3f 4f       	sbci	r19, 0xFF	; 255
    3aac:	0f b6       	in	r0, 0x3f	; 63
    3aae:	f8 94       	cli
    3ab0:	3e bf       	out	0x3e, r19	; 62
    3ab2:	0f be       	out	0x3f, r0	; 63
    3ab4:	2d bf       	out	0x3d, r18	; 61
		}
		if(dt>5.5)
    3ab6:	20 e0       	ldi	r18, 0x00	; 0
    3ab8:	30 e0       	ldi	r19, 0x00	; 0
    3aba:	40 eb       	ldi	r20, 0xB0	; 176
    3abc:	50 e4       	ldi	r21, 0x40	; 64
    3abe:	60 91 8b 05 	lds	r22, 0x058B	; 0x80058b <dt>
    3ac2:	70 91 8c 05 	lds	r23, 0x058C	; 0x80058c <dt+0x1>
    3ac6:	80 91 8d 05 	lds	r24, 0x058D	; 0x80058d <dt+0x2>
    3aca:	90 91 8e 05 	lds	r25, 0x058E	; 0x80058e <dt+0x3>
    3ace:	0e 94 97 28 	call	0x512e	; 0x512e <__gesf2>
    3ad2:	18 16       	cp	r1, r24
    3ad4:	44 f4       	brge	.+16     	; 0x3ae6 <ServiceMenu+0xfa4>
		{
			dt=0;		
    3ad6:	10 92 8b 05 	sts	0x058B, r1	; 0x80058b <dt>
    3ada:	10 92 8c 05 	sts	0x058C, r1	; 0x80058c <dt+0x1>
    3ade:	10 92 8d 05 	sts	0x058D, r1	; 0x80058d <dt+0x2>
    3ae2:	10 92 8e 05 	sts	0x058E, r1	; 0x80058e <dt+0x3>
		}
		
		
		if ((!(PINB & 0b001000))&&(flag2==0) )//кнопка выбора значения нажата
    3ae6:	1b 99       	sbic	0x03, 3	; 3
    3ae8:	74 c0       	rjmp	.+232    	; 0x3bd2 <ServiceMenu+0x1090>
    3aea:	80 91 ce 03 	lds	r24, 0x03CE	; 0x8003ce <flag2>
    3aee:	81 11       	cpse	r24, r1
    3af0:	70 c0       	rjmp	.+224    	; 0x3bd2 <ServiceMenu+0x1090>
		{
			J1;
    3af2:	41 e0       	ldi	r20, 0x01	; 1
    3af4:	60 e0       	ldi	r22, 0x00	; 0
    3af6:	70 e8       	ldi	r23, 0x80	; 128
    3af8:	80 e0       	ldi	r24, 0x00	; 0
    3afa:	90 e0       	ldi	r25, 0x00	; 0
    3afc:	0e 94 77 14 	call	0x28ee	; 0x28ee <registr>
			dt=dt+0.1;
    3b00:	2d ec       	ldi	r18, 0xCD	; 205
    3b02:	3c ec       	ldi	r19, 0xCC	; 204
    3b04:	4c ec       	ldi	r20, 0xCC	; 204
    3b06:	5d e3       	ldi	r21, 0x3D	; 61
    3b08:	60 91 8b 05 	lds	r22, 0x058B	; 0x80058b <dt>
    3b0c:	70 91 8c 05 	lds	r23, 0x058C	; 0x80058c <dt+0x1>
    3b10:	80 91 8d 05 	lds	r24, 0x058D	; 0x80058d <dt+0x2>
    3b14:	90 91 8e 05 	lds	r25, 0x058E	; 0x80058e <dt+0x3>
    3b18:	0e 94 cc 26 	call	0x4d98	; 0x4d98 <__addsf3>
    3b1c:	6b 01       	movw	r12, r22
    3b1e:	7c 01       	movw	r14, r24
			if(dt>5.5)
    3b20:	20 e0       	ldi	r18, 0x00	; 0
    3b22:	30 e0       	ldi	r19, 0x00	; 0
    3b24:	40 eb       	ldi	r20, 0xB0	; 176
    3b26:	50 e4       	ldi	r21, 0x40	; 64
    3b28:	0e 94 97 28 	call	0x512e	; 0x512e <__gesf2>
    3b2c:	18 16       	cp	r1, r24
    3b2e:	4c f0       	brlt	.+18     	; 0x3b42 <ServiceMenu+0x1000>
		
		
		if ((!(PINB & 0b001000))&&(flag2==0) )//кнопка выбора значения нажата
		{
			J1;
			dt=dt+0.1;
    3b30:	c0 92 8b 05 	sts	0x058B, r12	; 0x80058b <dt>
    3b34:	d0 92 8c 05 	sts	0x058C, r13	; 0x80058c <dt+0x1>
    3b38:	e0 92 8d 05 	sts	0x058D, r14	; 0x80058d <dt+0x2>
    3b3c:	f0 92 8e 05 	sts	0x058E, r15	; 0x80058e <dt+0x3>
    3b40:	08 c0       	rjmp	.+16     	; 0x3b52 <ServiceMenu+0x1010>
			if(dt>5.5)
			{
				dt=0;
    3b42:	10 92 8b 05 	sts	0x058B, r1	; 0x80058b <dt>
    3b46:	10 92 8c 05 	sts	0x058C, r1	; 0x80058c <dt+0x1>
    3b4a:	10 92 8d 05 	sts	0x058D, r1	; 0x80058d <dt+0x2>
    3b4e:	10 92 8e 05 	sts	0x058E, r1	; 0x80058e <dt+0x3>
			}

			flag2=1;
    3b52:	81 e0       	ldi	r24, 0x01	; 1
    3b54:	80 93 ce 03 	sts	0x03CE, r24	; 0x8003ce <flag2>
			dt1=dt/1;
    3b58:	60 91 8b 05 	lds	r22, 0x058B	; 0x80058b <dt>
    3b5c:	70 91 8c 05 	lds	r23, 0x058C	; 0x80058c <dt+0x1>
    3b60:	80 91 8d 05 	lds	r24, 0x058D	; 0x80058d <dt+0x2>
    3b64:	90 91 8e 05 	lds	r25, 0x058E	; 0x80058e <dt+0x3>
    3b68:	0e 94 af 27 	call	0x4f5e	; 0x4f5e <__fixsfsi>
    3b6c:	26 2f       	mov	r18, r22
    3b6e:	60 93 9a 05 	sts	0x059A, r22	; 0x80059a <dt1>
    3b72:	70 93 9b 05 	sts	0x059B, r23	; 0x80059b <dt1+0x1>
			dt2=((int)dt*10)%10;
    3b76:	86 2f       	mov	r24, r22
    3b78:	97 2f       	mov	r25, r23
    3b7a:	88 0f       	add	r24, r24
    3b7c:	99 1f       	adc	r25, r25
    3b7e:	ac 01       	movw	r20, r24
    3b80:	44 0f       	add	r20, r20
    3b82:	55 1f       	adc	r21, r21
    3b84:	44 0f       	add	r20, r20
    3b86:	55 1f       	adc	r21, r21
    3b88:	84 0f       	add	r24, r20
    3b8a:	95 1f       	adc	r25, r21
    3b8c:	6a e0       	ldi	r22, 0x0A	; 10
    3b8e:	70 e0       	ldi	r23, 0x00	; 0
    3b90:	0e 94 57 26 	call	0x4cae	; 0x4cae <__divmodhi4>
    3b94:	90 93 9d 03 	sts	0x039D, r25	; 0x80039d <dt2+0x1>
    3b98:	80 93 9c 03 	sts	0x039C, r24	; 0x80039c <dt2>
			EEPROM_write(0x13,dt1);
    3b9c:	62 2f       	mov	r22, r18
    3b9e:	83 e1       	ldi	r24, 0x13	; 19
    3ba0:	90 e0       	ldi	r25, 0x00	; 0
    3ba2:	0e 94 7e 04 	call	0x8fc	; 0x8fc <EEPROM_write>
			EEPROM_write(0x14,dt2);
    3ba6:	60 91 9c 03 	lds	r22, 0x039C	; 0x80039c <dt2>
    3baa:	84 e1       	ldi	r24, 0x14	; 20
    3bac:	90 e0       	ldi	r25, 0x00	; 0
    3bae:	0e 94 7e 04 	call	0x8fc	; 0x8fc <EEPROM_write>
    3bb2:	3f ef       	ldi	r19, 0xFF	; 255
    3bb4:	89 ef       	ldi	r24, 0xF9	; 249
    3bb6:	90 e0       	ldi	r25, 0x00	; 0
    3bb8:	31 50       	subi	r19, 0x01	; 1
    3bba:	80 40       	sbci	r24, 0x00	; 0
    3bbc:	90 40       	sbci	r25, 0x00	; 0
    3bbe:	e1 f7       	brne	.-8      	; 0x3bb8 <ServiceMenu+0x1076>
    3bc0:	00 c0       	rjmp	.+0      	; 0x3bc2 <ServiceMenu+0x1080>
    3bc2:	00 00       	nop
			_delay_ms(20);
			J0;
    3bc4:	40 e0       	ldi	r20, 0x00	; 0
    3bc6:	60 e0       	ldi	r22, 0x00	; 0
    3bc8:	70 e8       	ldi	r23, 0x80	; 128
    3bca:	80 e0       	ldi	r24, 0x00	; 0
    3bcc:	90 e0       	ldi	r25, 0x00	; 0
    3bce:	0e 94 77 14 	call	0x28ee	; 0x28ee <registr>
		}
		if ((PINB & 0b001000)&&(flag2==1) )
    3bd2:	1b 9b       	sbis	0x03, 3	; 3
    3bd4:	1a c0       	rjmp	.+52     	; 0x3c0a <ServiceMenu+0x10c8>
    3bd6:	80 91 ce 03 	lds	r24, 0x03CE	; 0x8003ce <flag2>
    3bda:	81 30       	cpi	r24, 0x01	; 1
    3bdc:	b1 f4       	brne	.+44     	; 0x3c0a <ServiceMenu+0x10c8>
		{
			flag2=0;
    3bde:	10 92 ce 03 	sts	0x03CE, r1	; 0x8003ce <flag2>
			J1;
    3be2:	41 e0       	ldi	r20, 0x01	; 1
    3be4:	60 e0       	ldi	r22, 0x00	; 0
    3be6:	70 e8       	ldi	r23, 0x80	; 128
    3be8:	80 e0       	ldi	r24, 0x00	; 0
    3bea:	90 e0       	ldi	r25, 0x00	; 0
    3bec:	0e 94 77 14 	call	0x28ee	; 0x28ee <registr>
    3bf0:	8f e3       	ldi	r24, 0x3F	; 63
    3bf2:	9c e9       	ldi	r25, 0x9C	; 156
    3bf4:	01 97       	sbiw	r24, 0x01	; 1
    3bf6:	f1 f7       	brne	.-4      	; 0x3bf4 <ServiceMenu+0x10b2>
    3bf8:	00 c0       	rjmp	.+0      	; 0x3bfa <ServiceMenu+0x10b8>
    3bfa:	00 00       	nop
			_delay_ms(10);
			J0;
    3bfc:	40 e0       	ldi	r20, 0x00	; 0
    3bfe:	60 e0       	ldi	r22, 0x00	; 0
    3c00:	70 e8       	ldi	r23, 0x80	; 128
    3c02:	80 e0       	ldi	r24, 0x00	; 0
    3c04:	90 e0       	ldi	r25, 0x00	; 0
    3c06:	0e 94 77 14 	call	0x28ee	; 0x28ee <registr>
		}
		
		if ((!(PINB & 0b010000))&&(flag3==0) )//кнопка выбора значения нажата
    3c0a:	1c 99       	sbic	0x03, 4	; 3
    3c0c:	56 c0       	rjmp	.+172    	; 0x3cba <ServiceMenu+0x1178>
    3c0e:	80 91 8f 05 	lds	r24, 0x058F	; 0x80058f <flag3>
    3c12:	81 11       	cpse	r24, r1
    3c14:	52 c0       	rjmp	.+164    	; 0x3cba <ServiceMenu+0x1178>
		{
			J1;
    3c16:	41 e0       	ldi	r20, 0x01	; 1
    3c18:	60 e0       	ldi	r22, 0x00	; 0
    3c1a:	70 e8       	ldi	r23, 0x80	; 128
    3c1c:	80 e0       	ldi	r24, 0x00	; 0
    3c1e:	90 e0       	ldi	r25, 0x00	; 0
    3c20:	0e 94 77 14 	call	0x28ee	; 0x28ee <registr>
			dt=dt-0.1;
    3c24:	2d ec       	ldi	r18, 0xCD	; 205
    3c26:	3c ec       	ldi	r19, 0xCC	; 204
    3c28:	4c ec       	ldi	r20, 0xCC	; 204
    3c2a:	5d e3       	ldi	r21, 0x3D	; 61
    3c2c:	60 91 8b 05 	lds	r22, 0x058B	; 0x80058b <dt>
    3c30:	70 91 8c 05 	lds	r23, 0x058C	; 0x80058c <dt+0x1>
    3c34:	80 91 8d 05 	lds	r24, 0x058D	; 0x80058d <dt+0x2>
    3c38:	90 91 8e 05 	lds	r25, 0x058E	; 0x80058e <dt+0x3>
    3c3c:	0e 94 cb 26 	call	0x4d96	; 0x4d96 <__subsf3>
    3c40:	6b 01       	movw	r12, r22
    3c42:	7c 01       	movw	r14, r24
			if(dt<0)
    3c44:	20 e0       	ldi	r18, 0x00	; 0
    3c46:	30 e0       	ldi	r19, 0x00	; 0
    3c48:	a9 01       	movw	r20, r18
    3c4a:	0e 94 38 27 	call	0x4e70	; 0x4e70 <__cmpsf2>
    3c4e:	88 23       	and	r24, r24
    3c50:	4c f0       	brlt	.+18     	; 0x3c64 <ServiceMenu+0x1122>
		}
		
		if ((!(PINB & 0b010000))&&(flag3==0) )//кнопка выбора значения нажата
		{
			J1;
			dt=dt-0.1;
    3c52:	c0 92 8b 05 	sts	0x058B, r12	; 0x80058b <dt>
    3c56:	d0 92 8c 05 	sts	0x058C, r13	; 0x80058c <dt+0x1>
    3c5a:	e0 92 8d 05 	sts	0x058D, r14	; 0x80058d <dt+0x2>
    3c5e:	f0 92 8e 05 	sts	0x058E, r15	; 0x80058e <dt+0x3>
    3c62:	0c c0       	rjmp	.+24     	; 0x3c7c <ServiceMenu+0x113a>
			if(dt<0)
			{
				dt=5.6;
    3c64:	83 e3       	ldi	r24, 0x33	; 51
    3c66:	93 e3       	ldi	r25, 0x33	; 51
    3c68:	a3 eb       	ldi	r26, 0xB3	; 179
    3c6a:	b0 e4       	ldi	r27, 0x40	; 64
    3c6c:	80 93 8b 05 	sts	0x058B, r24	; 0x80058b <dt>
    3c70:	90 93 8c 05 	sts	0x058C, r25	; 0x80058c <dt+0x1>
    3c74:	a0 93 8d 05 	sts	0x058D, r26	; 0x80058d <dt+0x2>
    3c78:	b0 93 8e 05 	sts	0x058E, r27	; 0x80058e <dt+0x3>
			}

			flag3=1;
    3c7c:	81 e0       	ldi	r24, 0x01	; 1
    3c7e:	80 93 8f 05 	sts	0x058F, r24	; 0x80058f <flag3>
			EEPROM_write(0x13,dt1);
    3c82:	60 91 9a 05 	lds	r22, 0x059A	; 0x80059a <dt1>
    3c86:	83 e1       	ldi	r24, 0x13	; 19
    3c88:	90 e0       	ldi	r25, 0x00	; 0
    3c8a:	0e 94 7e 04 	call	0x8fc	; 0x8fc <EEPROM_write>
			EEPROM_write(0x14,dt2);
    3c8e:	60 91 9c 03 	lds	r22, 0x039C	; 0x80039c <dt2>
    3c92:	84 e1       	ldi	r24, 0x14	; 20
    3c94:	90 e0       	ldi	r25, 0x00	; 0
    3c96:	0e 94 7e 04 	call	0x8fc	; 0x8fc <EEPROM_write>
    3c9a:	9f ef       	ldi	r25, 0xFF	; 255
    3c9c:	29 ef       	ldi	r18, 0xF9	; 249
    3c9e:	30 e0       	ldi	r19, 0x00	; 0
    3ca0:	91 50       	subi	r25, 0x01	; 1
    3ca2:	20 40       	sbci	r18, 0x00	; 0
    3ca4:	30 40       	sbci	r19, 0x00	; 0
    3ca6:	e1 f7       	brne	.-8      	; 0x3ca0 <ServiceMenu+0x115e>
    3ca8:	00 c0       	rjmp	.+0      	; 0x3caa <ServiceMenu+0x1168>
    3caa:	00 00       	nop
			_delay_ms(20);
			J0;
    3cac:	40 e0       	ldi	r20, 0x00	; 0
    3cae:	60 e0       	ldi	r22, 0x00	; 0
    3cb0:	70 e8       	ldi	r23, 0x80	; 128
    3cb2:	80 e0       	ldi	r24, 0x00	; 0
    3cb4:	90 e0       	ldi	r25, 0x00	; 0
    3cb6:	0e 94 77 14 	call	0x28ee	; 0x28ee <registr>
		}
		if ((PINB & 0b010000)&&(flag3==1) )
    3cba:	1c 9b       	sbis	0x03, 4	; 3
    3cbc:	1a c0       	rjmp	.+52     	; 0x3cf2 <ServiceMenu+0x11b0>
    3cbe:	80 91 8f 05 	lds	r24, 0x058F	; 0x80058f <flag3>
    3cc2:	81 30       	cpi	r24, 0x01	; 1
    3cc4:	b1 f4       	brne	.+44     	; 0x3cf2 <ServiceMenu+0x11b0>
		{
			J1;
    3cc6:	41 e0       	ldi	r20, 0x01	; 1
    3cc8:	60 e0       	ldi	r22, 0x00	; 0
    3cca:	70 e8       	ldi	r23, 0x80	; 128
    3ccc:	80 e0       	ldi	r24, 0x00	; 0
    3cce:	90 e0       	ldi	r25, 0x00	; 0
    3cd0:	0e 94 77 14 	call	0x28ee	; 0x28ee <registr>
			flag3=0;
    3cd4:	10 92 8f 05 	sts	0x058F, r1	; 0x80058f <flag3>
    3cd8:	8f e3       	ldi	r24, 0x3F	; 63
    3cda:	9c e9       	ldi	r25, 0x9C	; 156
    3cdc:	01 97       	sbiw	r24, 0x01	; 1
    3cde:	f1 f7       	brne	.-4      	; 0x3cdc <ServiceMenu+0x119a>
    3ce0:	00 c0       	rjmp	.+0      	; 0x3ce2 <ServiceMenu+0x11a0>
    3ce2:	00 00       	nop
			_delay_ms(10);
			J0;
    3ce4:	40 e0       	ldi	r20, 0x00	; 0
    3ce6:	60 e0       	ldi	r22, 0x00	; 0
    3ce8:	70 e8       	ldi	r23, 0x80	; 128
    3cea:	80 e0       	ldi	r24, 0x00	; 0
    3cec:	90 e0       	ldi	r25, 0x00	; 0
    3cee:	0e 94 77 14 	call	0x28ee	; 0x28ee <registr>
		
		
	}
	
	////////////////////////////////////////////////////////////////////////////////////////
	if(service==8)
    3cf2:	80 91 9f 05 	lds	r24, 0x059F	; 0x80059f <service>
    3cf6:	88 30       	cpi	r24, 0x08	; 8
    3cf8:	09 f0       	breq	.+2      	; 0x3cfc <ServiceMenu+0x11ba>
    3cfa:	7c c1       	rjmp	.+760    	; 0x3ff4 <ServiceMenu+0x14b2>
	
	{
		if(delta_H>=100){service=service+1;}
    3cfc:	c0 90 f5 03 	lds	r12, 0x03F5	; 0x8003f5 <delta_H>
    3d00:	d0 90 f6 03 	lds	r13, 0x03F6	; 0x8003f6 <delta_H+0x1>
    3d04:	e0 90 f7 03 	lds	r14, 0x03F7	; 0x8003f7 <delta_H+0x2>
    3d08:	f0 90 f8 03 	lds	r15, 0x03F8	; 0x8003f8 <delta_H+0x3>
    3d0c:	20 e0       	ldi	r18, 0x00	; 0
    3d0e:	30 e0       	ldi	r19, 0x00	; 0
    3d10:	48 ec       	ldi	r20, 0xC8	; 200
    3d12:	52 e4       	ldi	r21, 0x42	; 66
    3d14:	c7 01       	movw	r24, r14
    3d16:	b6 01       	movw	r22, r12
    3d18:	0e 94 97 28 	call	0x512e	; 0x512e <__gesf2>
    3d1c:	88 23       	and	r24, r24
    3d1e:	1c f0       	brlt	.+6      	; 0x3d26 <ServiceMenu+0x11e4>
    3d20:	89 e0       	ldi	r24, 0x09	; 9
    3d22:	80 93 9f 05 	sts	0x059F, r24	; 0x80059f <service>
		
		if((dh<=10)&&(delta_H<100))
    3d26:	20 e0       	ldi	r18, 0x00	; 0
    3d28:	30 e0       	ldi	r19, 0x00	; 0
    3d2a:	40 e2       	ldi	r20, 0x20	; 32
    3d2c:	51 e4       	ldi	r21, 0x41	; 65
    3d2e:	60 91 a3 03 	lds	r22, 0x03A3	; 0x8003a3 <dh>
    3d32:	70 91 a4 03 	lds	r23, 0x03A4	; 0x8003a4 <dh+0x1>
    3d36:	80 91 a5 03 	lds	r24, 0x03A5	; 0x8003a5 <dh+0x2>
    3d3a:	90 91 a6 03 	lds	r25, 0x03A6	; 0x8003a6 <dh+0x3>
    3d3e:	0e 94 38 27 	call	0x4e70	; 0x4e70 <__cmpsf2>
    3d42:	18 16       	cp	r1, r24
    3d44:	cc f1       	brlt	.+114    	; 0x3db8 <ServiceMenu+0x1276>
    3d46:	20 e0       	ldi	r18, 0x00	; 0
    3d48:	30 e0       	ldi	r19, 0x00	; 0
    3d4a:	48 ec       	ldi	r20, 0xC8	; 200
    3d4c:	52 e4       	ldi	r21, 0x42	; 66
    3d4e:	c7 01       	movw	r24, r14
    3d50:	b6 01       	movw	r22, r12
    3d52:	0e 94 38 27 	call	0x4e70	; 0x4e70 <__cmpsf2>
    3d56:	88 23       	and	r24, r24
    3d58:	7c f5       	brge	.+94     	; 0x3db8 <ServiceMenu+0x1276>
		{
			lcd_gotoxy(0, 0); // Выводим строки на LCD
    3d5a:	60 e0       	ldi	r22, 0x00	; 0
    3d5c:	80 e8       	ldi	r24, 0x80	; 128
    3d5e:	0e 94 47 05 	call	0xa8e	; 0xa8e <write_to_lcd>
			lcd_puts("Ўёcїepe·ёc      ");//Допустимая
    3d62:	83 ef       	ldi	r24, 0xF3	; 243
    3d64:	92 e0       	ldi	r25, 0x02	; 2
    3d66:	0e 94 1d 06 	call	0xc3a	; 0xc3a <lcd_puts>
			
			
			lcd_gotoxy(0,1);              //перешли
    3d6a:	60 e0       	ldi	r22, 0x00	; 0
    3d6c:	80 ec       	ldi	r24, 0xC0	; 192
    3d6e:	0e 94 47 05 	call	0xa8e	; 0xa8e <write_to_lcd>
			sprintf(buff,"Hm+/-  %.1f%%     ",dh);
    3d72:	80 91 a6 03 	lds	r24, 0x03A6	; 0x8003a6 <dh+0x3>
    3d76:	8f 93       	push	r24
    3d78:	80 91 a5 03 	lds	r24, 0x03A5	; 0x8003a5 <dh+0x2>
    3d7c:	8f 93       	push	r24
    3d7e:	80 91 a4 03 	lds	r24, 0x03A4	; 0x8003a4 <dh+0x1>
    3d82:	8f 93       	push	r24
    3d84:	80 91 a3 03 	lds	r24, 0x03A3	; 0x8003a3 <dh>
    3d88:	8f 93       	push	r24
    3d8a:	89 e1       	ldi	r24, 0x19	; 25
    3d8c:	93 e0       	ldi	r25, 0x03	; 3
    3d8e:	9f 93       	push	r25
    3d90:	8f 93       	push	r24
    3d92:	81 eb       	ldi	r24, 0xB1	; 177
    3d94:	93 e0       	ldi	r25, 0x03	; 3
    3d96:	9f 93       	push	r25
    3d98:	8f 93       	push	r24
    3d9a:	0e 94 33 2a 	call	0x5466	; 0x5466 <sprintf>
			lcd_puts(buff);
    3d9e:	81 eb       	ldi	r24, 0xB1	; 177
    3da0:	93 e0       	ldi	r25, 0x03	; 3
    3da2:	0e 94 1d 06 	call	0xc3a	; 0xc3a <lcd_puts>
    3da6:	2d b7       	in	r18, 0x3d	; 61
    3da8:	3e b7       	in	r19, 0x3e	; 62
    3daa:	28 5f       	subi	r18, 0xF8	; 248
    3dac:	3f 4f       	sbci	r19, 0xFF	; 255
    3dae:	0f b6       	in	r0, 0x3f	; 63
    3db0:	f8 94       	cli
    3db2:	3e bf       	out	0x3e, r19	; 62
    3db4:	0f be       	out	0x3f, r0	; 63
    3db6:	2d bf       	out	0x3d, r18	; 61
		}
		if(dh>10)
    3db8:	20 e0       	ldi	r18, 0x00	; 0
    3dba:	30 e0       	ldi	r19, 0x00	; 0
    3dbc:	40 e2       	ldi	r20, 0x20	; 32
    3dbe:	51 e4       	ldi	r21, 0x41	; 65
    3dc0:	60 91 a3 03 	lds	r22, 0x03A3	; 0x8003a3 <dh>
    3dc4:	70 91 a4 03 	lds	r23, 0x03A4	; 0x8003a4 <dh+0x1>
    3dc8:	80 91 a5 03 	lds	r24, 0x03A5	; 0x8003a5 <dh+0x2>
    3dcc:	90 91 a6 03 	lds	r25, 0x03A6	; 0x8003a6 <dh+0x3>
    3dd0:	0e 94 97 28 	call	0x512e	; 0x512e <__gesf2>
    3dd4:	18 16       	cp	r1, r24
    3dd6:	44 f4       	brge	.+16     	; 0x3de8 <ServiceMenu+0x12a6>
		{
			dh=0;
    3dd8:	10 92 a3 03 	sts	0x03A3, r1	; 0x8003a3 <dh>
    3ddc:	10 92 a4 03 	sts	0x03A4, r1	; 0x8003a4 <dh+0x1>
    3de0:	10 92 a5 03 	sts	0x03A5, r1	; 0x8003a5 <dh+0x2>
    3de4:	10 92 a6 03 	sts	0x03A6, r1	; 0x8003a6 <dh+0x3>
		}
		
		
		if ((!(PINB & 0b001000))&&(flag2==0) )//кнопка выбора значения нажата
    3de8:	1b 99       	sbic	0x03, 3	; 3
    3dea:	74 c0       	rjmp	.+232    	; 0x3ed4 <ServiceMenu+0x1392>
    3dec:	80 91 ce 03 	lds	r24, 0x03CE	; 0x8003ce <flag2>
    3df0:	81 11       	cpse	r24, r1
    3df2:	70 c0       	rjmp	.+224    	; 0x3ed4 <ServiceMenu+0x1392>
		{
			J1;
    3df4:	41 e0       	ldi	r20, 0x01	; 1
    3df6:	60 e0       	ldi	r22, 0x00	; 0
    3df8:	70 e8       	ldi	r23, 0x80	; 128
    3dfa:	80 e0       	ldi	r24, 0x00	; 0
    3dfc:	90 e0       	ldi	r25, 0x00	; 0
    3dfe:	0e 94 77 14 	call	0x28ee	; 0x28ee <registr>
			dh=dh+0.5;
    3e02:	20 e0       	ldi	r18, 0x00	; 0
    3e04:	30 e0       	ldi	r19, 0x00	; 0
    3e06:	40 e0       	ldi	r20, 0x00	; 0
    3e08:	5f e3       	ldi	r21, 0x3F	; 63
    3e0a:	60 91 a3 03 	lds	r22, 0x03A3	; 0x8003a3 <dh>
    3e0e:	70 91 a4 03 	lds	r23, 0x03A4	; 0x8003a4 <dh+0x1>
    3e12:	80 91 a5 03 	lds	r24, 0x03A5	; 0x8003a5 <dh+0x2>
    3e16:	90 91 a6 03 	lds	r25, 0x03A6	; 0x8003a6 <dh+0x3>
    3e1a:	0e 94 cc 26 	call	0x4d98	; 0x4d98 <__addsf3>
    3e1e:	6b 01       	movw	r12, r22
    3e20:	7c 01       	movw	r14, r24
			if(dh>10)
    3e22:	20 e0       	ldi	r18, 0x00	; 0
    3e24:	30 e0       	ldi	r19, 0x00	; 0
    3e26:	40 e2       	ldi	r20, 0x20	; 32
    3e28:	51 e4       	ldi	r21, 0x41	; 65
    3e2a:	0e 94 97 28 	call	0x512e	; 0x512e <__gesf2>
    3e2e:	18 16       	cp	r1, r24
    3e30:	4c f0       	brlt	.+18     	; 0x3e44 <ServiceMenu+0x1302>
		
		
		if ((!(PINB & 0b001000))&&(flag2==0) )//кнопка выбора значения нажата
		{
			J1;
			dh=dh+0.5;
    3e32:	c0 92 a3 03 	sts	0x03A3, r12	; 0x8003a3 <dh>
    3e36:	d0 92 a4 03 	sts	0x03A4, r13	; 0x8003a4 <dh+0x1>
    3e3a:	e0 92 a5 03 	sts	0x03A5, r14	; 0x8003a5 <dh+0x2>
    3e3e:	f0 92 a6 03 	sts	0x03A6, r15	; 0x8003a6 <dh+0x3>
    3e42:	08 c0       	rjmp	.+16     	; 0x3e54 <ServiceMenu+0x1312>
			if(dh>10)
			{
				dh=0;
    3e44:	10 92 a3 03 	sts	0x03A3, r1	; 0x8003a3 <dh>
    3e48:	10 92 a4 03 	sts	0x03A4, r1	; 0x8003a4 <dh+0x1>
    3e4c:	10 92 a5 03 	sts	0x03A5, r1	; 0x8003a5 <dh+0x2>
    3e50:	10 92 a6 03 	sts	0x03A6, r1	; 0x8003a6 <dh+0x3>
			}

			flag2=1;
    3e54:	81 e0       	ldi	r24, 0x01	; 1
    3e56:	80 93 ce 03 	sts	0x03CE, r24	; 0x8003ce <flag2>
			dh1=dh/1;
    3e5a:	60 91 a3 03 	lds	r22, 0x03A3	; 0x8003a3 <dh>
    3e5e:	70 91 a4 03 	lds	r23, 0x03A4	; 0x8003a4 <dh+0x1>
    3e62:	80 91 a5 03 	lds	r24, 0x03A5	; 0x8003a5 <dh+0x2>
    3e66:	90 91 a6 03 	lds	r25, 0x03A6	; 0x8003a6 <dh+0x3>
    3e6a:	0e 94 af 27 	call	0x4f5e	; 0x4f5e <__fixsfsi>
    3e6e:	26 2f       	mov	r18, r22
    3e70:	60 93 f3 03 	sts	0x03F3, r22	; 0x8003f3 <dh1>
    3e74:	70 93 f4 03 	sts	0x03F4, r23	; 0x8003f4 <dh1+0x1>
			dh2=((int)dh*10)%10;
    3e78:	86 2f       	mov	r24, r22
    3e7a:	97 2f       	mov	r25, r23
    3e7c:	88 0f       	add	r24, r24
    3e7e:	99 1f       	adc	r25, r25
    3e80:	ac 01       	movw	r20, r24
    3e82:	44 0f       	add	r20, r20
    3e84:	55 1f       	adc	r21, r21
    3e86:	44 0f       	add	r20, r20
    3e88:	55 1f       	adc	r21, r21
    3e8a:	84 0f       	add	r24, r20
    3e8c:	95 1f       	adc	r25, r21
    3e8e:	6a e0       	ldi	r22, 0x0A	; 10
    3e90:	70 e0       	ldi	r23, 0x00	; 0
    3e92:	0e 94 57 26 	call	0x4cae	; 0x4cae <__divmodhi4>
    3e96:	90 93 c4 03 	sts	0x03C4, r25	; 0x8003c4 <dh2+0x1>
    3e9a:	80 93 c3 03 	sts	0x03C3, r24	; 0x8003c3 <dh2>
			EEPROM_write(0x15,dh1);
    3e9e:	62 2f       	mov	r22, r18
    3ea0:	85 e1       	ldi	r24, 0x15	; 21
    3ea2:	90 e0       	ldi	r25, 0x00	; 0
    3ea4:	0e 94 7e 04 	call	0x8fc	; 0x8fc <EEPROM_write>
			EEPROM_write(0x16,dh2);
    3ea8:	60 91 c3 03 	lds	r22, 0x03C3	; 0x8003c3 <dh2>
    3eac:	86 e1       	ldi	r24, 0x16	; 22
    3eae:	90 e0       	ldi	r25, 0x00	; 0
    3eb0:	0e 94 7e 04 	call	0x8fc	; 0x8fc <EEPROM_write>
    3eb4:	3f ef       	ldi	r19, 0xFF	; 255
    3eb6:	89 ef       	ldi	r24, 0xF9	; 249
    3eb8:	90 e0       	ldi	r25, 0x00	; 0
    3eba:	31 50       	subi	r19, 0x01	; 1
    3ebc:	80 40       	sbci	r24, 0x00	; 0
    3ebe:	90 40       	sbci	r25, 0x00	; 0
    3ec0:	e1 f7       	brne	.-8      	; 0x3eba <ServiceMenu+0x1378>
    3ec2:	00 c0       	rjmp	.+0      	; 0x3ec4 <ServiceMenu+0x1382>
    3ec4:	00 00       	nop
			_delay_ms(20);
			J0;
    3ec6:	40 e0       	ldi	r20, 0x00	; 0
    3ec8:	60 e0       	ldi	r22, 0x00	; 0
    3eca:	70 e8       	ldi	r23, 0x80	; 128
    3ecc:	80 e0       	ldi	r24, 0x00	; 0
    3ece:	90 e0       	ldi	r25, 0x00	; 0
    3ed0:	0e 94 77 14 	call	0x28ee	; 0x28ee <registr>
		}
		if ((PINB & 0b001000)&&(flag2==1) )
    3ed4:	1b 9b       	sbis	0x03, 3	; 3
    3ed6:	1a c0       	rjmp	.+52     	; 0x3f0c <ServiceMenu+0x13ca>
    3ed8:	80 91 ce 03 	lds	r24, 0x03CE	; 0x8003ce <flag2>
    3edc:	81 30       	cpi	r24, 0x01	; 1
    3ede:	b1 f4       	brne	.+44     	; 0x3f0c <ServiceMenu+0x13ca>
		{
			flag2=0;
    3ee0:	10 92 ce 03 	sts	0x03CE, r1	; 0x8003ce <flag2>
			J1;
    3ee4:	41 e0       	ldi	r20, 0x01	; 1
    3ee6:	60 e0       	ldi	r22, 0x00	; 0
    3ee8:	70 e8       	ldi	r23, 0x80	; 128
    3eea:	80 e0       	ldi	r24, 0x00	; 0
    3eec:	90 e0       	ldi	r25, 0x00	; 0
    3eee:	0e 94 77 14 	call	0x28ee	; 0x28ee <registr>
    3ef2:	8f e3       	ldi	r24, 0x3F	; 63
    3ef4:	9c e9       	ldi	r25, 0x9C	; 156
    3ef6:	01 97       	sbiw	r24, 0x01	; 1
    3ef8:	f1 f7       	brne	.-4      	; 0x3ef6 <ServiceMenu+0x13b4>
    3efa:	00 c0       	rjmp	.+0      	; 0x3efc <ServiceMenu+0x13ba>
    3efc:	00 00       	nop
			_delay_ms(10);
			J0;
    3efe:	40 e0       	ldi	r20, 0x00	; 0
    3f00:	60 e0       	ldi	r22, 0x00	; 0
    3f02:	70 e8       	ldi	r23, 0x80	; 128
    3f04:	80 e0       	ldi	r24, 0x00	; 0
    3f06:	90 e0       	ldi	r25, 0x00	; 0
    3f08:	0e 94 77 14 	call	0x28ee	; 0x28ee <registr>
		}
		
		if ((!(PINB & 0b010000))&&(flag3==0) )//кнопка выбора значения нажата
    3f0c:	1c 99       	sbic	0x03, 4	; 3
    3f0e:	56 c0       	rjmp	.+172    	; 0x3fbc <ServiceMenu+0x147a>
    3f10:	80 91 8f 05 	lds	r24, 0x058F	; 0x80058f <flag3>
    3f14:	81 11       	cpse	r24, r1
    3f16:	52 c0       	rjmp	.+164    	; 0x3fbc <ServiceMenu+0x147a>
		{
			J1;
    3f18:	41 e0       	ldi	r20, 0x01	; 1
    3f1a:	60 e0       	ldi	r22, 0x00	; 0
    3f1c:	70 e8       	ldi	r23, 0x80	; 128
    3f1e:	80 e0       	ldi	r24, 0x00	; 0
    3f20:	90 e0       	ldi	r25, 0x00	; 0
    3f22:	0e 94 77 14 	call	0x28ee	; 0x28ee <registr>
			dh=dh-0.5;
    3f26:	20 e0       	ldi	r18, 0x00	; 0
    3f28:	30 e0       	ldi	r19, 0x00	; 0
    3f2a:	40 e0       	ldi	r20, 0x00	; 0
    3f2c:	5f e3       	ldi	r21, 0x3F	; 63
    3f2e:	60 91 a3 03 	lds	r22, 0x03A3	; 0x8003a3 <dh>
    3f32:	70 91 a4 03 	lds	r23, 0x03A4	; 0x8003a4 <dh+0x1>
    3f36:	80 91 a5 03 	lds	r24, 0x03A5	; 0x8003a5 <dh+0x2>
    3f3a:	90 91 a6 03 	lds	r25, 0x03A6	; 0x8003a6 <dh+0x3>
    3f3e:	0e 94 cb 26 	call	0x4d96	; 0x4d96 <__subsf3>
    3f42:	6b 01       	movw	r12, r22
    3f44:	7c 01       	movw	r14, r24
			if(dh<0)
    3f46:	20 e0       	ldi	r18, 0x00	; 0
    3f48:	30 e0       	ldi	r19, 0x00	; 0
    3f4a:	a9 01       	movw	r20, r18
    3f4c:	0e 94 38 27 	call	0x4e70	; 0x4e70 <__cmpsf2>
    3f50:	88 23       	and	r24, r24
    3f52:	4c f0       	brlt	.+18     	; 0x3f66 <ServiceMenu+0x1424>
		}
		
		if ((!(PINB & 0b010000))&&(flag3==0) )//кнопка выбора значения нажата
		{
			J1;
			dh=dh-0.5;
    3f54:	c0 92 a3 03 	sts	0x03A3, r12	; 0x8003a3 <dh>
    3f58:	d0 92 a4 03 	sts	0x03A4, r13	; 0x8003a4 <dh+0x1>
    3f5c:	e0 92 a5 03 	sts	0x03A5, r14	; 0x8003a5 <dh+0x2>
    3f60:	f0 92 a6 03 	sts	0x03A6, r15	; 0x8003a6 <dh+0x3>
    3f64:	0c c0       	rjmp	.+24     	; 0x3f7e <ServiceMenu+0x143c>
			if(dh<0)
			{
				dh=10;
    3f66:	80 e0       	ldi	r24, 0x00	; 0
    3f68:	90 e0       	ldi	r25, 0x00	; 0
    3f6a:	a0 e2       	ldi	r26, 0x20	; 32
    3f6c:	b1 e4       	ldi	r27, 0x41	; 65
    3f6e:	80 93 a3 03 	sts	0x03A3, r24	; 0x8003a3 <dh>
    3f72:	90 93 a4 03 	sts	0x03A4, r25	; 0x8003a4 <dh+0x1>
    3f76:	a0 93 a5 03 	sts	0x03A5, r26	; 0x8003a5 <dh+0x2>
    3f7a:	b0 93 a6 03 	sts	0x03A6, r27	; 0x8003a6 <dh+0x3>
			}

			flag3=1;
    3f7e:	81 e0       	ldi	r24, 0x01	; 1
    3f80:	80 93 8f 05 	sts	0x058F, r24	; 0x80058f <flag3>
			EEPROM_write(0x15,dh1);
    3f84:	60 91 f3 03 	lds	r22, 0x03F3	; 0x8003f3 <dh1>
    3f88:	85 e1       	ldi	r24, 0x15	; 21
    3f8a:	90 e0       	ldi	r25, 0x00	; 0
    3f8c:	0e 94 7e 04 	call	0x8fc	; 0x8fc <EEPROM_write>
			EEPROM_write(0x16,dh2);
    3f90:	60 91 c3 03 	lds	r22, 0x03C3	; 0x8003c3 <dh2>
    3f94:	86 e1       	ldi	r24, 0x16	; 22
    3f96:	90 e0       	ldi	r25, 0x00	; 0
    3f98:	0e 94 7e 04 	call	0x8fc	; 0x8fc <EEPROM_write>
    3f9c:	9f ef       	ldi	r25, 0xFF	; 255
    3f9e:	29 ef       	ldi	r18, 0xF9	; 249
    3fa0:	30 e0       	ldi	r19, 0x00	; 0
    3fa2:	91 50       	subi	r25, 0x01	; 1
    3fa4:	20 40       	sbci	r18, 0x00	; 0
    3fa6:	30 40       	sbci	r19, 0x00	; 0
    3fa8:	e1 f7       	brne	.-8      	; 0x3fa2 <ServiceMenu+0x1460>
    3faa:	00 c0       	rjmp	.+0      	; 0x3fac <ServiceMenu+0x146a>
    3fac:	00 00       	nop
			_delay_ms(20);
			J0;
    3fae:	40 e0       	ldi	r20, 0x00	; 0
    3fb0:	60 e0       	ldi	r22, 0x00	; 0
    3fb2:	70 e8       	ldi	r23, 0x80	; 128
    3fb4:	80 e0       	ldi	r24, 0x00	; 0
    3fb6:	90 e0       	ldi	r25, 0x00	; 0
    3fb8:	0e 94 77 14 	call	0x28ee	; 0x28ee <registr>
		}
		if ((PINB & 0b010000)&&(flag3==1) )
    3fbc:	1c 9b       	sbis	0x03, 4	; 3
    3fbe:	1a c0       	rjmp	.+52     	; 0x3ff4 <ServiceMenu+0x14b2>
    3fc0:	80 91 8f 05 	lds	r24, 0x058F	; 0x80058f <flag3>
    3fc4:	81 30       	cpi	r24, 0x01	; 1
    3fc6:	b1 f4       	brne	.+44     	; 0x3ff4 <ServiceMenu+0x14b2>
		{
			J1;
    3fc8:	41 e0       	ldi	r20, 0x01	; 1
    3fca:	60 e0       	ldi	r22, 0x00	; 0
    3fcc:	70 e8       	ldi	r23, 0x80	; 128
    3fce:	80 e0       	ldi	r24, 0x00	; 0
    3fd0:	90 e0       	ldi	r25, 0x00	; 0
    3fd2:	0e 94 77 14 	call	0x28ee	; 0x28ee <registr>
			flag3=0;
    3fd6:	10 92 8f 05 	sts	0x058F, r1	; 0x80058f <flag3>
    3fda:	8f e3       	ldi	r24, 0x3F	; 63
    3fdc:	9c e9       	ldi	r25, 0x9C	; 156
    3fde:	01 97       	sbiw	r24, 0x01	; 1
    3fe0:	f1 f7       	brne	.-4      	; 0x3fde <ServiceMenu+0x149c>
    3fe2:	00 c0       	rjmp	.+0      	; 0x3fe4 <ServiceMenu+0x14a2>
    3fe4:	00 00       	nop
			_delay_ms(10);
			J0;
    3fe6:	40 e0       	ldi	r20, 0x00	; 0
    3fe8:	60 e0       	ldi	r22, 0x00	; 0
    3fea:	70 e8       	ldi	r23, 0x80	; 128
    3fec:	80 e0       	ldi	r24, 0x00	; 0
    3fee:	90 e0       	ldi	r25, 0x00	; 0
    3ff0:	0e 94 77 14 	call	0x28ee	; 0x28ee <registr>
		
		
	}
	
	////////////////////////////////////////////////////////////////////////////////////////
	if(service==9)
    3ff4:	80 91 9f 05 	lds	r24, 0x059F	; 0x80059f <service>
    3ff8:	89 30       	cpi	r24, 0x09	; 9
    3ffa:	09 f0       	breq	.+2      	; 0x3ffe <ServiceMenu+0x14bc>
    3ffc:	03 c1       	rjmp	.+518    	; 0x4204 <ServiceMenu+0x16c2>
	
	{
		
		if(adress<128)
    3ffe:	80 91 2f 04 	lds	r24, 0x042F	; 0x80042f <adress>
    4002:	90 91 30 04 	lds	r25, 0x0430	; 0x800430 <adress+0x1>
    4006:	80 38       	cpi	r24, 0x80	; 128
    4008:	91 05       	cpc	r25, r1
    400a:	7c f5       	brge	.+94     	; 0x406a <ServiceMenu+0x1528>
		{
			lcd_gotoxy(0, 0); // Выводим строки на LCD
    400c:	60 e0       	ldi	r22, 0x00	; 0
    400e:	80 e8       	ldi	r24, 0x80	; 128
    4010:	0e 94 47 05 	call	0xa8e	; 0xa8e <write_to_lcd>
			lcd_puts("System_adres    ");//Допустимый
    4014:	8c e2       	ldi	r24, 0x2C	; 44
    4016:	93 e0       	ldi	r25, 0x03	; 3
    4018:	0e 94 1d 06 	call	0xc3a	; 0xc3a <lcd_puts>
			lcd_gotoxy(0, 1); // Выводим строки на LCD
    401c:	60 e0       	ldi	r22, 0x00	; 0
    401e:	80 ec       	ldi	r24, 0xC0	; 192
    4020:	0e 94 47 05 	call	0xa8e	; 0xa8e <write_to_lcd>
			lcd_puts("            ");//сдвиг фаз
    4024:	8c e0       	ldi	r24, 0x0C	; 12
    4026:	92 e0       	ldi	r25, 0x02	; 2
    4028:	0e 94 1d 06 	call	0xc3a	; 0xc3a <lcd_puts>
			
			lcd_gotoxy(12, 1);
    402c:	60 e0       	ldi	r22, 0x00	; 0
    402e:	8c ec       	ldi	r24, 0xCC	; 204
    4030:	0e 94 47 05 	call	0xa8e	; 0xa8e <write_to_lcd>
			lcd_num_to_str(adress/10, 2); // Выводим данные времени на LCD
    4034:	80 91 2f 04 	lds	r24, 0x042F	; 0x80042f <adress>
    4038:	90 91 30 04 	lds	r25, 0x0430	; 0x800430 <adress+0x1>
    403c:	6a e0       	ldi	r22, 0x0A	; 10
    403e:	70 e0       	ldi	r23, 0x00	; 0
    4040:	0e 94 57 26 	call	0x4cae	; 0x4cae <__divmodhi4>
    4044:	cb 01       	movw	r24, r22
    4046:	62 e0       	ldi	r22, 0x02	; 2
    4048:	0e 94 34 06 	call	0xc68	; 0xc68 <lcd_num_to_str>
			lcd_gotoxy(14, 1);
    404c:	60 e0       	ldi	r22, 0x00	; 0
    404e:	8e ec       	ldi	r24, 0xCE	; 206
    4050:	0e 94 47 05 	call	0xa8e	; 0xa8e <write_to_lcd>
			lcd_num_to_str(adress%100, 1);
    4054:	80 91 2f 04 	lds	r24, 0x042F	; 0x80042f <adress>
    4058:	90 91 30 04 	lds	r25, 0x0430	; 0x800430 <adress+0x1>
    405c:	64 e6       	ldi	r22, 0x64	; 100
    405e:	70 e0       	ldi	r23, 0x00	; 0
    4060:	0e 94 57 26 	call	0x4cae	; 0x4cae <__divmodhi4>
    4064:	61 e0       	ldi	r22, 0x01	; 1
    4066:	0e 94 34 06 	call	0xc68	; 0xc68 <lcd_num_to_str>
		}
		if(adress==128)
    406a:	80 91 2f 04 	lds	r24, 0x042F	; 0x80042f <adress>
    406e:	90 91 30 04 	lds	r25, 0x0430	; 0x800430 <adress+0x1>
    4072:	80 38       	cpi	r24, 0x80	; 128
    4074:	91 05       	cpc	r25, r1
    4076:	81 f4       	brne	.+32     	; 0x4098 <ServiceMenu+0x1556>
		{
			lcd_gotoxy(0, 0); // Выводим строки на LCD
    4078:	60 e0       	ldi	r22, 0x00	; 0
    407a:	80 e8       	ldi	r24, 0x80	; 128
    407c:	0e 94 47 05 	call	0xa8e	; 0xa8e <write_to_lcd>
			lcd_puts("Adress disable  ");//Контроль
    4080:	8d e3       	ldi	r24, 0x3D	; 61
    4082:	93 e0       	ldi	r25, 0x03	; 3
    4084:	0e 94 1d 06 	call	0xc3a	; 0xc3a <lcd_puts>
			lcd_gotoxy(0, 1); // Выводим строки на LCD
    4088:	60 e0       	ldi	r22, 0x00	; 0
    408a:	80 ec       	ldi	r24, 0xC0	; 192
    408c:	0e 94 47 05 	call	0xa8e	; 0xa8e <write_to_lcd>
			lcd_puts("        OTK§    ");//сдвига фаз ОТКЛ
    4090:	8e e4       	ldi	r24, 0x4E	; 78
    4092:	93 e0       	ldi	r25, 0x03	; 3
    4094:	0e 94 1d 06 	call	0xc3a	; 0xc3a <lcd_puts>
			
		
		}
//////////////////////////////////////////////////////////////////////////////////////////
		
		if ((!(PINB & 0b001000))&&(flag2==0) )//кнопка выбора значения нажата
    4098:	1b 99       	sbic	0x03, 3	; 3
    409a:	3d c0       	rjmp	.+122    	; 0x4116 <ServiceMenu+0x15d4>
    409c:	80 91 ce 03 	lds	r24, 0x03CE	; 0x8003ce <flag2>
    40a0:	81 11       	cpse	r24, r1
    40a2:	39 c0       	rjmp	.+114    	; 0x4116 <ServiceMenu+0x15d4>
		{
			J1;
    40a4:	41 e0       	ldi	r20, 0x01	; 1
    40a6:	60 e0       	ldi	r22, 0x00	; 0
    40a8:	70 e8       	ldi	r23, 0x80	; 128
    40aa:	80 e0       	ldi	r24, 0x00	; 0
    40ac:	90 e0       	ldi	r25, 0x00	; 0
    40ae:	0e 94 77 14 	call	0x28ee	; 0x28ee <registr>
			adress=adress+1;
    40b2:	80 91 2f 04 	lds	r24, 0x042F	; 0x80042f <adress>
    40b6:	90 91 30 04 	lds	r25, 0x0430	; 0x800430 <adress+0x1>
    40ba:	01 96       	adiw	r24, 0x01	; 1
    40bc:	90 93 30 04 	sts	0x0430, r25	; 0x800430 <adress+0x1>
    40c0:	80 93 2f 04 	sts	0x042F, r24	; 0x80042f <adress>
			if(adress>128)
    40c4:	81 38       	cpi	r24, 0x81	; 129
    40c6:	91 05       	cpc	r25, r1
    40c8:	2c f0       	brlt	.+10     	; 0x40d4 <ServiceMenu+0x1592>
			{
				adress=0;
    40ca:	10 92 30 04 	sts	0x0430, r1	; 0x800430 <adress+0x1>
    40ce:	10 92 2f 04 	sts	0x042F, r1	; 0x80042f <adress>
    40d2:	08 c0       	rjmp	.+16     	; 0x40e4 <ServiceMenu+0x15a2>
			}

           if(adress<0)
    40d4:	99 23       	and	r25, r25
    40d6:	34 f4       	brge	.+12     	; 0x40e4 <ServiceMenu+0x15a2>
             {
	          adress=127;
    40d8:	8f e7       	ldi	r24, 0x7F	; 127
    40da:	90 e0       	ldi	r25, 0x00	; 0
    40dc:	90 93 30 04 	sts	0x0430, r25	; 0x800430 <adress+0x1>
    40e0:	80 93 2f 04 	sts	0x042F, r24	; 0x80042f <adress>
             }

			flag2=1;
    40e4:	81 e0       	ldi	r24, 0x01	; 1
    40e6:	80 93 ce 03 	sts	0x03CE, r24	; 0x8003ce <flag2>
			EEPROM_write(0x10,adress);
    40ea:	60 91 2f 04 	lds	r22, 0x042F	; 0x80042f <adress>
    40ee:	80 e1       	ldi	r24, 0x10	; 16
    40f0:	90 e0       	ldi	r25, 0x00	; 0
    40f2:	0e 94 7e 04 	call	0x8fc	; 0x8fc <EEPROM_write>
    40f6:	9f ef       	ldi	r25, 0xFF	; 255
    40f8:	29 ef       	ldi	r18, 0xF9	; 249
    40fa:	30 e0       	ldi	r19, 0x00	; 0
    40fc:	91 50       	subi	r25, 0x01	; 1
    40fe:	20 40       	sbci	r18, 0x00	; 0
    4100:	30 40       	sbci	r19, 0x00	; 0
    4102:	e1 f7       	brne	.-8      	; 0x40fc <ServiceMenu+0x15ba>
    4104:	00 c0       	rjmp	.+0      	; 0x4106 <ServiceMenu+0x15c4>
    4106:	00 00       	nop
			_delay_ms(20);
			J0;
    4108:	40 e0       	ldi	r20, 0x00	; 0
    410a:	60 e0       	ldi	r22, 0x00	; 0
    410c:	70 e8       	ldi	r23, 0x80	; 128
    410e:	80 e0       	ldi	r24, 0x00	; 0
    4110:	90 e0       	ldi	r25, 0x00	; 0
    4112:	0e 94 77 14 	call	0x28ee	; 0x28ee <registr>
		}
		if ((PINB & 0b001000)&&(flag2==1) )
    4116:	1b 9b       	sbis	0x03, 3	; 3
    4118:	1a c0       	rjmp	.+52     	; 0x414e <ServiceMenu+0x160c>
    411a:	80 91 ce 03 	lds	r24, 0x03CE	; 0x8003ce <flag2>
    411e:	81 30       	cpi	r24, 0x01	; 1
    4120:	b1 f4       	brne	.+44     	; 0x414e <ServiceMenu+0x160c>
		{
			flag2=0;
    4122:	10 92 ce 03 	sts	0x03CE, r1	; 0x8003ce <flag2>
			J1;
    4126:	41 e0       	ldi	r20, 0x01	; 1
    4128:	60 e0       	ldi	r22, 0x00	; 0
    412a:	70 e8       	ldi	r23, 0x80	; 128
    412c:	80 e0       	ldi	r24, 0x00	; 0
    412e:	90 e0       	ldi	r25, 0x00	; 0
    4130:	0e 94 77 14 	call	0x28ee	; 0x28ee <registr>
    4134:	8f e3       	ldi	r24, 0x3F	; 63
    4136:	9c e9       	ldi	r25, 0x9C	; 156
    4138:	01 97       	sbiw	r24, 0x01	; 1
    413a:	f1 f7       	brne	.-4      	; 0x4138 <ServiceMenu+0x15f6>
    413c:	00 c0       	rjmp	.+0      	; 0x413e <ServiceMenu+0x15fc>
    413e:	00 00       	nop
			_delay_ms(10);
			J0;
    4140:	40 e0       	ldi	r20, 0x00	; 0
    4142:	60 e0       	ldi	r22, 0x00	; 0
    4144:	70 e8       	ldi	r23, 0x80	; 128
    4146:	80 e0       	ldi	r24, 0x00	; 0
    4148:	90 e0       	ldi	r25, 0x00	; 0
    414a:	0e 94 77 14 	call	0x28ee	; 0x28ee <registr>
		}
////////////////////////////////////////////////////////////////////////////////////////////////		
		
		if ((!(PINB & 0b0010000))&&(flag2==0) )//кнопка выбора значения нажата
    414e:	1c 99       	sbic	0x03, 4	; 3
    4150:	3d c0       	rjmp	.+122    	; 0x41cc <ServiceMenu+0x168a>
    4152:	80 91 ce 03 	lds	r24, 0x03CE	; 0x8003ce <flag2>
    4156:	81 11       	cpse	r24, r1
    4158:	39 c0       	rjmp	.+114    	; 0x41cc <ServiceMenu+0x168a>
		{
			J1;
    415a:	41 e0       	ldi	r20, 0x01	; 1
    415c:	60 e0       	ldi	r22, 0x00	; 0
    415e:	70 e8       	ldi	r23, 0x80	; 128
    4160:	80 e0       	ldi	r24, 0x00	; 0
    4162:	90 e0       	ldi	r25, 0x00	; 0
    4164:	0e 94 77 14 	call	0x28ee	; 0x28ee <registr>
			adress=adress-1;
    4168:	80 91 2f 04 	lds	r24, 0x042F	; 0x80042f <adress>
    416c:	90 91 30 04 	lds	r25, 0x0430	; 0x800430 <adress+0x1>
    4170:	01 97       	sbiw	r24, 0x01	; 1
    4172:	90 93 30 04 	sts	0x0430, r25	; 0x800430 <adress+0x1>
    4176:	80 93 2f 04 	sts	0x042F, r24	; 0x80042f <adress>
			if(adress>128)
    417a:	81 38       	cpi	r24, 0x81	; 129
    417c:	91 05       	cpc	r25, r1
    417e:	2c f0       	brlt	.+10     	; 0x418a <ServiceMenu+0x1648>
			{
				adress=0;
    4180:	10 92 30 04 	sts	0x0430, r1	; 0x800430 <adress+0x1>
    4184:	10 92 2f 04 	sts	0x042F, r1	; 0x80042f <adress>
    4188:	08 c0       	rjmp	.+16     	; 0x419a <ServiceMenu+0x1658>
			}

            if(adress<0)
    418a:	99 23       	and	r25, r25
    418c:	34 f4       	brge	.+12     	; 0x419a <ServiceMenu+0x1658>
            {
	            adress=127;
    418e:	8f e7       	ldi	r24, 0x7F	; 127
    4190:	90 e0       	ldi	r25, 0x00	; 0
    4192:	90 93 30 04 	sts	0x0430, r25	; 0x800430 <adress+0x1>
    4196:	80 93 2f 04 	sts	0x042F, r24	; 0x80042f <adress>
            }
			  
			flag2=1;
    419a:	81 e0       	ldi	r24, 0x01	; 1
    419c:	80 93 ce 03 	sts	0x03CE, r24	; 0x8003ce <flag2>
			EEPROM_write(0x10,adress);
    41a0:	60 91 2f 04 	lds	r22, 0x042F	; 0x80042f <adress>
    41a4:	80 e1       	ldi	r24, 0x10	; 16
    41a6:	90 e0       	ldi	r25, 0x00	; 0
    41a8:	0e 94 7e 04 	call	0x8fc	; 0x8fc <EEPROM_write>
    41ac:	9f ef       	ldi	r25, 0xFF	; 255
    41ae:	29 ef       	ldi	r18, 0xF9	; 249
    41b0:	30 e0       	ldi	r19, 0x00	; 0
    41b2:	91 50       	subi	r25, 0x01	; 1
    41b4:	20 40       	sbci	r18, 0x00	; 0
    41b6:	30 40       	sbci	r19, 0x00	; 0
    41b8:	e1 f7       	brne	.-8      	; 0x41b2 <ServiceMenu+0x1670>
    41ba:	00 c0       	rjmp	.+0      	; 0x41bc <ServiceMenu+0x167a>
    41bc:	00 00       	nop
			_delay_ms(20);
			J0;
    41be:	40 e0       	ldi	r20, 0x00	; 0
    41c0:	60 e0       	ldi	r22, 0x00	; 0
    41c2:	70 e8       	ldi	r23, 0x80	; 128
    41c4:	80 e0       	ldi	r24, 0x00	; 0
    41c6:	90 e0       	ldi	r25, 0x00	; 0
    41c8:	0e 94 77 14 	call	0x28ee	; 0x28ee <registr>
		}
		if ((PINB & 0b0010000)&&(flag2==1) )
    41cc:	1c 9b       	sbis	0x03, 4	; 3
    41ce:	1a c0       	rjmp	.+52     	; 0x4204 <ServiceMenu+0x16c2>
    41d0:	80 91 ce 03 	lds	r24, 0x03CE	; 0x8003ce <flag2>
    41d4:	81 30       	cpi	r24, 0x01	; 1
    41d6:	b1 f4       	brne	.+44     	; 0x4204 <ServiceMenu+0x16c2>
		{
			flag2=0;
    41d8:	10 92 ce 03 	sts	0x03CE, r1	; 0x8003ce <flag2>
			J1;
    41dc:	41 e0       	ldi	r20, 0x01	; 1
    41de:	60 e0       	ldi	r22, 0x00	; 0
    41e0:	70 e8       	ldi	r23, 0x80	; 128
    41e2:	80 e0       	ldi	r24, 0x00	; 0
    41e4:	90 e0       	ldi	r25, 0x00	; 0
    41e6:	0e 94 77 14 	call	0x28ee	; 0x28ee <registr>
    41ea:	8f e3       	ldi	r24, 0x3F	; 63
    41ec:	9c e9       	ldi	r25, 0x9C	; 156
    41ee:	01 97       	sbiw	r24, 0x01	; 1
    41f0:	f1 f7       	brne	.-4      	; 0x41ee <ServiceMenu+0x16ac>
    41f2:	00 c0       	rjmp	.+0      	; 0x41f4 <ServiceMenu+0x16b2>
    41f4:	00 00       	nop
			_delay_ms(10);
			J0;
    41f6:	40 e0       	ldi	r20, 0x00	; 0
    41f8:	60 e0       	ldi	r22, 0x00	; 0
    41fa:	70 e8       	ldi	r23, 0x80	; 128
    41fc:	80 e0       	ldi	r24, 0x00	; 0
    41fe:	90 e0       	ldi	r25, 0x00	; 0
    4200:	0e 94 77 14 	call	0x28ee	; 0x28ee <registr>
		}
			
   }
	///////////////////////////////////////////////////////////////////////////////////////
	
	if(service==10)
    4204:	80 91 9f 05 	lds	r24, 0x059F	; 0x80059f <service>
    4208:	8a 30       	cpi	r24, 0x0A	; 10
    420a:	09 f0       	breq	.+2      	; 0x420e <ServiceMenu+0x16cc>
    420c:	f7 c0       	rjmp	.+494    	; 0x43fc <ServiceMenu+0x18ba>
	
	{
		lcd_gotoxy(0, 0); // Выводим строки на LCD
    420e:	60 e0       	ldi	r22, 0x00	; 0
    4210:	80 e8       	ldi	r24, 0x80	; 128
    4212:	0e 94 47 05 	call	0xa8e	; 0xa8e <write_to_lcd>
		lcd_puts("-TEST-TEST-TEST-");//Контроль
    4216:	8f e5       	ldi	r24, 0x5F	; 95
    4218:	93 e0       	ldi	r25, 0x03	; 3
    421a:	0e 94 1d 06 	call	0xc3a	; 0xc3a <lcd_puts>
		
	if ((!(PINB & 0b010000))&&(flag2==0))//кнопка выбора значения нажата
    421e:	1c 99       	sbic	0x03, 4	; 3
    4220:	09 c0       	rjmp	.+18     	; 0x4234 <ServiceMenu+0x16f2>
    4222:	80 91 ce 03 	lds	r24, 0x03CE	; 0x8003ce <flag2>
    4226:	81 11       	cpse	r24, r1
    4228:	e2 c0       	rjmp	.+452    	; 0x43ee <ServiceMenu+0x18ac>
	{	
	  
		 flag2=1;
    422a:	81 e0       	ldi	r24, 0x01	; 1
    422c:	80 93 ce 03 	sts	0x03CE, r24	; 0x8003ce <flag2>
		start(); 
    4230:	0e 94 d9 13 	call	0x27b2	; 0x27b2 <start>
	}
	
	if ((!(PINB & 0b001000))&&(flag2==0))//кнопка выбора значения нажата
    4234:	1b 99       	sbic	0x03, 3	; 3
    4236:	61 c0       	rjmp	.+194    	; 0x42fa <ServiceMenu+0x17b8>
    4238:	80 91 ce 03 	lds	r24, 0x03CE	; 0x8003ce <flag2>
    423c:	81 11       	cpse	r24, r1
    423e:	5d c0       	rjmp	.+186    	; 0x42fa <ServiceMenu+0x17b8>
	{
		
	  timer_M=timing;
    4240:	80 91 89 05 	lds	r24, 0x0589	; 0x800589 <timing>
    4244:	90 91 8a 05 	lds	r25, 0x058A	; 0x80058a <timing+0x1>
    4248:	90 93 04 04 	sts	0x0404, r25	; 0x800404 <timer_M+0x1>
    424c:	80 93 03 04 	sts	0x0403, r24	; 0x800403 <timer_M>
	  J1;
    4250:	41 e0       	ldi	r20, 0x01	; 1
    4252:	60 e0       	ldi	r22, 0x00	; 0
    4254:	70 e8       	ldi	r23, 0x80	; 128
    4256:	80 e0       	ldi	r24, 0x00	; 0
    4258:	90 e0       	ldi	r25, 0x00	; 0
    425a:	0e 94 77 14 	call	0x28ee	; 0x28ee <registr>
	  RUN1;
    425e:	41 e0       	ldi	r20, 0x01	; 1
    4260:	60 e4       	ldi	r22, 0x40	; 64
    4262:	70 e0       	ldi	r23, 0x00	; 0
    4264:	80 e0       	ldi	r24, 0x00	; 0
    4266:	90 e0       	ldi	r25, 0x00	; 0
    4268:	0e 94 77 14 	call	0x28ee	; 0x28ee <registr>
	  RN1;
    426c:	41 e0       	ldi	r20, 0x01	; 1
    426e:	60 e8       	ldi	r22, 0x80	; 128
    4270:	70 e0       	ldi	r23, 0x00	; 0
    4272:	80 e0       	ldi	r24, 0x00	; 0
    4274:	90 e0       	ldi	r25, 0x00	; 0
    4276:	0e 94 77 14 	call	0x28ee	; 0x28ee <registr>
	  NORMAL1;
    427a:	41 e0       	ldi	r20, 0x01	; 1
    427c:	60 e0       	ldi	r22, 0x00	; 0
    427e:	71 e0       	ldi	r23, 0x01	; 1
    4280:	80 e0       	ldi	r24, 0x00	; 0
    4282:	90 e0       	ldi	r25, 0x00	; 0
    4284:	0e 94 77 14 	call	0x28ee	; 0x28ee <registr>
	  C1;
    4288:	41 e0       	ldi	r20, 0x01	; 1
    428a:	60 e0       	ldi	r22, 0x00	; 0
    428c:	74 e0       	ldi	r23, 0x04	; 4
    428e:	80 e0       	ldi	r24, 0x00	; 0
    4290:	90 e0       	ldi	r25, 0x00	; 0
    4292:	0e 94 77 14 	call	0x28ee	; 0x28ee <registr>
	  D1;
    4296:	41 e0       	ldi	r20, 0x01	; 1
    4298:	60 e0       	ldi	r22, 0x00	; 0
    429a:	78 e0       	ldi	r23, 0x08	; 8
    429c:	80 e0       	ldi	r24, 0x00	; 0
    429e:	90 e0       	ldi	r25, 0x00	; 0
    42a0:	0e 94 77 14 	call	0x28ee	; 0x28ee <registr>
	  FL1;
    42a4:	41 e0       	ldi	r20, 0x01	; 1
    42a6:	60 e0       	ldi	r22, 0x00	; 0
    42a8:	72 e0       	ldi	r23, 0x02	; 2
    42aa:	80 e0       	ldi	r24, 0x00	; 0
    42ac:	90 e0       	ldi	r25, 0x00	; 0
    42ae:	0e 94 77 14 	call	0x28ee	; 0x28ee <registr>
	  G1;
    42b2:	41 e0       	ldi	r20, 0x01	; 1
    42b4:	60 e0       	ldi	r22, 0x00	; 0
    42b6:	70 e2       	ldi	r23, 0x20	; 32
    42b8:	80 e0       	ldi	r24, 0x00	; 0
    42ba:	90 e0       	ldi	r25, 0x00	; 0
    42bc:	0e 94 77 14 	call	0x28ee	; 0x28ee <registr>
	  H1;
    42c0:	41 e0       	ldi	r20, 0x01	; 1
    42c2:	60 e0       	ldi	r22, 0x00	; 0
    42c4:	70 e4       	ldi	r23, 0x40	; 64
    42c6:	80 e0       	ldi	r24, 0x00	; 0
    42c8:	90 e0       	ldi	r25, 0x00	; 0
    42ca:	0e 94 77 14 	call	0x28ee	; 0x28ee <registr>
	  F1;
    42ce:	41 e0       	ldi	r20, 0x01	; 1
    42d0:	60 e0       	ldi	r22, 0x00	; 0
    42d2:	70 e1       	ldi	r23, 0x10	; 16
    42d4:	80 e0       	ldi	r24, 0x00	; 0
    42d6:	90 e0       	ldi	r25, 0x00	; 0
    42d8:	0e 94 77 14 	call	0x28ee	; 0x28ee <registr>
    42dc:	9f ef       	ldi	r25, 0xFF	; 255
    42de:	23 ed       	ldi	r18, 0xD3	; 211
    42e0:	30 e3       	ldi	r19, 0x30	; 48
    42e2:	91 50       	subi	r25, 0x01	; 1
    42e4:	20 40       	sbci	r18, 0x00	; 0
    42e6:	30 40       	sbci	r19, 0x00	; 0
    42e8:	e1 f7       	brne	.-8      	; 0x42e2 <ServiceMenu+0x17a0>
    42ea:	00 c0       	rjmp	.+0      	; 0x42ec <ServiceMenu+0x17aa>
    42ec:	00 00       	nop
	  _delay_ms(1000);
	  flag2=1;
    42ee:	81 e0       	ldi	r24, 0x01	; 1
    42f0:	80 93 ce 03 	sts	0x03CE, r24	; 0x8003ce <flag2>
	}
	
	if ((PINB & 0b001000)&&(flag2==1) )
    42f4:	1b 99       	sbic	0x03, 3	; 3
    42f6:	08 c0       	rjmp	.+16     	; 0x4308 <ServiceMenu+0x17c6>
    42f8:	81 c0       	rjmp	.+258    	; 0x43fc <ServiceMenu+0x18ba>
    42fa:	1b 9b       	sbis	0x03, 3	; 3
    42fc:	7f c0       	rjmp	.+254    	; 0x43fc <ServiceMenu+0x18ba>
    42fe:	80 91 ce 03 	lds	r24, 0x03CE	; 0x8003ce <flag2>
    4302:	81 30       	cpi	r24, 0x01	; 1
    4304:	09 f0       	breq	.+2      	; 0x4308 <ServiceMenu+0x17c6>
    4306:	7a c0       	rjmp	.+244    	; 0x43fc <ServiceMenu+0x18ba>
	{
		
		menu_t=timing-timer_M;
    4308:	80 91 89 05 	lds	r24, 0x0589	; 0x800589 <timing>
    430c:	90 91 8a 05 	lds	r25, 0x058A	; 0x80058a <timing+0x1>
    4310:	20 91 03 04 	lds	r18, 0x0403	; 0x800403 <timer_M>
    4314:	30 91 04 04 	lds	r19, 0x0404	; 0x800404 <timer_M+0x1>
    4318:	82 1b       	sub	r24, r18
    431a:	93 0b       	sbc	r25, r19
    431c:	90 93 8c 03 	sts	0x038C, r25	; 0x80038c <menu_t+0x1>
    4320:	80 93 8b 03 	sts	0x038B, r24	; 0x80038b <menu_t>
		
		if(menu_t>6000){
    4324:	81 37       	cpi	r24, 0x71	; 113
    4326:	97 41       	sbci	r25, 0x17	; 23
    4328:	0c f4       	brge	.+2      	; 0x432c <ServiceMenu+0x17ea>
    432a:	68 c0       	rjmp	.+208    	; 0x43fc <ServiceMenu+0x18ba>
		J1;
    432c:	41 e0       	ldi	r20, 0x01	; 1
    432e:	60 e0       	ldi	r22, 0x00	; 0
    4330:	70 e8       	ldi	r23, 0x80	; 128
    4332:	80 e0       	ldi	r24, 0x00	; 0
    4334:	90 e0       	ldi	r25, 0x00	; 0
    4336:	0e 94 77 14 	call	0x28ee	; 0x28ee <registr>
    433a:	8f e3       	ldi	r24, 0x3F	; 63
    433c:	9c e9       	ldi	r25, 0x9C	; 156
    433e:	01 97       	sbiw	r24, 0x01	; 1
    4340:	f1 f7       	brne	.-4      	; 0x433e <ServiceMenu+0x17fc>
    4342:	00 c0       	rjmp	.+0      	; 0x4344 <ServiceMenu+0x1802>
    4344:	00 00       	nop
		_delay_ms(10);
		
		 RUN0;
    4346:	40 e0       	ldi	r20, 0x00	; 0
    4348:	60 e4       	ldi	r22, 0x40	; 64
    434a:	70 e0       	ldi	r23, 0x00	; 0
    434c:	80 e0       	ldi	r24, 0x00	; 0
    434e:	90 e0       	ldi	r25, 0x00	; 0
    4350:	0e 94 77 14 	call	0x28ee	; 0x28ee <registr>
		 RN0;
    4354:	40 e0       	ldi	r20, 0x00	; 0
    4356:	60 e8       	ldi	r22, 0x80	; 128
    4358:	70 e0       	ldi	r23, 0x00	; 0
    435a:	80 e0       	ldi	r24, 0x00	; 0
    435c:	90 e0       	ldi	r25, 0x00	; 0
    435e:	0e 94 77 14 	call	0x28ee	; 0x28ee <registr>
		 NORMAL0;
    4362:	40 e0       	ldi	r20, 0x00	; 0
    4364:	60 e0       	ldi	r22, 0x00	; 0
    4366:	71 e0       	ldi	r23, 0x01	; 1
    4368:	80 e0       	ldi	r24, 0x00	; 0
    436a:	90 e0       	ldi	r25, 0x00	; 0
    436c:	0e 94 77 14 	call	0x28ee	; 0x28ee <registr>
		 C0;
    4370:	40 e0       	ldi	r20, 0x00	; 0
    4372:	60 e0       	ldi	r22, 0x00	; 0
    4374:	74 e0       	ldi	r23, 0x04	; 4
    4376:	80 e0       	ldi	r24, 0x00	; 0
    4378:	90 e0       	ldi	r25, 0x00	; 0
    437a:	0e 94 77 14 	call	0x28ee	; 0x28ee <registr>
		 D0;
    437e:	40 e0       	ldi	r20, 0x00	; 0
    4380:	60 e0       	ldi	r22, 0x00	; 0
    4382:	78 e0       	ldi	r23, 0x08	; 8
    4384:	80 e0       	ldi	r24, 0x00	; 0
    4386:	90 e0       	ldi	r25, 0x00	; 0
    4388:	0e 94 77 14 	call	0x28ee	; 0x28ee <registr>
		 FL0;
    438c:	40 e0       	ldi	r20, 0x00	; 0
    438e:	60 e0       	ldi	r22, 0x00	; 0
    4390:	72 e0       	ldi	r23, 0x02	; 2
    4392:	80 e0       	ldi	r24, 0x00	; 0
    4394:	90 e0       	ldi	r25, 0x00	; 0
    4396:	0e 94 77 14 	call	0x28ee	; 0x28ee <registr>
		 G0;
    439a:	40 e0       	ldi	r20, 0x00	; 0
    439c:	60 e0       	ldi	r22, 0x00	; 0
    439e:	70 e2       	ldi	r23, 0x20	; 32
    43a0:	80 e0       	ldi	r24, 0x00	; 0
    43a2:	90 e0       	ldi	r25, 0x00	; 0
    43a4:	0e 94 77 14 	call	0x28ee	; 0x28ee <registr>
		 H0;
    43a8:	40 e0       	ldi	r20, 0x00	; 0
    43aa:	60 e0       	ldi	r22, 0x00	; 0
    43ac:	70 e4       	ldi	r23, 0x40	; 64
    43ae:	80 e0       	ldi	r24, 0x00	; 0
    43b0:	90 e0       	ldi	r25, 0x00	; 0
    43b2:	0e 94 77 14 	call	0x28ee	; 0x28ee <registr>
		 F0;
    43b6:	40 e0       	ldi	r20, 0x00	; 0
    43b8:	60 e0       	ldi	r22, 0x00	; 0
    43ba:	70 e1       	ldi	r23, 0x10	; 16
    43bc:	80 e0       	ldi	r24, 0x00	; 0
    43be:	90 e0       	ldi	r25, 0x00	; 0
    43c0:	0e 94 77 14 	call	0x28ee	; 0x28ee <registr>
		 J0;
    43c4:	40 e0       	ldi	r20, 0x00	; 0
    43c6:	60 e0       	ldi	r22, 0x00	; 0
    43c8:	70 e8       	ldi	r23, 0x80	; 128
    43ca:	80 e0       	ldi	r24, 0x00	; 0
    43cc:	90 e0       	ldi	r25, 0x00	; 0
    43ce:	0e 94 77 14 	call	0x28ee	; 0x28ee <registr>
		 flag2=0;
    43d2:	10 92 ce 03 	sts	0x03CE, r1	; 0x8003ce <flag2>
		}
	}
	
	}
    43d6:	12 c0       	rjmp	.+36     	; 0x43fc <ServiceMenu+0x18ba>
			J0;
		}
	}
	
	
	if (!(PINB & 0b0100000) && flag1==1  && regim==3  ) //Кнопка отпущена
    43d8:	1d 99       	sbic	0x03, 5	; 3
    43da:	02 c0       	rjmp	.+4      	; 0x43e0 <ServiceMenu+0x189e>
    43dc:	0c 94 30 16 	jmp	0x2c60	; 0x2c60 <ServiceMenu+0x11e>
    43e0:	0c 94 3f 16 	jmp	0x2c7e	; 0x2c7e <ServiceMenu+0x13c>
    43e4:	83 b1       	in	r24, 0x03	; 3
    43e6:	0c 94 3f 16 	jmp	0x2c7e	; 0x2c7e <ServiceMenu+0x13c>
			flag2=0;
			_delay_ms(10);
			J0;
		}
/////////////////////.....////////////////////////
         if ((!(PINB & 0b001000))&&(flag2==1))//кнопка выбора значения нажата
    43ea:	83 b1       	in	r24, 0x03	; 3
    43ec:	27 c9       	rjmp	.-3506   	; 0x363c <ServiceMenu+0xafa>
	  
		 flag2=1;
		start(); 
	}
	
	if ((!(PINB & 0b001000))&&(flag2==0))//кнопка выбора значения нажата
    43ee:	83 b1       	in	r24, 0x03	; 3
    43f0:	84 cf       	rjmp	.-248    	; 0x42fa <ServiceMenu+0x17b8>
		}
		EEPROM_write(0x00, service);
		J0;
	}
	
	if ((PINB & 0b0100000)  && flag1==1){
    43f2:	1d 99       	sbic	0x03, 5	; 3
    43f4:	02 c0       	rjmp	.+4      	; 0x43fa <ServiceMenu+0x18b8>
    43f6:	0c 94 2a 16 	jmp	0x2c54	; 0x2c54 <ServiceMenu+0x112>
    43fa:	f4 cf       	rjmp	.-24     	; 0x43e4 <ServiceMenu+0x18a2>
		 flag2=0;
		}
	}
	
	}
    43fc:	ff 90       	pop	r15
    43fe:	ef 90       	pop	r14
    4400:	df 90       	pop	r13
    4402:	cf 90       	pop	r12
    4404:	08 95       	ret

00004406 <volts>:
#include "LCD.h"
#include "ADConverter.h"
//Вывод текущего значения напряжения

void volts()
{
    4406:	0f 93       	push	r16
    4408:	1f 93       	push	r17
    440a:	cf 93       	push	r28
    440c:	df 93       	push	r29
	//int current_adc ();
	lcd_gotoxy(0, 1);
    440e:	60 e0       	ldi	r22, 0x00	; 0
    4410:	80 ec       	ldi	r24, 0xC0	; 192
    4412:	0e 94 47 05 	call	0xa8e	; 0xa8e <write_to_lcd>
	lcd_puts("U");
    4416:	80 e7       	ldi	r24, 0x70	; 112
    4418:	93 e0       	ldi	r25, 0x03	; 3
    441a:	0e 94 1d 06 	call	0xc3a	; 0xc3a <lcd_puts>
	u =(u_curr -512)/1.414213*1.16;
    441e:	60 91 46 04 	lds	r22, 0x0446	; 0x800446 <u_curr>
    4422:	70 91 47 04 	lds	r23, 0x0447	; 0x800447 <u_curr+0x1>
    4426:	72 50       	subi	r23, 0x02	; 2
    4428:	07 2e       	mov	r0, r23
    442a:	00 0c       	add	r0, r0
    442c:	88 0b       	sbc	r24, r24
    442e:	99 0b       	sbc	r25, r25
    4430:	0e 94 e7 27 	call	0x4fce	; 0x4fce <__floatsisf>
    4434:	2e ee       	ldi	r18, 0xEE	; 238
    4436:	34 e0       	ldi	r19, 0x04	; 4
    4438:	45 eb       	ldi	r20, 0xB5	; 181
    443a:	5f e3       	ldi	r21, 0x3F	; 63
    443c:	0e 94 3d 27 	call	0x4e7a	; 0x4e7a <__divsf3>
    4440:	21 ee       	ldi	r18, 0xE1	; 225
    4442:	3a e7       	ldi	r19, 0x7A	; 122
    4444:	44 e9       	ldi	r20, 0x94	; 148
    4446:	5f e3       	ldi	r21, 0x3F	; 63
    4448:	0e 94 9c 28 	call	0x5138	; 0x5138 <__mulsf3>
    444c:	0e 94 af 27 	call	0x4f5e	; 0x4f5e <__fixsfsi>
    4450:	70 93 99 05 	sts	0x0599, r23	; 0x800599 <u+0x1>
    4454:	60 93 98 05 	sts	0x0598, r22	; 0x800598 <u>
	lcd_gotoxy(1, 1);
    4458:	60 e0       	ldi	r22, 0x00	; 0
    445a:	81 ec       	ldi	r24, 0xC1	; 193
    445c:	0e 94 47 05 	call	0xa8e	; 0xa8e <write_to_lcd>
	lcd_num_to_str(u/10, 2); // Выводим данные АЦП1 на LCD
    4460:	80 91 98 05 	lds	r24, 0x0598	; 0x800598 <u>
    4464:	90 91 99 05 	lds	r25, 0x0599	; 0x800599 <u+0x1>
    4468:	0a e0       	ldi	r16, 0x0A	; 10
    446a:	10 e0       	ldi	r17, 0x00	; 0
    446c:	b8 01       	movw	r22, r16
    446e:	0e 94 57 26 	call	0x4cae	; 0x4cae <__divmodhi4>
    4472:	cb 01       	movw	r24, r22
    4474:	62 e0       	ldi	r22, 0x02	; 2
    4476:	0e 94 34 06 	call	0xc68	; 0xc68 <lcd_num_to_str>
	lcd_gotoxy(3, 1);
    447a:	60 e0       	ldi	r22, 0x00	; 0
    447c:	83 ec       	ldi	r24, 0xC3	; 195
    447e:	0e 94 47 05 	call	0xa8e	; 0xa8e <write_to_lcd>
	lcd_num_to_str(u%100, 1);
    4482:	80 91 98 05 	lds	r24, 0x0598	; 0x800598 <u>
    4486:	90 91 99 05 	lds	r25, 0x0599	; 0x800599 <u+0x1>
    448a:	c4 e6       	ldi	r28, 0x64	; 100
    448c:	d0 e0       	ldi	r29, 0x00	; 0
    448e:	be 01       	movw	r22, r28
    4490:	0e 94 57 26 	call	0x4cae	; 0x4cae <__divmodhi4>
    4494:	61 e0       	ldi	r22, 0x01	; 1
    4496:	0e 94 34 06 	call	0xc68	; 0xc68 <lcd_num_to_str>
	current_adc ();
    449a:	0e 94 f8 00 	call	0x1f0	; 0x1f0 <current_adc>
	lcd_gotoxy(4, 1);
    449e:	60 e0       	ldi	r22, 0x00	; 0
    44a0:	84 ec       	ldi	r24, 0xC4	; 196
    44a2:	0e 94 47 05 	call	0xa8e	; 0xa8e <write_to_lcd>
	lcd_puts("__V");
    44a6:	82 e7       	ldi	r24, 0x72	; 114
    44a8:	93 e0       	ldi	r25, 0x03	; 3
    44aa:	0e 94 1d 06 	call	0xc3a	; 0xc3a <lcd_puts>
	v =(v_curr -512)/1.414213*1.16;
    44ae:	60 91 cc 03 	lds	r22, 0x03CC	; 0x8003cc <v_curr>
    44b2:	70 91 cd 03 	lds	r23, 0x03CD	; 0x8003cd <v_curr+0x1>
    44b6:	72 50       	subi	r23, 0x02	; 2
    44b8:	07 2e       	mov	r0, r23
    44ba:	00 0c       	add	r0, r0
    44bc:	88 0b       	sbc	r24, r24
    44be:	99 0b       	sbc	r25, r25
    44c0:	0e 94 e7 27 	call	0x4fce	; 0x4fce <__floatsisf>
    44c4:	2e ee       	ldi	r18, 0xEE	; 238
    44c6:	34 e0       	ldi	r19, 0x04	; 4
    44c8:	45 eb       	ldi	r20, 0xB5	; 181
    44ca:	5f e3       	ldi	r21, 0x3F	; 63
    44cc:	0e 94 3d 27 	call	0x4e7a	; 0x4e7a <__divsf3>
    44d0:	21 ee       	ldi	r18, 0xE1	; 225
    44d2:	3a e7       	ldi	r19, 0x7A	; 122
    44d4:	44 e9       	ldi	r20, 0x94	; 148
    44d6:	5f e3       	ldi	r21, 0x3F	; 63
    44d8:	0e 94 9c 28 	call	0x5138	; 0x5138 <__mulsf3>
    44dc:	0e 94 af 27 	call	0x4f5e	; 0x4f5e <__fixsfsi>
    44e0:	70 93 02 04 	sts	0x0402, r23	; 0x800402 <v+0x1>
    44e4:	60 93 01 04 	sts	0x0401, r22	; 0x800401 <v>
	lcd_gotoxy(7, 1);
    44e8:	60 e0       	ldi	r22, 0x00	; 0
    44ea:	87 ec       	ldi	r24, 0xC7	; 199
    44ec:	0e 94 47 05 	call	0xa8e	; 0xa8e <write_to_lcd>
	lcd_num_to_str(v/10, 2); // Выводим данные АЦП2 на LCD
    44f0:	80 91 01 04 	lds	r24, 0x0401	; 0x800401 <v>
    44f4:	90 91 02 04 	lds	r25, 0x0402	; 0x800402 <v+0x1>
    44f8:	b8 01       	movw	r22, r16
    44fa:	0e 94 57 26 	call	0x4cae	; 0x4cae <__divmodhi4>
    44fe:	cb 01       	movw	r24, r22
    4500:	62 e0       	ldi	r22, 0x02	; 2
    4502:	0e 94 34 06 	call	0xc68	; 0xc68 <lcd_num_to_str>
	lcd_gotoxy(9, 1);
    4506:	60 e0       	ldi	r22, 0x00	; 0
    4508:	89 ec       	ldi	r24, 0xC9	; 201
    450a:	0e 94 47 05 	call	0xa8e	; 0xa8e <write_to_lcd>
	lcd_num_to_str(v%100, 1);
    450e:	80 91 01 04 	lds	r24, 0x0401	; 0x800401 <v>
    4512:	90 91 02 04 	lds	r25, 0x0402	; 0x800402 <v+0x1>
    4516:	be 01       	movw	r22, r28
    4518:	0e 94 57 26 	call	0x4cae	; 0x4cae <__divmodhi4>
    451c:	61 e0       	ldi	r22, 0x01	; 1
    451e:	0e 94 34 06 	call	0xc68	; 0xc68 <lcd_num_to_str>
	current_adc ();
    4522:	0e 94 f8 00 	call	0x1f0	; 0x1f0 <current_adc>
	lcd_gotoxy(10, 1);
    4526:	60 e0       	ldi	r22, 0x00	; 0
    4528:	8a ec       	ldi	r24, 0xCA	; 202
    452a:	0e 94 47 05 	call	0xa8e	; 0xa8e <write_to_lcd>
	lcd_puts("__W");
    452e:	86 e7       	ldi	r24, 0x76	; 118
    4530:	93 e0       	ldi	r25, 0x03	; 3
    4532:	0e 94 1d 06 	call	0xc3a	; 0xc3a <lcd_puts>
	w =(w_curr -512)/1.414213*1.16;
    4536:	60 91 31 04 	lds	r22, 0x0431	; 0x800431 <w_curr>
    453a:	70 91 32 04 	lds	r23, 0x0432	; 0x800432 <w_curr+0x1>
    453e:	72 50       	subi	r23, 0x02	; 2
    4540:	07 2e       	mov	r0, r23
    4542:	00 0c       	add	r0, r0
    4544:	88 0b       	sbc	r24, r24
    4546:	99 0b       	sbc	r25, r25
    4548:	0e 94 e7 27 	call	0x4fce	; 0x4fce <__floatsisf>
    454c:	2e ee       	ldi	r18, 0xEE	; 238
    454e:	34 e0       	ldi	r19, 0x04	; 4
    4550:	45 eb       	ldi	r20, 0xB5	; 181
    4552:	5f e3       	ldi	r21, 0x3F	; 63
    4554:	0e 94 3d 27 	call	0x4e7a	; 0x4e7a <__divsf3>
    4558:	21 ee       	ldi	r18, 0xE1	; 225
    455a:	3a e7       	ldi	r19, 0x7A	; 122
    455c:	44 e9       	ldi	r20, 0x94	; 148
    455e:	5f e3       	ldi	r21, 0x3F	; 63
    4560:	0e 94 9c 28 	call	0x5138	; 0x5138 <__mulsf3>
    4564:	0e 94 af 27 	call	0x4f5e	; 0x4f5e <__fixsfsi>
    4568:	70 93 c2 03 	sts	0x03C2, r23	; 0x8003c2 <w+0x1>
    456c:	60 93 c1 03 	sts	0x03C1, r22	; 0x8003c1 <w>
	lcd_gotoxy(13, 1);
    4570:	60 e0       	ldi	r22, 0x00	; 0
    4572:	8d ec       	ldi	r24, 0xCD	; 205
    4574:	0e 94 47 05 	call	0xa8e	; 0xa8e <write_to_lcd>
	lcd_num_to_str(w/10, 2); // Выводим данные АЦП3 на LCD
    4578:	80 91 c1 03 	lds	r24, 0x03C1	; 0x8003c1 <w>
    457c:	90 91 c2 03 	lds	r25, 0x03C2	; 0x8003c2 <w+0x1>
    4580:	b8 01       	movw	r22, r16
    4582:	0e 94 57 26 	call	0x4cae	; 0x4cae <__divmodhi4>
    4586:	cb 01       	movw	r24, r22
    4588:	62 e0       	ldi	r22, 0x02	; 2
    458a:	0e 94 34 06 	call	0xc68	; 0xc68 <lcd_num_to_str>
	lcd_gotoxy(15, 1);
    458e:	60 e0       	ldi	r22, 0x00	; 0
    4590:	8f ec       	ldi	r24, 0xCF	; 207
    4592:	0e 94 47 05 	call	0xa8e	; 0xa8e <write_to_lcd>
	lcd_num_to_str(w%100, 1);
    4596:	80 91 c1 03 	lds	r24, 0x03C1	; 0x8003c1 <w>
    459a:	90 91 c2 03 	lds	r25, 0x03C2	; 0x8003c2 <w+0x1>
    459e:	be 01       	movw	r22, r28
    45a0:	0e 94 57 26 	call	0x4cae	; 0x4cae <__divmodhi4>
    45a4:	61 e0       	ldi	r22, 0x01	; 1
    45a6:	0e 94 34 06 	call	0xc68	; 0xc68 <lcd_num_to_str>
	
    45aa:	df 91       	pop	r29
    45ac:	cf 91       	pop	r28
    45ae:	1f 91       	pop	r17
    45b0:	0f 91       	pop	r16
    45b2:	08 95       	ret

000045b4 <vfprintf>:
    45b4:	a0 e1       	ldi	r26, 0x10	; 16
    45b6:	b0 e0       	ldi	r27, 0x00	; 0
    45b8:	e0 ee       	ldi	r30, 0xE0	; 224
    45ba:	f2 e2       	ldi	r31, 0x22	; 34
    45bc:	0c 94 80 26 	jmp	0x4d00	; 0x4d00 <__prologue_saves__>
    45c0:	7c 01       	movw	r14, r24
    45c2:	1b 01       	movw	r2, r22
    45c4:	6a 01       	movw	r12, r20
    45c6:	fc 01       	movw	r30, r24
    45c8:	17 82       	std	Z+7, r1	; 0x07
    45ca:	16 82       	std	Z+6, r1	; 0x06
    45cc:	83 81       	ldd	r24, Z+3	; 0x03
    45ce:	81 ff       	sbrs	r24, 1
    45d0:	44 c3       	rjmp	.+1672   	; 0x4c5a <vfprintf+0x6a6>
    45d2:	9e 01       	movw	r18, r28
    45d4:	2f 5f       	subi	r18, 0xFF	; 255
    45d6:	3f 4f       	sbci	r19, 0xFF	; 255
    45d8:	39 01       	movw	r6, r18
    45da:	f7 01       	movw	r30, r14
    45dc:	93 81       	ldd	r25, Z+3	; 0x03
    45de:	f1 01       	movw	r30, r2
    45e0:	93 fd       	sbrc	r25, 3
    45e2:	85 91       	lpm	r24, Z+
    45e4:	93 ff       	sbrs	r25, 3
    45e6:	81 91       	ld	r24, Z+
    45e8:	1f 01       	movw	r2, r30
    45ea:	88 23       	and	r24, r24
    45ec:	09 f4       	brne	.+2      	; 0x45f0 <vfprintf+0x3c>
    45ee:	31 c3       	rjmp	.+1634   	; 0x4c52 <vfprintf+0x69e>
    45f0:	85 32       	cpi	r24, 0x25	; 37
    45f2:	39 f4       	brne	.+14     	; 0x4602 <vfprintf+0x4e>
    45f4:	93 fd       	sbrc	r25, 3
    45f6:	85 91       	lpm	r24, Z+
    45f8:	93 ff       	sbrs	r25, 3
    45fa:	81 91       	ld	r24, Z+
    45fc:	1f 01       	movw	r2, r30
    45fe:	85 32       	cpi	r24, 0x25	; 37
    4600:	39 f4       	brne	.+14     	; 0x4610 <vfprintf+0x5c>
    4602:	b7 01       	movw	r22, r14
    4604:	90 e0       	ldi	r25, 0x00	; 0
    4606:	0e 94 f7 29 	call	0x53ee	; 0x53ee <fputc>
    460a:	56 01       	movw	r10, r12
    460c:	65 01       	movw	r12, r10
    460e:	e5 cf       	rjmp	.-54     	; 0x45da <vfprintf+0x26>
    4610:	10 e0       	ldi	r17, 0x00	; 0
    4612:	51 2c       	mov	r5, r1
    4614:	91 2c       	mov	r9, r1
    4616:	ff e1       	ldi	r31, 0x1F	; 31
    4618:	f9 15       	cp	r31, r9
    461a:	d8 f0       	brcs	.+54     	; 0x4652 <vfprintf+0x9e>
    461c:	8b 32       	cpi	r24, 0x2B	; 43
    461e:	79 f0       	breq	.+30     	; 0x463e <vfprintf+0x8a>
    4620:	38 f4       	brcc	.+14     	; 0x4630 <vfprintf+0x7c>
    4622:	80 32       	cpi	r24, 0x20	; 32
    4624:	79 f0       	breq	.+30     	; 0x4644 <vfprintf+0x90>
    4626:	83 32       	cpi	r24, 0x23	; 35
    4628:	a1 f4       	brne	.+40     	; 0x4652 <vfprintf+0x9e>
    462a:	f9 2d       	mov	r31, r9
    462c:	f0 61       	ori	r31, 0x10	; 16
    462e:	2e c0       	rjmp	.+92     	; 0x468c <vfprintf+0xd8>
    4630:	8d 32       	cpi	r24, 0x2D	; 45
    4632:	61 f0       	breq	.+24     	; 0x464c <vfprintf+0x98>
    4634:	80 33       	cpi	r24, 0x30	; 48
    4636:	69 f4       	brne	.+26     	; 0x4652 <vfprintf+0x9e>
    4638:	29 2d       	mov	r18, r9
    463a:	21 60       	ori	r18, 0x01	; 1
    463c:	2d c0       	rjmp	.+90     	; 0x4698 <vfprintf+0xe4>
    463e:	39 2d       	mov	r19, r9
    4640:	32 60       	ori	r19, 0x02	; 2
    4642:	93 2e       	mov	r9, r19
    4644:	89 2d       	mov	r24, r9
    4646:	84 60       	ori	r24, 0x04	; 4
    4648:	98 2e       	mov	r9, r24
    464a:	2a c0       	rjmp	.+84     	; 0x46a0 <vfprintf+0xec>
    464c:	e9 2d       	mov	r30, r9
    464e:	e8 60       	ori	r30, 0x08	; 8
    4650:	15 c0       	rjmp	.+42     	; 0x467c <vfprintf+0xc8>
    4652:	97 fc       	sbrc	r9, 7
    4654:	2d c0       	rjmp	.+90     	; 0x46b0 <vfprintf+0xfc>
    4656:	20 ed       	ldi	r18, 0xD0	; 208
    4658:	28 0f       	add	r18, r24
    465a:	2a 30       	cpi	r18, 0x0A	; 10
    465c:	88 f4       	brcc	.+34     	; 0x4680 <vfprintf+0xcc>
    465e:	96 fe       	sbrs	r9, 6
    4660:	06 c0       	rjmp	.+12     	; 0x466e <vfprintf+0xba>
    4662:	3a e0       	ldi	r19, 0x0A	; 10
    4664:	13 9f       	mul	r17, r19
    4666:	20 0d       	add	r18, r0
    4668:	11 24       	eor	r1, r1
    466a:	12 2f       	mov	r17, r18
    466c:	19 c0       	rjmp	.+50     	; 0x46a0 <vfprintf+0xec>
    466e:	8a e0       	ldi	r24, 0x0A	; 10
    4670:	58 9e       	mul	r5, r24
    4672:	20 0d       	add	r18, r0
    4674:	11 24       	eor	r1, r1
    4676:	52 2e       	mov	r5, r18
    4678:	e9 2d       	mov	r30, r9
    467a:	e0 62       	ori	r30, 0x20	; 32
    467c:	9e 2e       	mov	r9, r30
    467e:	10 c0       	rjmp	.+32     	; 0x46a0 <vfprintf+0xec>
    4680:	8e 32       	cpi	r24, 0x2E	; 46
    4682:	31 f4       	brne	.+12     	; 0x4690 <vfprintf+0xdc>
    4684:	96 fc       	sbrc	r9, 6
    4686:	e5 c2       	rjmp	.+1482   	; 0x4c52 <vfprintf+0x69e>
    4688:	f9 2d       	mov	r31, r9
    468a:	f0 64       	ori	r31, 0x40	; 64
    468c:	9f 2e       	mov	r9, r31
    468e:	08 c0       	rjmp	.+16     	; 0x46a0 <vfprintf+0xec>
    4690:	8c 36       	cpi	r24, 0x6C	; 108
    4692:	21 f4       	brne	.+8      	; 0x469c <vfprintf+0xe8>
    4694:	29 2d       	mov	r18, r9
    4696:	20 68       	ori	r18, 0x80	; 128
    4698:	92 2e       	mov	r9, r18
    469a:	02 c0       	rjmp	.+4      	; 0x46a0 <vfprintf+0xec>
    469c:	88 36       	cpi	r24, 0x68	; 104
    469e:	41 f4       	brne	.+16     	; 0x46b0 <vfprintf+0xfc>
    46a0:	f1 01       	movw	r30, r2
    46a2:	93 fd       	sbrc	r25, 3
    46a4:	85 91       	lpm	r24, Z+
    46a6:	93 ff       	sbrs	r25, 3
    46a8:	81 91       	ld	r24, Z+
    46aa:	1f 01       	movw	r2, r30
    46ac:	81 11       	cpse	r24, r1
    46ae:	b3 cf       	rjmp	.-154    	; 0x4616 <vfprintf+0x62>
    46b0:	9b eb       	ldi	r25, 0xBB	; 187
    46b2:	98 0f       	add	r25, r24
    46b4:	93 30       	cpi	r25, 0x03	; 3
    46b6:	20 f4       	brcc	.+8      	; 0x46c0 <vfprintf+0x10c>
    46b8:	99 2d       	mov	r25, r9
    46ba:	90 61       	ori	r25, 0x10	; 16
    46bc:	80 5e       	subi	r24, 0xE0	; 224
    46be:	07 c0       	rjmp	.+14     	; 0x46ce <vfprintf+0x11a>
    46c0:	9b e9       	ldi	r25, 0x9B	; 155
    46c2:	98 0f       	add	r25, r24
    46c4:	93 30       	cpi	r25, 0x03	; 3
    46c6:	08 f0       	brcs	.+2      	; 0x46ca <vfprintf+0x116>
    46c8:	66 c1       	rjmp	.+716    	; 0x4996 <vfprintf+0x3e2>
    46ca:	99 2d       	mov	r25, r9
    46cc:	9f 7e       	andi	r25, 0xEF	; 239
    46ce:	96 ff       	sbrs	r25, 6
    46d0:	16 e0       	ldi	r17, 0x06	; 6
    46d2:	9f 73       	andi	r25, 0x3F	; 63
    46d4:	99 2e       	mov	r9, r25
    46d6:	85 36       	cpi	r24, 0x65	; 101
    46d8:	19 f4       	brne	.+6      	; 0x46e0 <vfprintf+0x12c>
    46da:	90 64       	ori	r25, 0x40	; 64
    46dc:	99 2e       	mov	r9, r25
    46de:	08 c0       	rjmp	.+16     	; 0x46f0 <vfprintf+0x13c>
    46e0:	86 36       	cpi	r24, 0x66	; 102
    46e2:	21 f4       	brne	.+8      	; 0x46ec <vfprintf+0x138>
    46e4:	39 2f       	mov	r19, r25
    46e6:	30 68       	ori	r19, 0x80	; 128
    46e8:	93 2e       	mov	r9, r19
    46ea:	02 c0       	rjmp	.+4      	; 0x46f0 <vfprintf+0x13c>
    46ec:	11 11       	cpse	r17, r1
    46ee:	11 50       	subi	r17, 0x01	; 1
    46f0:	97 fe       	sbrs	r9, 7
    46f2:	07 c0       	rjmp	.+14     	; 0x4702 <vfprintf+0x14e>
    46f4:	1c 33       	cpi	r17, 0x3C	; 60
    46f6:	50 f4       	brcc	.+20     	; 0x470c <vfprintf+0x158>
    46f8:	44 24       	eor	r4, r4
    46fa:	43 94       	inc	r4
    46fc:	41 0e       	add	r4, r17
    46fe:	27 e0       	ldi	r18, 0x07	; 7
    4700:	0b c0       	rjmp	.+22     	; 0x4718 <vfprintf+0x164>
    4702:	18 30       	cpi	r17, 0x08	; 8
    4704:	38 f0       	brcs	.+14     	; 0x4714 <vfprintf+0x160>
    4706:	27 e0       	ldi	r18, 0x07	; 7
    4708:	17 e0       	ldi	r17, 0x07	; 7
    470a:	05 c0       	rjmp	.+10     	; 0x4716 <vfprintf+0x162>
    470c:	27 e0       	ldi	r18, 0x07	; 7
    470e:	9c e3       	ldi	r25, 0x3C	; 60
    4710:	49 2e       	mov	r4, r25
    4712:	02 c0       	rjmp	.+4      	; 0x4718 <vfprintf+0x164>
    4714:	21 2f       	mov	r18, r17
    4716:	41 2c       	mov	r4, r1
    4718:	56 01       	movw	r10, r12
    471a:	84 e0       	ldi	r24, 0x04	; 4
    471c:	a8 0e       	add	r10, r24
    471e:	b1 1c       	adc	r11, r1
    4720:	f6 01       	movw	r30, r12
    4722:	60 81       	ld	r22, Z
    4724:	71 81       	ldd	r23, Z+1	; 0x01
    4726:	82 81       	ldd	r24, Z+2	; 0x02
    4728:	93 81       	ldd	r25, Z+3	; 0x03
    472a:	04 2d       	mov	r16, r4
    472c:	a3 01       	movw	r20, r6
    472e:	0e 94 09 29 	call	0x5212	; 0x5212 <__ftoa_engine>
    4732:	6c 01       	movw	r12, r24
    4734:	f9 81       	ldd	r31, Y+1	; 0x01
    4736:	fc 87       	std	Y+12, r31	; 0x0c
    4738:	f0 ff       	sbrs	r31, 0
    473a:	02 c0       	rjmp	.+4      	; 0x4740 <vfprintf+0x18c>
    473c:	f3 ff       	sbrs	r31, 3
    473e:	06 c0       	rjmp	.+12     	; 0x474c <vfprintf+0x198>
    4740:	91 fc       	sbrc	r9, 1
    4742:	06 c0       	rjmp	.+12     	; 0x4750 <vfprintf+0x19c>
    4744:	92 fe       	sbrs	r9, 2
    4746:	06 c0       	rjmp	.+12     	; 0x4754 <vfprintf+0x1a0>
    4748:	00 e2       	ldi	r16, 0x20	; 32
    474a:	05 c0       	rjmp	.+10     	; 0x4756 <vfprintf+0x1a2>
    474c:	0d e2       	ldi	r16, 0x2D	; 45
    474e:	03 c0       	rjmp	.+6      	; 0x4756 <vfprintf+0x1a2>
    4750:	0b e2       	ldi	r16, 0x2B	; 43
    4752:	01 c0       	rjmp	.+2      	; 0x4756 <vfprintf+0x1a2>
    4754:	00 e0       	ldi	r16, 0x00	; 0
    4756:	8c 85       	ldd	r24, Y+12	; 0x0c
    4758:	8c 70       	andi	r24, 0x0C	; 12
    475a:	19 f0       	breq	.+6      	; 0x4762 <vfprintf+0x1ae>
    475c:	01 11       	cpse	r16, r1
    475e:	5a c2       	rjmp	.+1204   	; 0x4c14 <vfprintf+0x660>
    4760:	9b c2       	rjmp	.+1334   	; 0x4c98 <vfprintf+0x6e4>
    4762:	97 fe       	sbrs	r9, 7
    4764:	10 c0       	rjmp	.+32     	; 0x4786 <vfprintf+0x1d2>
    4766:	4c 0c       	add	r4, r12
    4768:	fc 85       	ldd	r31, Y+12	; 0x0c
    476a:	f4 ff       	sbrs	r31, 4
    476c:	04 c0       	rjmp	.+8      	; 0x4776 <vfprintf+0x1c2>
    476e:	8a 81       	ldd	r24, Y+2	; 0x02
    4770:	81 33       	cpi	r24, 0x31	; 49
    4772:	09 f4       	brne	.+2      	; 0x4776 <vfprintf+0x1c2>
    4774:	4a 94       	dec	r4
    4776:	14 14       	cp	r1, r4
    4778:	74 f5       	brge	.+92     	; 0x47d6 <vfprintf+0x222>
    477a:	28 e0       	ldi	r18, 0x08	; 8
    477c:	24 15       	cp	r18, r4
    477e:	78 f5       	brcc	.+94     	; 0x47de <vfprintf+0x22a>
    4780:	88 e0       	ldi	r24, 0x08	; 8
    4782:	48 2e       	mov	r4, r24
    4784:	2c c0       	rjmp	.+88     	; 0x47de <vfprintf+0x22a>
    4786:	96 fc       	sbrc	r9, 6
    4788:	2a c0       	rjmp	.+84     	; 0x47de <vfprintf+0x22a>
    478a:	81 2f       	mov	r24, r17
    478c:	90 e0       	ldi	r25, 0x00	; 0
    478e:	8c 15       	cp	r24, r12
    4790:	9d 05       	cpc	r25, r13
    4792:	9c f0       	brlt	.+38     	; 0x47ba <vfprintf+0x206>
    4794:	3c ef       	ldi	r19, 0xFC	; 252
    4796:	c3 16       	cp	r12, r19
    4798:	3f ef       	ldi	r19, 0xFF	; 255
    479a:	d3 06       	cpc	r13, r19
    479c:	74 f0       	brlt	.+28     	; 0x47ba <vfprintf+0x206>
    479e:	89 2d       	mov	r24, r9
    47a0:	80 68       	ori	r24, 0x80	; 128
    47a2:	98 2e       	mov	r9, r24
    47a4:	0a c0       	rjmp	.+20     	; 0x47ba <vfprintf+0x206>
    47a6:	e2 e0       	ldi	r30, 0x02	; 2
    47a8:	f0 e0       	ldi	r31, 0x00	; 0
    47aa:	ec 0f       	add	r30, r28
    47ac:	fd 1f       	adc	r31, r29
    47ae:	e1 0f       	add	r30, r17
    47b0:	f1 1d       	adc	r31, r1
    47b2:	80 81       	ld	r24, Z
    47b4:	80 33       	cpi	r24, 0x30	; 48
    47b6:	19 f4       	brne	.+6      	; 0x47be <vfprintf+0x20a>
    47b8:	11 50       	subi	r17, 0x01	; 1
    47ba:	11 11       	cpse	r17, r1
    47bc:	f4 cf       	rjmp	.-24     	; 0x47a6 <vfprintf+0x1f2>
    47be:	97 fe       	sbrs	r9, 7
    47c0:	0e c0       	rjmp	.+28     	; 0x47de <vfprintf+0x22a>
    47c2:	44 24       	eor	r4, r4
    47c4:	43 94       	inc	r4
    47c6:	41 0e       	add	r4, r17
    47c8:	81 2f       	mov	r24, r17
    47ca:	90 e0       	ldi	r25, 0x00	; 0
    47cc:	c8 16       	cp	r12, r24
    47ce:	d9 06       	cpc	r13, r25
    47d0:	2c f4       	brge	.+10     	; 0x47dc <vfprintf+0x228>
    47d2:	1c 19       	sub	r17, r12
    47d4:	04 c0       	rjmp	.+8      	; 0x47de <vfprintf+0x22a>
    47d6:	44 24       	eor	r4, r4
    47d8:	43 94       	inc	r4
    47da:	01 c0       	rjmp	.+2      	; 0x47de <vfprintf+0x22a>
    47dc:	10 e0       	ldi	r17, 0x00	; 0
    47de:	97 fe       	sbrs	r9, 7
    47e0:	06 c0       	rjmp	.+12     	; 0x47ee <vfprintf+0x23a>
    47e2:	1c 14       	cp	r1, r12
    47e4:	1d 04       	cpc	r1, r13
    47e6:	34 f4       	brge	.+12     	; 0x47f4 <vfprintf+0x240>
    47e8:	c6 01       	movw	r24, r12
    47ea:	01 96       	adiw	r24, 0x01	; 1
    47ec:	05 c0       	rjmp	.+10     	; 0x47f8 <vfprintf+0x244>
    47ee:	85 e0       	ldi	r24, 0x05	; 5
    47f0:	90 e0       	ldi	r25, 0x00	; 0
    47f2:	02 c0       	rjmp	.+4      	; 0x47f8 <vfprintf+0x244>
    47f4:	81 e0       	ldi	r24, 0x01	; 1
    47f6:	90 e0       	ldi	r25, 0x00	; 0
    47f8:	01 11       	cpse	r16, r1
    47fa:	01 96       	adiw	r24, 0x01	; 1
    47fc:	11 23       	and	r17, r17
    47fe:	31 f0       	breq	.+12     	; 0x480c <vfprintf+0x258>
    4800:	21 2f       	mov	r18, r17
    4802:	30 e0       	ldi	r19, 0x00	; 0
    4804:	2f 5f       	subi	r18, 0xFF	; 255
    4806:	3f 4f       	sbci	r19, 0xFF	; 255
    4808:	82 0f       	add	r24, r18
    480a:	93 1f       	adc	r25, r19
    480c:	25 2d       	mov	r18, r5
    480e:	30 e0       	ldi	r19, 0x00	; 0
    4810:	82 17       	cp	r24, r18
    4812:	93 07       	cpc	r25, r19
    4814:	14 f4       	brge	.+4      	; 0x481a <vfprintf+0x266>
    4816:	58 1a       	sub	r5, r24
    4818:	01 c0       	rjmp	.+2      	; 0x481c <vfprintf+0x268>
    481a:	51 2c       	mov	r5, r1
    481c:	89 2d       	mov	r24, r9
    481e:	89 70       	andi	r24, 0x09	; 9
    4820:	49 f4       	brne	.+18     	; 0x4834 <vfprintf+0x280>
    4822:	55 20       	and	r5, r5
    4824:	39 f0       	breq	.+14     	; 0x4834 <vfprintf+0x280>
    4826:	b7 01       	movw	r22, r14
    4828:	80 e2       	ldi	r24, 0x20	; 32
    482a:	90 e0       	ldi	r25, 0x00	; 0
    482c:	0e 94 f7 29 	call	0x53ee	; 0x53ee <fputc>
    4830:	5a 94       	dec	r5
    4832:	f7 cf       	rjmp	.-18     	; 0x4822 <vfprintf+0x26e>
    4834:	00 23       	and	r16, r16
    4836:	29 f0       	breq	.+10     	; 0x4842 <vfprintf+0x28e>
    4838:	b7 01       	movw	r22, r14
    483a:	80 2f       	mov	r24, r16
    483c:	90 e0       	ldi	r25, 0x00	; 0
    483e:	0e 94 f7 29 	call	0x53ee	; 0x53ee <fputc>
    4842:	93 fc       	sbrc	r9, 3
    4844:	09 c0       	rjmp	.+18     	; 0x4858 <vfprintf+0x2a4>
    4846:	55 20       	and	r5, r5
    4848:	39 f0       	breq	.+14     	; 0x4858 <vfprintf+0x2a4>
    484a:	b7 01       	movw	r22, r14
    484c:	80 e3       	ldi	r24, 0x30	; 48
    484e:	90 e0       	ldi	r25, 0x00	; 0
    4850:	0e 94 f7 29 	call	0x53ee	; 0x53ee <fputc>
    4854:	5a 94       	dec	r5
    4856:	f7 cf       	rjmp	.-18     	; 0x4846 <vfprintf+0x292>
    4858:	97 fe       	sbrs	r9, 7
    485a:	4c c0       	rjmp	.+152    	; 0x48f4 <vfprintf+0x340>
    485c:	46 01       	movw	r8, r12
    485e:	d7 fe       	sbrs	r13, 7
    4860:	02 c0       	rjmp	.+4      	; 0x4866 <vfprintf+0x2b2>
    4862:	81 2c       	mov	r8, r1
    4864:	91 2c       	mov	r9, r1
    4866:	c6 01       	movw	r24, r12
    4868:	88 19       	sub	r24, r8
    486a:	99 09       	sbc	r25, r9
    486c:	f3 01       	movw	r30, r6
    486e:	e8 0f       	add	r30, r24
    4870:	f9 1f       	adc	r31, r25
    4872:	fe 87       	std	Y+14, r31	; 0x0e
    4874:	ed 87       	std	Y+13, r30	; 0x0d
    4876:	96 01       	movw	r18, r12
    4878:	24 19       	sub	r18, r4
    487a:	31 09       	sbc	r19, r1
    487c:	38 8b       	std	Y+16, r19	; 0x10
    487e:	2f 87       	std	Y+15, r18	; 0x0f
    4880:	01 2f       	mov	r16, r17
    4882:	10 e0       	ldi	r17, 0x00	; 0
    4884:	11 95       	neg	r17
    4886:	01 95       	neg	r16
    4888:	11 09       	sbc	r17, r1
    488a:	3f ef       	ldi	r19, 0xFF	; 255
    488c:	83 16       	cp	r8, r19
    488e:	93 06       	cpc	r9, r19
    4890:	29 f4       	brne	.+10     	; 0x489c <vfprintf+0x2e8>
    4892:	b7 01       	movw	r22, r14
    4894:	8e e2       	ldi	r24, 0x2E	; 46
    4896:	90 e0       	ldi	r25, 0x00	; 0
    4898:	0e 94 f7 29 	call	0x53ee	; 0x53ee <fputc>
    489c:	c8 14       	cp	r12, r8
    489e:	d9 04       	cpc	r13, r9
    48a0:	4c f0       	brlt	.+18     	; 0x48b4 <vfprintf+0x300>
    48a2:	8f 85       	ldd	r24, Y+15	; 0x0f
    48a4:	98 89       	ldd	r25, Y+16	; 0x10
    48a6:	88 15       	cp	r24, r8
    48a8:	99 05       	cpc	r25, r9
    48aa:	24 f4       	brge	.+8      	; 0x48b4 <vfprintf+0x300>
    48ac:	ed 85       	ldd	r30, Y+13	; 0x0d
    48ae:	fe 85       	ldd	r31, Y+14	; 0x0e
    48b0:	81 81       	ldd	r24, Z+1	; 0x01
    48b2:	01 c0       	rjmp	.+2      	; 0x48b6 <vfprintf+0x302>
    48b4:	80 e3       	ldi	r24, 0x30	; 48
    48b6:	f1 e0       	ldi	r31, 0x01	; 1
    48b8:	8f 1a       	sub	r8, r31
    48ba:	91 08       	sbc	r9, r1
    48bc:	2d 85       	ldd	r18, Y+13	; 0x0d
    48be:	3e 85       	ldd	r19, Y+14	; 0x0e
    48c0:	2f 5f       	subi	r18, 0xFF	; 255
    48c2:	3f 4f       	sbci	r19, 0xFF	; 255
    48c4:	3e 87       	std	Y+14, r19	; 0x0e
    48c6:	2d 87       	std	Y+13, r18	; 0x0d
    48c8:	80 16       	cp	r8, r16
    48ca:	91 06       	cpc	r9, r17
    48cc:	2c f0       	brlt	.+10     	; 0x48d8 <vfprintf+0x324>
    48ce:	b7 01       	movw	r22, r14
    48d0:	90 e0       	ldi	r25, 0x00	; 0
    48d2:	0e 94 f7 29 	call	0x53ee	; 0x53ee <fputc>
    48d6:	d9 cf       	rjmp	.-78     	; 0x488a <vfprintf+0x2d6>
    48d8:	c8 14       	cp	r12, r8
    48da:	d9 04       	cpc	r13, r9
    48dc:	41 f4       	brne	.+16     	; 0x48ee <vfprintf+0x33a>
    48de:	9a 81       	ldd	r25, Y+2	; 0x02
    48e0:	96 33       	cpi	r25, 0x36	; 54
    48e2:	20 f4       	brcc	.+8      	; 0x48ec <vfprintf+0x338>
    48e4:	95 33       	cpi	r25, 0x35	; 53
    48e6:	19 f4       	brne	.+6      	; 0x48ee <vfprintf+0x33a>
    48e8:	3c 85       	ldd	r19, Y+12	; 0x0c
    48ea:	34 ff       	sbrs	r19, 4
    48ec:	81 e3       	ldi	r24, 0x31	; 49
    48ee:	b7 01       	movw	r22, r14
    48f0:	90 e0       	ldi	r25, 0x00	; 0
    48f2:	4e c0       	rjmp	.+156    	; 0x4990 <vfprintf+0x3dc>
    48f4:	8a 81       	ldd	r24, Y+2	; 0x02
    48f6:	81 33       	cpi	r24, 0x31	; 49
    48f8:	19 f0       	breq	.+6      	; 0x4900 <vfprintf+0x34c>
    48fa:	9c 85       	ldd	r25, Y+12	; 0x0c
    48fc:	9f 7e       	andi	r25, 0xEF	; 239
    48fe:	9c 87       	std	Y+12, r25	; 0x0c
    4900:	b7 01       	movw	r22, r14
    4902:	90 e0       	ldi	r25, 0x00	; 0
    4904:	0e 94 f7 29 	call	0x53ee	; 0x53ee <fputc>
    4908:	11 11       	cpse	r17, r1
    490a:	05 c0       	rjmp	.+10     	; 0x4916 <vfprintf+0x362>
    490c:	94 fc       	sbrc	r9, 4
    490e:	18 c0       	rjmp	.+48     	; 0x4940 <vfprintf+0x38c>
    4910:	85 e6       	ldi	r24, 0x65	; 101
    4912:	90 e0       	ldi	r25, 0x00	; 0
    4914:	17 c0       	rjmp	.+46     	; 0x4944 <vfprintf+0x390>
    4916:	b7 01       	movw	r22, r14
    4918:	8e e2       	ldi	r24, 0x2E	; 46
    491a:	90 e0       	ldi	r25, 0x00	; 0
    491c:	0e 94 f7 29 	call	0x53ee	; 0x53ee <fputc>
    4920:	1e 5f       	subi	r17, 0xFE	; 254
    4922:	82 e0       	ldi	r24, 0x02	; 2
    4924:	01 e0       	ldi	r16, 0x01	; 1
    4926:	08 0f       	add	r16, r24
    4928:	f3 01       	movw	r30, r6
    492a:	e8 0f       	add	r30, r24
    492c:	f1 1d       	adc	r31, r1
    492e:	80 81       	ld	r24, Z
    4930:	b7 01       	movw	r22, r14
    4932:	90 e0       	ldi	r25, 0x00	; 0
    4934:	0e 94 f7 29 	call	0x53ee	; 0x53ee <fputc>
    4938:	80 2f       	mov	r24, r16
    493a:	01 13       	cpse	r16, r17
    493c:	f3 cf       	rjmp	.-26     	; 0x4924 <vfprintf+0x370>
    493e:	e6 cf       	rjmp	.-52     	; 0x490c <vfprintf+0x358>
    4940:	85 e4       	ldi	r24, 0x45	; 69
    4942:	90 e0       	ldi	r25, 0x00	; 0
    4944:	b7 01       	movw	r22, r14
    4946:	0e 94 f7 29 	call	0x53ee	; 0x53ee <fputc>
    494a:	d7 fc       	sbrc	r13, 7
    494c:	06 c0       	rjmp	.+12     	; 0x495a <vfprintf+0x3a6>
    494e:	c1 14       	cp	r12, r1
    4950:	d1 04       	cpc	r13, r1
    4952:	41 f4       	brne	.+16     	; 0x4964 <vfprintf+0x3b0>
    4954:	ec 85       	ldd	r30, Y+12	; 0x0c
    4956:	e4 ff       	sbrs	r30, 4
    4958:	05 c0       	rjmp	.+10     	; 0x4964 <vfprintf+0x3b0>
    495a:	d1 94       	neg	r13
    495c:	c1 94       	neg	r12
    495e:	d1 08       	sbc	r13, r1
    4960:	8d e2       	ldi	r24, 0x2D	; 45
    4962:	01 c0       	rjmp	.+2      	; 0x4966 <vfprintf+0x3b2>
    4964:	8b e2       	ldi	r24, 0x2B	; 43
    4966:	b7 01       	movw	r22, r14
    4968:	90 e0       	ldi	r25, 0x00	; 0
    496a:	0e 94 f7 29 	call	0x53ee	; 0x53ee <fputc>
    496e:	80 e3       	ldi	r24, 0x30	; 48
    4970:	2a e0       	ldi	r18, 0x0A	; 10
    4972:	c2 16       	cp	r12, r18
    4974:	d1 04       	cpc	r13, r1
    4976:	2c f0       	brlt	.+10     	; 0x4982 <vfprintf+0x3ce>
    4978:	8f 5f       	subi	r24, 0xFF	; 255
    497a:	fa e0       	ldi	r31, 0x0A	; 10
    497c:	cf 1a       	sub	r12, r31
    497e:	d1 08       	sbc	r13, r1
    4980:	f7 cf       	rjmp	.-18     	; 0x4970 <vfprintf+0x3bc>
    4982:	b7 01       	movw	r22, r14
    4984:	90 e0       	ldi	r25, 0x00	; 0
    4986:	0e 94 f7 29 	call	0x53ee	; 0x53ee <fputc>
    498a:	b7 01       	movw	r22, r14
    498c:	c6 01       	movw	r24, r12
    498e:	c0 96       	adiw	r24, 0x30	; 48
    4990:	0e 94 f7 29 	call	0x53ee	; 0x53ee <fputc>
    4994:	54 c1       	rjmp	.+680    	; 0x4c3e <vfprintf+0x68a>
    4996:	83 36       	cpi	r24, 0x63	; 99
    4998:	31 f0       	breq	.+12     	; 0x49a6 <vfprintf+0x3f2>
    499a:	83 37       	cpi	r24, 0x73	; 115
    499c:	79 f0       	breq	.+30     	; 0x49bc <vfprintf+0x408>
    499e:	83 35       	cpi	r24, 0x53	; 83
    49a0:	09 f0       	breq	.+2      	; 0x49a4 <vfprintf+0x3f0>
    49a2:	56 c0       	rjmp	.+172    	; 0x4a50 <vfprintf+0x49c>
    49a4:	20 c0       	rjmp	.+64     	; 0x49e6 <vfprintf+0x432>
    49a6:	56 01       	movw	r10, r12
    49a8:	32 e0       	ldi	r19, 0x02	; 2
    49aa:	a3 0e       	add	r10, r19
    49ac:	b1 1c       	adc	r11, r1
    49ae:	f6 01       	movw	r30, r12
    49b0:	80 81       	ld	r24, Z
    49b2:	89 83       	std	Y+1, r24	; 0x01
    49b4:	01 e0       	ldi	r16, 0x01	; 1
    49b6:	10 e0       	ldi	r17, 0x00	; 0
    49b8:	63 01       	movw	r12, r6
    49ba:	12 c0       	rjmp	.+36     	; 0x49e0 <vfprintf+0x42c>
    49bc:	56 01       	movw	r10, r12
    49be:	f2 e0       	ldi	r31, 0x02	; 2
    49c0:	af 0e       	add	r10, r31
    49c2:	b1 1c       	adc	r11, r1
    49c4:	f6 01       	movw	r30, r12
    49c6:	c0 80       	ld	r12, Z
    49c8:	d1 80       	ldd	r13, Z+1	; 0x01
    49ca:	96 fe       	sbrs	r9, 6
    49cc:	03 c0       	rjmp	.+6      	; 0x49d4 <vfprintf+0x420>
    49ce:	61 2f       	mov	r22, r17
    49d0:	70 e0       	ldi	r23, 0x00	; 0
    49d2:	02 c0       	rjmp	.+4      	; 0x49d8 <vfprintf+0x424>
    49d4:	6f ef       	ldi	r22, 0xFF	; 255
    49d6:	7f ef       	ldi	r23, 0xFF	; 255
    49d8:	c6 01       	movw	r24, r12
    49da:	0e 94 ec 29 	call	0x53d8	; 0x53d8 <strnlen>
    49de:	8c 01       	movw	r16, r24
    49e0:	f9 2d       	mov	r31, r9
    49e2:	ff 77       	andi	r31, 0x7F	; 127
    49e4:	14 c0       	rjmp	.+40     	; 0x4a0e <vfprintf+0x45a>
    49e6:	56 01       	movw	r10, r12
    49e8:	22 e0       	ldi	r18, 0x02	; 2
    49ea:	a2 0e       	add	r10, r18
    49ec:	b1 1c       	adc	r11, r1
    49ee:	f6 01       	movw	r30, r12
    49f0:	c0 80       	ld	r12, Z
    49f2:	d1 80       	ldd	r13, Z+1	; 0x01
    49f4:	96 fe       	sbrs	r9, 6
    49f6:	03 c0       	rjmp	.+6      	; 0x49fe <vfprintf+0x44a>
    49f8:	61 2f       	mov	r22, r17
    49fa:	70 e0       	ldi	r23, 0x00	; 0
    49fc:	02 c0       	rjmp	.+4      	; 0x4a02 <vfprintf+0x44e>
    49fe:	6f ef       	ldi	r22, 0xFF	; 255
    4a00:	7f ef       	ldi	r23, 0xFF	; 255
    4a02:	c6 01       	movw	r24, r12
    4a04:	0e 94 e1 29 	call	0x53c2	; 0x53c2 <strnlen_P>
    4a08:	8c 01       	movw	r16, r24
    4a0a:	f9 2d       	mov	r31, r9
    4a0c:	f0 68       	ori	r31, 0x80	; 128
    4a0e:	9f 2e       	mov	r9, r31
    4a10:	f3 fd       	sbrc	r31, 3
    4a12:	1a c0       	rjmp	.+52     	; 0x4a48 <vfprintf+0x494>
    4a14:	85 2d       	mov	r24, r5
    4a16:	90 e0       	ldi	r25, 0x00	; 0
    4a18:	08 17       	cp	r16, r24
    4a1a:	19 07       	cpc	r17, r25
    4a1c:	a8 f4       	brcc	.+42     	; 0x4a48 <vfprintf+0x494>
    4a1e:	b7 01       	movw	r22, r14
    4a20:	80 e2       	ldi	r24, 0x20	; 32
    4a22:	90 e0       	ldi	r25, 0x00	; 0
    4a24:	0e 94 f7 29 	call	0x53ee	; 0x53ee <fputc>
    4a28:	5a 94       	dec	r5
    4a2a:	f4 cf       	rjmp	.-24     	; 0x4a14 <vfprintf+0x460>
    4a2c:	f6 01       	movw	r30, r12
    4a2e:	97 fc       	sbrc	r9, 7
    4a30:	85 91       	lpm	r24, Z+
    4a32:	97 fe       	sbrs	r9, 7
    4a34:	81 91       	ld	r24, Z+
    4a36:	6f 01       	movw	r12, r30
    4a38:	b7 01       	movw	r22, r14
    4a3a:	90 e0       	ldi	r25, 0x00	; 0
    4a3c:	0e 94 f7 29 	call	0x53ee	; 0x53ee <fputc>
    4a40:	51 10       	cpse	r5, r1
    4a42:	5a 94       	dec	r5
    4a44:	01 50       	subi	r16, 0x01	; 1
    4a46:	11 09       	sbc	r17, r1
    4a48:	01 15       	cp	r16, r1
    4a4a:	11 05       	cpc	r17, r1
    4a4c:	79 f7       	brne	.-34     	; 0x4a2c <vfprintf+0x478>
    4a4e:	f7 c0       	rjmp	.+494    	; 0x4c3e <vfprintf+0x68a>
    4a50:	84 36       	cpi	r24, 0x64	; 100
    4a52:	11 f0       	breq	.+4      	; 0x4a58 <vfprintf+0x4a4>
    4a54:	89 36       	cpi	r24, 0x69	; 105
    4a56:	61 f5       	brne	.+88     	; 0x4ab0 <vfprintf+0x4fc>
    4a58:	56 01       	movw	r10, r12
    4a5a:	97 fe       	sbrs	r9, 7
    4a5c:	09 c0       	rjmp	.+18     	; 0x4a70 <vfprintf+0x4bc>
    4a5e:	24 e0       	ldi	r18, 0x04	; 4
    4a60:	a2 0e       	add	r10, r18
    4a62:	b1 1c       	adc	r11, r1
    4a64:	f6 01       	movw	r30, r12
    4a66:	60 81       	ld	r22, Z
    4a68:	71 81       	ldd	r23, Z+1	; 0x01
    4a6a:	82 81       	ldd	r24, Z+2	; 0x02
    4a6c:	93 81       	ldd	r25, Z+3	; 0x03
    4a6e:	0a c0       	rjmp	.+20     	; 0x4a84 <vfprintf+0x4d0>
    4a70:	f2 e0       	ldi	r31, 0x02	; 2
    4a72:	af 0e       	add	r10, r31
    4a74:	b1 1c       	adc	r11, r1
    4a76:	f6 01       	movw	r30, r12
    4a78:	60 81       	ld	r22, Z
    4a7a:	71 81       	ldd	r23, Z+1	; 0x01
    4a7c:	07 2e       	mov	r0, r23
    4a7e:	00 0c       	add	r0, r0
    4a80:	88 0b       	sbc	r24, r24
    4a82:	99 0b       	sbc	r25, r25
    4a84:	f9 2d       	mov	r31, r9
    4a86:	ff 76       	andi	r31, 0x6F	; 111
    4a88:	9f 2e       	mov	r9, r31
    4a8a:	97 ff       	sbrs	r25, 7
    4a8c:	09 c0       	rjmp	.+18     	; 0x4aa0 <vfprintf+0x4ec>
    4a8e:	90 95       	com	r25
    4a90:	80 95       	com	r24
    4a92:	70 95       	com	r23
    4a94:	61 95       	neg	r22
    4a96:	7f 4f       	sbci	r23, 0xFF	; 255
    4a98:	8f 4f       	sbci	r24, 0xFF	; 255
    4a9a:	9f 4f       	sbci	r25, 0xFF	; 255
    4a9c:	f0 68       	ori	r31, 0x80	; 128
    4a9e:	9f 2e       	mov	r9, r31
    4aa0:	2a e0       	ldi	r18, 0x0A	; 10
    4aa2:	30 e0       	ldi	r19, 0x00	; 0
    4aa4:	a3 01       	movw	r20, r6
    4aa6:	0e 94 55 2a 	call	0x54aa	; 0x54aa <__ultoa_invert>
    4aaa:	c8 2e       	mov	r12, r24
    4aac:	c6 18       	sub	r12, r6
    4aae:	3f c0       	rjmp	.+126    	; 0x4b2e <vfprintf+0x57a>
    4ab0:	09 2d       	mov	r16, r9
    4ab2:	85 37       	cpi	r24, 0x75	; 117
    4ab4:	21 f4       	brne	.+8      	; 0x4abe <vfprintf+0x50a>
    4ab6:	0f 7e       	andi	r16, 0xEF	; 239
    4ab8:	2a e0       	ldi	r18, 0x0A	; 10
    4aba:	30 e0       	ldi	r19, 0x00	; 0
    4abc:	1d c0       	rjmp	.+58     	; 0x4af8 <vfprintf+0x544>
    4abe:	09 7f       	andi	r16, 0xF9	; 249
    4ac0:	8f 36       	cpi	r24, 0x6F	; 111
    4ac2:	91 f0       	breq	.+36     	; 0x4ae8 <vfprintf+0x534>
    4ac4:	18 f4       	brcc	.+6      	; 0x4acc <vfprintf+0x518>
    4ac6:	88 35       	cpi	r24, 0x58	; 88
    4ac8:	59 f0       	breq	.+22     	; 0x4ae0 <vfprintf+0x52c>
    4aca:	c3 c0       	rjmp	.+390    	; 0x4c52 <vfprintf+0x69e>
    4acc:	80 37       	cpi	r24, 0x70	; 112
    4ace:	19 f0       	breq	.+6      	; 0x4ad6 <vfprintf+0x522>
    4ad0:	88 37       	cpi	r24, 0x78	; 120
    4ad2:	11 f0       	breq	.+4      	; 0x4ad8 <vfprintf+0x524>
    4ad4:	be c0       	rjmp	.+380    	; 0x4c52 <vfprintf+0x69e>
    4ad6:	00 61       	ori	r16, 0x10	; 16
    4ad8:	04 ff       	sbrs	r16, 4
    4ada:	09 c0       	rjmp	.+18     	; 0x4aee <vfprintf+0x53a>
    4adc:	04 60       	ori	r16, 0x04	; 4
    4ade:	07 c0       	rjmp	.+14     	; 0x4aee <vfprintf+0x53a>
    4ae0:	94 fe       	sbrs	r9, 4
    4ae2:	08 c0       	rjmp	.+16     	; 0x4af4 <vfprintf+0x540>
    4ae4:	06 60       	ori	r16, 0x06	; 6
    4ae6:	06 c0       	rjmp	.+12     	; 0x4af4 <vfprintf+0x540>
    4ae8:	28 e0       	ldi	r18, 0x08	; 8
    4aea:	30 e0       	ldi	r19, 0x00	; 0
    4aec:	05 c0       	rjmp	.+10     	; 0x4af8 <vfprintf+0x544>
    4aee:	20 e1       	ldi	r18, 0x10	; 16
    4af0:	30 e0       	ldi	r19, 0x00	; 0
    4af2:	02 c0       	rjmp	.+4      	; 0x4af8 <vfprintf+0x544>
    4af4:	20 e1       	ldi	r18, 0x10	; 16
    4af6:	32 e0       	ldi	r19, 0x02	; 2
    4af8:	56 01       	movw	r10, r12
    4afa:	07 ff       	sbrs	r16, 7
    4afc:	09 c0       	rjmp	.+18     	; 0x4b10 <vfprintf+0x55c>
    4afe:	84 e0       	ldi	r24, 0x04	; 4
    4b00:	a8 0e       	add	r10, r24
    4b02:	b1 1c       	adc	r11, r1
    4b04:	f6 01       	movw	r30, r12
    4b06:	60 81       	ld	r22, Z
    4b08:	71 81       	ldd	r23, Z+1	; 0x01
    4b0a:	82 81       	ldd	r24, Z+2	; 0x02
    4b0c:	93 81       	ldd	r25, Z+3	; 0x03
    4b0e:	08 c0       	rjmp	.+16     	; 0x4b20 <vfprintf+0x56c>
    4b10:	f2 e0       	ldi	r31, 0x02	; 2
    4b12:	af 0e       	add	r10, r31
    4b14:	b1 1c       	adc	r11, r1
    4b16:	f6 01       	movw	r30, r12
    4b18:	60 81       	ld	r22, Z
    4b1a:	71 81       	ldd	r23, Z+1	; 0x01
    4b1c:	80 e0       	ldi	r24, 0x00	; 0
    4b1e:	90 e0       	ldi	r25, 0x00	; 0
    4b20:	a3 01       	movw	r20, r6
    4b22:	0e 94 55 2a 	call	0x54aa	; 0x54aa <__ultoa_invert>
    4b26:	c8 2e       	mov	r12, r24
    4b28:	c6 18       	sub	r12, r6
    4b2a:	0f 77       	andi	r16, 0x7F	; 127
    4b2c:	90 2e       	mov	r9, r16
    4b2e:	96 fe       	sbrs	r9, 6
    4b30:	0b c0       	rjmp	.+22     	; 0x4b48 <vfprintf+0x594>
    4b32:	09 2d       	mov	r16, r9
    4b34:	0e 7f       	andi	r16, 0xFE	; 254
    4b36:	c1 16       	cp	r12, r17
    4b38:	50 f4       	brcc	.+20     	; 0x4b4e <vfprintf+0x59a>
    4b3a:	94 fe       	sbrs	r9, 4
    4b3c:	0a c0       	rjmp	.+20     	; 0x4b52 <vfprintf+0x59e>
    4b3e:	92 fc       	sbrc	r9, 2
    4b40:	08 c0       	rjmp	.+16     	; 0x4b52 <vfprintf+0x59e>
    4b42:	09 2d       	mov	r16, r9
    4b44:	0e 7e       	andi	r16, 0xEE	; 238
    4b46:	05 c0       	rjmp	.+10     	; 0x4b52 <vfprintf+0x59e>
    4b48:	dc 2c       	mov	r13, r12
    4b4a:	09 2d       	mov	r16, r9
    4b4c:	03 c0       	rjmp	.+6      	; 0x4b54 <vfprintf+0x5a0>
    4b4e:	dc 2c       	mov	r13, r12
    4b50:	01 c0       	rjmp	.+2      	; 0x4b54 <vfprintf+0x5a0>
    4b52:	d1 2e       	mov	r13, r17
    4b54:	04 ff       	sbrs	r16, 4
    4b56:	0d c0       	rjmp	.+26     	; 0x4b72 <vfprintf+0x5be>
    4b58:	fe 01       	movw	r30, r28
    4b5a:	ec 0d       	add	r30, r12
    4b5c:	f1 1d       	adc	r31, r1
    4b5e:	80 81       	ld	r24, Z
    4b60:	80 33       	cpi	r24, 0x30	; 48
    4b62:	11 f4       	brne	.+4      	; 0x4b68 <vfprintf+0x5b4>
    4b64:	09 7e       	andi	r16, 0xE9	; 233
    4b66:	09 c0       	rjmp	.+18     	; 0x4b7a <vfprintf+0x5c6>
    4b68:	02 ff       	sbrs	r16, 2
    4b6a:	06 c0       	rjmp	.+12     	; 0x4b78 <vfprintf+0x5c4>
    4b6c:	d3 94       	inc	r13
    4b6e:	d3 94       	inc	r13
    4b70:	04 c0       	rjmp	.+8      	; 0x4b7a <vfprintf+0x5c6>
    4b72:	80 2f       	mov	r24, r16
    4b74:	86 78       	andi	r24, 0x86	; 134
    4b76:	09 f0       	breq	.+2      	; 0x4b7a <vfprintf+0x5c6>
    4b78:	d3 94       	inc	r13
    4b7a:	03 fd       	sbrc	r16, 3
    4b7c:	11 c0       	rjmp	.+34     	; 0x4ba0 <vfprintf+0x5ec>
    4b7e:	00 ff       	sbrs	r16, 0
    4b80:	06 c0       	rjmp	.+12     	; 0x4b8e <vfprintf+0x5da>
    4b82:	1c 2d       	mov	r17, r12
    4b84:	d5 14       	cp	r13, r5
    4b86:	80 f4       	brcc	.+32     	; 0x4ba8 <vfprintf+0x5f4>
    4b88:	15 0d       	add	r17, r5
    4b8a:	1d 19       	sub	r17, r13
    4b8c:	0d c0       	rjmp	.+26     	; 0x4ba8 <vfprintf+0x5f4>
    4b8e:	d5 14       	cp	r13, r5
    4b90:	58 f4       	brcc	.+22     	; 0x4ba8 <vfprintf+0x5f4>
    4b92:	b7 01       	movw	r22, r14
    4b94:	80 e2       	ldi	r24, 0x20	; 32
    4b96:	90 e0       	ldi	r25, 0x00	; 0
    4b98:	0e 94 f7 29 	call	0x53ee	; 0x53ee <fputc>
    4b9c:	d3 94       	inc	r13
    4b9e:	f7 cf       	rjmp	.-18     	; 0x4b8e <vfprintf+0x5da>
    4ba0:	d5 14       	cp	r13, r5
    4ba2:	10 f4       	brcc	.+4      	; 0x4ba8 <vfprintf+0x5f4>
    4ba4:	5d 18       	sub	r5, r13
    4ba6:	01 c0       	rjmp	.+2      	; 0x4baa <vfprintf+0x5f6>
    4ba8:	51 2c       	mov	r5, r1
    4baa:	04 ff       	sbrs	r16, 4
    4bac:	10 c0       	rjmp	.+32     	; 0x4bce <vfprintf+0x61a>
    4bae:	b7 01       	movw	r22, r14
    4bb0:	80 e3       	ldi	r24, 0x30	; 48
    4bb2:	90 e0       	ldi	r25, 0x00	; 0
    4bb4:	0e 94 f7 29 	call	0x53ee	; 0x53ee <fputc>
    4bb8:	02 ff       	sbrs	r16, 2
    4bba:	17 c0       	rjmp	.+46     	; 0x4bea <vfprintf+0x636>
    4bbc:	01 fd       	sbrc	r16, 1
    4bbe:	03 c0       	rjmp	.+6      	; 0x4bc6 <vfprintf+0x612>
    4bc0:	88 e7       	ldi	r24, 0x78	; 120
    4bc2:	90 e0       	ldi	r25, 0x00	; 0
    4bc4:	02 c0       	rjmp	.+4      	; 0x4bca <vfprintf+0x616>
    4bc6:	88 e5       	ldi	r24, 0x58	; 88
    4bc8:	90 e0       	ldi	r25, 0x00	; 0
    4bca:	b7 01       	movw	r22, r14
    4bcc:	0c c0       	rjmp	.+24     	; 0x4be6 <vfprintf+0x632>
    4bce:	80 2f       	mov	r24, r16
    4bd0:	86 78       	andi	r24, 0x86	; 134
    4bd2:	59 f0       	breq	.+22     	; 0x4bea <vfprintf+0x636>
    4bd4:	01 ff       	sbrs	r16, 1
    4bd6:	02 c0       	rjmp	.+4      	; 0x4bdc <vfprintf+0x628>
    4bd8:	8b e2       	ldi	r24, 0x2B	; 43
    4bda:	01 c0       	rjmp	.+2      	; 0x4bde <vfprintf+0x62a>
    4bdc:	80 e2       	ldi	r24, 0x20	; 32
    4bde:	07 fd       	sbrc	r16, 7
    4be0:	8d e2       	ldi	r24, 0x2D	; 45
    4be2:	b7 01       	movw	r22, r14
    4be4:	90 e0       	ldi	r25, 0x00	; 0
    4be6:	0e 94 f7 29 	call	0x53ee	; 0x53ee <fputc>
    4bea:	c1 16       	cp	r12, r17
    4bec:	38 f4       	brcc	.+14     	; 0x4bfc <vfprintf+0x648>
    4bee:	b7 01       	movw	r22, r14
    4bf0:	80 e3       	ldi	r24, 0x30	; 48
    4bf2:	90 e0       	ldi	r25, 0x00	; 0
    4bf4:	0e 94 f7 29 	call	0x53ee	; 0x53ee <fputc>
    4bf8:	11 50       	subi	r17, 0x01	; 1
    4bfa:	f7 cf       	rjmp	.-18     	; 0x4bea <vfprintf+0x636>
    4bfc:	ca 94       	dec	r12
    4bfe:	f3 01       	movw	r30, r6
    4c00:	ec 0d       	add	r30, r12
    4c02:	f1 1d       	adc	r31, r1
    4c04:	80 81       	ld	r24, Z
    4c06:	b7 01       	movw	r22, r14
    4c08:	90 e0       	ldi	r25, 0x00	; 0
    4c0a:	0e 94 f7 29 	call	0x53ee	; 0x53ee <fputc>
    4c0e:	c1 10       	cpse	r12, r1
    4c10:	f5 cf       	rjmp	.-22     	; 0x4bfc <vfprintf+0x648>
    4c12:	15 c0       	rjmp	.+42     	; 0x4c3e <vfprintf+0x68a>
    4c14:	f4 e0       	ldi	r31, 0x04	; 4
    4c16:	f5 15       	cp	r31, r5
    4c18:	60 f5       	brcc	.+88     	; 0x4c72 <vfprintf+0x6be>
    4c1a:	84 e0       	ldi	r24, 0x04	; 4
    4c1c:	58 1a       	sub	r5, r24
    4c1e:	93 fe       	sbrs	r9, 3
    4c20:	1f c0       	rjmp	.+62     	; 0x4c60 <vfprintf+0x6ac>
    4c22:	01 11       	cpse	r16, r1
    4c24:	27 c0       	rjmp	.+78     	; 0x4c74 <vfprintf+0x6c0>
    4c26:	2c 85       	ldd	r18, Y+12	; 0x0c
    4c28:	23 ff       	sbrs	r18, 3
    4c2a:	2a c0       	rjmp	.+84     	; 0x4c80 <vfprintf+0x6cc>
    4c2c:	04 e8       	ldi	r16, 0x84	; 132
    4c2e:	10 e0       	ldi	r17, 0x00	; 0
    4c30:	39 2d       	mov	r19, r9
    4c32:	30 71       	andi	r19, 0x10	; 16
    4c34:	93 2e       	mov	r9, r19
    4c36:	f8 01       	movw	r30, r16
    4c38:	84 91       	lpm	r24, Z
    4c3a:	81 11       	cpse	r24, r1
    4c3c:	24 c0       	rjmp	.+72     	; 0x4c86 <vfprintf+0x6d2>
    4c3e:	55 20       	and	r5, r5
    4c40:	09 f4       	brne	.+2      	; 0x4c44 <vfprintf+0x690>
    4c42:	e4 cc       	rjmp	.-1592   	; 0x460c <vfprintf+0x58>
    4c44:	b7 01       	movw	r22, r14
    4c46:	80 e2       	ldi	r24, 0x20	; 32
    4c48:	90 e0       	ldi	r25, 0x00	; 0
    4c4a:	0e 94 f7 29 	call	0x53ee	; 0x53ee <fputc>
    4c4e:	5a 94       	dec	r5
    4c50:	f6 cf       	rjmp	.-20     	; 0x4c3e <vfprintf+0x68a>
    4c52:	f7 01       	movw	r30, r14
    4c54:	86 81       	ldd	r24, Z+6	; 0x06
    4c56:	97 81       	ldd	r25, Z+7	; 0x07
    4c58:	26 c0       	rjmp	.+76     	; 0x4ca6 <vfprintf+0x6f2>
    4c5a:	8f ef       	ldi	r24, 0xFF	; 255
    4c5c:	9f ef       	ldi	r25, 0xFF	; 255
    4c5e:	23 c0       	rjmp	.+70     	; 0x4ca6 <vfprintf+0x6f2>
    4c60:	b7 01       	movw	r22, r14
    4c62:	80 e2       	ldi	r24, 0x20	; 32
    4c64:	90 e0       	ldi	r25, 0x00	; 0
    4c66:	0e 94 f7 29 	call	0x53ee	; 0x53ee <fputc>
    4c6a:	5a 94       	dec	r5
    4c6c:	51 10       	cpse	r5, r1
    4c6e:	f8 cf       	rjmp	.-16     	; 0x4c60 <vfprintf+0x6ac>
    4c70:	d8 cf       	rjmp	.-80     	; 0x4c22 <vfprintf+0x66e>
    4c72:	51 2c       	mov	r5, r1
    4c74:	b7 01       	movw	r22, r14
    4c76:	80 2f       	mov	r24, r16
    4c78:	90 e0       	ldi	r25, 0x00	; 0
    4c7a:	0e 94 f7 29 	call	0x53ee	; 0x53ee <fputc>
    4c7e:	d3 cf       	rjmp	.-90     	; 0x4c26 <vfprintf+0x672>
    4c80:	08 e8       	ldi	r16, 0x88	; 136
    4c82:	10 e0       	ldi	r17, 0x00	; 0
    4c84:	d5 cf       	rjmp	.-86     	; 0x4c30 <vfprintf+0x67c>
    4c86:	91 10       	cpse	r9, r1
    4c88:	80 52       	subi	r24, 0x20	; 32
    4c8a:	b7 01       	movw	r22, r14
    4c8c:	90 e0       	ldi	r25, 0x00	; 0
    4c8e:	0e 94 f7 29 	call	0x53ee	; 0x53ee <fputc>
    4c92:	0f 5f       	subi	r16, 0xFF	; 255
    4c94:	1f 4f       	sbci	r17, 0xFF	; 255
    4c96:	cf cf       	rjmp	.-98     	; 0x4c36 <vfprintf+0x682>
    4c98:	23 e0       	ldi	r18, 0x03	; 3
    4c9a:	25 15       	cp	r18, r5
    4c9c:	10 f4       	brcc	.+4      	; 0x4ca2 <vfprintf+0x6ee>
    4c9e:	83 e0       	ldi	r24, 0x03	; 3
    4ca0:	bd cf       	rjmp	.-134    	; 0x4c1c <vfprintf+0x668>
    4ca2:	51 2c       	mov	r5, r1
    4ca4:	c0 cf       	rjmp	.-128    	; 0x4c26 <vfprintf+0x672>
    4ca6:	60 96       	adiw	r28, 0x10	; 16
    4ca8:	e2 e1       	ldi	r30, 0x12	; 18
    4caa:	0c 94 9c 26 	jmp	0x4d38	; 0x4d38 <__epilogue_restores__>

00004cae <__divmodhi4>:
    4cae:	97 fb       	bst	r25, 7
    4cb0:	07 2e       	mov	r0, r23
    4cb2:	16 f4       	brtc	.+4      	; 0x4cb8 <__divmodhi4+0xa>
    4cb4:	00 94       	com	r0
    4cb6:	07 d0       	rcall	.+14     	; 0x4cc6 <__divmodhi4_neg1>
    4cb8:	77 fd       	sbrc	r23, 7
    4cba:	09 d0       	rcall	.+18     	; 0x4cce <__divmodhi4_neg2>
    4cbc:	0e 94 b7 26 	call	0x4d6e	; 0x4d6e <__udivmodhi4>
    4cc0:	07 fc       	sbrc	r0, 7
    4cc2:	05 d0       	rcall	.+10     	; 0x4cce <__divmodhi4_neg2>
    4cc4:	3e f4       	brtc	.+14     	; 0x4cd4 <__divmodhi4_exit>

00004cc6 <__divmodhi4_neg1>:
    4cc6:	90 95       	com	r25
    4cc8:	81 95       	neg	r24
    4cca:	9f 4f       	sbci	r25, 0xFF	; 255
    4ccc:	08 95       	ret

00004cce <__divmodhi4_neg2>:
    4cce:	70 95       	com	r23
    4cd0:	61 95       	neg	r22
    4cd2:	7f 4f       	sbci	r23, 0xFF	; 255

00004cd4 <__divmodhi4_exit>:
    4cd4:	08 95       	ret

00004cd6 <__tablejump2__>:
    4cd6:	ee 0f       	add	r30, r30
    4cd8:	ff 1f       	adc	r31, r31
    4cda:	05 90       	lpm	r0, Z+
    4cdc:	f4 91       	lpm	r31, Z
    4cde:	e0 2d       	mov	r30, r0
    4ce0:	09 94       	ijmp

00004ce2 <__umulhisi3>:
    4ce2:	a2 9f       	mul	r26, r18
    4ce4:	b0 01       	movw	r22, r0
    4ce6:	b3 9f       	mul	r27, r19
    4ce8:	c0 01       	movw	r24, r0
    4cea:	a3 9f       	mul	r26, r19
    4cec:	70 0d       	add	r23, r0
    4cee:	81 1d       	adc	r24, r1
    4cf0:	11 24       	eor	r1, r1
    4cf2:	91 1d       	adc	r25, r1
    4cf4:	b2 9f       	mul	r27, r18
    4cf6:	70 0d       	add	r23, r0
    4cf8:	81 1d       	adc	r24, r1
    4cfa:	11 24       	eor	r1, r1
    4cfc:	91 1d       	adc	r25, r1
    4cfe:	08 95       	ret

00004d00 <__prologue_saves__>:
    4d00:	2f 92       	push	r2
    4d02:	3f 92       	push	r3
    4d04:	4f 92       	push	r4
    4d06:	5f 92       	push	r5
    4d08:	6f 92       	push	r6
    4d0a:	7f 92       	push	r7
    4d0c:	8f 92       	push	r8
    4d0e:	9f 92       	push	r9
    4d10:	af 92       	push	r10
    4d12:	bf 92       	push	r11
    4d14:	cf 92       	push	r12
    4d16:	df 92       	push	r13
    4d18:	ef 92       	push	r14
    4d1a:	ff 92       	push	r15
    4d1c:	0f 93       	push	r16
    4d1e:	1f 93       	push	r17
    4d20:	cf 93       	push	r28
    4d22:	df 93       	push	r29
    4d24:	cd b7       	in	r28, 0x3d	; 61
    4d26:	de b7       	in	r29, 0x3e	; 62
    4d28:	ca 1b       	sub	r28, r26
    4d2a:	db 0b       	sbc	r29, r27
    4d2c:	0f b6       	in	r0, 0x3f	; 63
    4d2e:	f8 94       	cli
    4d30:	de bf       	out	0x3e, r29	; 62
    4d32:	0f be       	out	0x3f, r0	; 63
    4d34:	cd bf       	out	0x3d, r28	; 61
    4d36:	09 94       	ijmp

00004d38 <__epilogue_restores__>:
    4d38:	2a 88       	ldd	r2, Y+18	; 0x12
    4d3a:	39 88       	ldd	r3, Y+17	; 0x11
    4d3c:	48 88       	ldd	r4, Y+16	; 0x10
    4d3e:	5f 84       	ldd	r5, Y+15	; 0x0f
    4d40:	6e 84       	ldd	r6, Y+14	; 0x0e
    4d42:	7d 84       	ldd	r7, Y+13	; 0x0d
    4d44:	8c 84       	ldd	r8, Y+12	; 0x0c
    4d46:	9b 84       	ldd	r9, Y+11	; 0x0b
    4d48:	aa 84       	ldd	r10, Y+10	; 0x0a
    4d4a:	b9 84       	ldd	r11, Y+9	; 0x09
    4d4c:	c8 84       	ldd	r12, Y+8	; 0x08
    4d4e:	df 80       	ldd	r13, Y+7	; 0x07
    4d50:	ee 80       	ldd	r14, Y+6	; 0x06
    4d52:	fd 80       	ldd	r15, Y+5	; 0x05
    4d54:	0c 81       	ldd	r16, Y+4	; 0x04
    4d56:	1b 81       	ldd	r17, Y+3	; 0x03
    4d58:	aa 81       	ldd	r26, Y+2	; 0x02
    4d5a:	b9 81       	ldd	r27, Y+1	; 0x01
    4d5c:	ce 0f       	add	r28, r30
    4d5e:	d1 1d       	adc	r29, r1
    4d60:	0f b6       	in	r0, 0x3f	; 63
    4d62:	f8 94       	cli
    4d64:	de bf       	out	0x3e, r29	; 62
    4d66:	0f be       	out	0x3f, r0	; 63
    4d68:	cd bf       	out	0x3d, r28	; 61
    4d6a:	ed 01       	movw	r28, r26
    4d6c:	08 95       	ret

00004d6e <__udivmodhi4>:
    4d6e:	aa 1b       	sub	r26, r26
    4d70:	bb 1b       	sub	r27, r27
    4d72:	51 e1       	ldi	r21, 0x11	; 17
    4d74:	07 c0       	rjmp	.+14     	; 0x4d84 <__udivmodhi4_ep>

00004d76 <__udivmodhi4_loop>:
    4d76:	aa 1f       	adc	r26, r26
    4d78:	bb 1f       	adc	r27, r27
    4d7a:	a6 17       	cp	r26, r22
    4d7c:	b7 07       	cpc	r27, r23
    4d7e:	10 f0       	brcs	.+4      	; 0x4d84 <__udivmodhi4_ep>
    4d80:	a6 1b       	sub	r26, r22
    4d82:	b7 0b       	sbc	r27, r23

00004d84 <__udivmodhi4_ep>:
    4d84:	88 1f       	adc	r24, r24
    4d86:	99 1f       	adc	r25, r25
    4d88:	5a 95       	dec	r21
    4d8a:	a9 f7       	brne	.-22     	; 0x4d76 <__udivmodhi4_loop>
    4d8c:	80 95       	com	r24
    4d8e:	90 95       	com	r25
    4d90:	bc 01       	movw	r22, r24
    4d92:	cd 01       	movw	r24, r26
    4d94:	08 95       	ret

00004d96 <__subsf3>:
    4d96:	50 58       	subi	r21, 0x80	; 128

00004d98 <__addsf3>:
    4d98:	bb 27       	eor	r27, r27
    4d9a:	aa 27       	eor	r26, r26
    4d9c:	0e 94 e3 26 	call	0x4dc6	; 0x4dc6 <__addsf3x>
    4da0:	0c 94 5d 28 	jmp	0x50ba	; 0x50ba <__fp_round>
    4da4:	0e 94 4f 28 	call	0x509e	; 0x509e <__fp_pscA>
    4da8:	38 f0       	brcs	.+14     	; 0x4db8 <__addsf3+0x20>
    4daa:	0e 94 56 28 	call	0x50ac	; 0x50ac <__fp_pscB>
    4dae:	20 f0       	brcs	.+8      	; 0x4db8 <__addsf3+0x20>
    4db0:	39 f4       	brne	.+14     	; 0x4dc0 <__addsf3+0x28>
    4db2:	9f 3f       	cpi	r25, 0xFF	; 255
    4db4:	19 f4       	brne	.+6      	; 0x4dbc <__addsf3+0x24>
    4db6:	26 f4       	brtc	.+8      	; 0x4dc0 <__addsf3+0x28>
    4db8:	0c 94 4c 28 	jmp	0x5098	; 0x5098 <__fp_nan>
    4dbc:	0e f4       	brtc	.+2      	; 0x4dc0 <__addsf3+0x28>
    4dbe:	e0 95       	com	r30
    4dc0:	e7 fb       	bst	r30, 7
    4dc2:	0c 94 46 28 	jmp	0x508c	; 0x508c <__fp_inf>

00004dc6 <__addsf3x>:
    4dc6:	e9 2f       	mov	r30, r25
    4dc8:	0e 94 6e 28 	call	0x50dc	; 0x50dc <__fp_split3>
    4dcc:	58 f3       	brcs	.-42     	; 0x4da4 <__addsf3+0xc>
    4dce:	ba 17       	cp	r27, r26
    4dd0:	62 07       	cpc	r22, r18
    4dd2:	73 07       	cpc	r23, r19
    4dd4:	84 07       	cpc	r24, r20
    4dd6:	95 07       	cpc	r25, r21
    4dd8:	20 f0       	brcs	.+8      	; 0x4de2 <__addsf3x+0x1c>
    4dda:	79 f4       	brne	.+30     	; 0x4dfa <__addsf3x+0x34>
    4ddc:	a6 f5       	brtc	.+104    	; 0x4e46 <__addsf3x+0x80>
    4dde:	0c 94 90 28 	jmp	0x5120	; 0x5120 <__fp_zero>
    4de2:	0e f4       	brtc	.+2      	; 0x4de6 <__addsf3x+0x20>
    4de4:	e0 95       	com	r30
    4de6:	0b 2e       	mov	r0, r27
    4de8:	ba 2f       	mov	r27, r26
    4dea:	a0 2d       	mov	r26, r0
    4dec:	0b 01       	movw	r0, r22
    4dee:	b9 01       	movw	r22, r18
    4df0:	90 01       	movw	r18, r0
    4df2:	0c 01       	movw	r0, r24
    4df4:	ca 01       	movw	r24, r20
    4df6:	a0 01       	movw	r20, r0
    4df8:	11 24       	eor	r1, r1
    4dfa:	ff 27       	eor	r31, r31
    4dfc:	59 1b       	sub	r21, r25
    4dfe:	99 f0       	breq	.+38     	; 0x4e26 <__addsf3x+0x60>
    4e00:	59 3f       	cpi	r21, 0xF9	; 249
    4e02:	50 f4       	brcc	.+20     	; 0x4e18 <__addsf3x+0x52>
    4e04:	50 3e       	cpi	r21, 0xE0	; 224
    4e06:	68 f1       	brcs	.+90     	; 0x4e62 <__addsf3x+0x9c>
    4e08:	1a 16       	cp	r1, r26
    4e0a:	f0 40       	sbci	r31, 0x00	; 0
    4e0c:	a2 2f       	mov	r26, r18
    4e0e:	23 2f       	mov	r18, r19
    4e10:	34 2f       	mov	r19, r20
    4e12:	44 27       	eor	r20, r20
    4e14:	58 5f       	subi	r21, 0xF8	; 248
    4e16:	f3 cf       	rjmp	.-26     	; 0x4dfe <__addsf3x+0x38>
    4e18:	46 95       	lsr	r20
    4e1a:	37 95       	ror	r19
    4e1c:	27 95       	ror	r18
    4e1e:	a7 95       	ror	r26
    4e20:	f0 40       	sbci	r31, 0x00	; 0
    4e22:	53 95       	inc	r21
    4e24:	c9 f7       	brne	.-14     	; 0x4e18 <__addsf3x+0x52>
    4e26:	7e f4       	brtc	.+30     	; 0x4e46 <__addsf3x+0x80>
    4e28:	1f 16       	cp	r1, r31
    4e2a:	ba 0b       	sbc	r27, r26
    4e2c:	62 0b       	sbc	r22, r18
    4e2e:	73 0b       	sbc	r23, r19
    4e30:	84 0b       	sbc	r24, r20
    4e32:	ba f0       	brmi	.+46     	; 0x4e62 <__addsf3x+0x9c>
    4e34:	91 50       	subi	r25, 0x01	; 1
    4e36:	a1 f0       	breq	.+40     	; 0x4e60 <__addsf3x+0x9a>
    4e38:	ff 0f       	add	r31, r31
    4e3a:	bb 1f       	adc	r27, r27
    4e3c:	66 1f       	adc	r22, r22
    4e3e:	77 1f       	adc	r23, r23
    4e40:	88 1f       	adc	r24, r24
    4e42:	c2 f7       	brpl	.-16     	; 0x4e34 <__addsf3x+0x6e>
    4e44:	0e c0       	rjmp	.+28     	; 0x4e62 <__addsf3x+0x9c>
    4e46:	ba 0f       	add	r27, r26
    4e48:	62 1f       	adc	r22, r18
    4e4a:	73 1f       	adc	r23, r19
    4e4c:	84 1f       	adc	r24, r20
    4e4e:	48 f4       	brcc	.+18     	; 0x4e62 <__addsf3x+0x9c>
    4e50:	87 95       	ror	r24
    4e52:	77 95       	ror	r23
    4e54:	67 95       	ror	r22
    4e56:	b7 95       	ror	r27
    4e58:	f7 95       	ror	r31
    4e5a:	9e 3f       	cpi	r25, 0xFE	; 254
    4e5c:	08 f0       	brcs	.+2      	; 0x4e60 <__addsf3x+0x9a>
    4e5e:	b0 cf       	rjmp	.-160    	; 0x4dc0 <__addsf3+0x28>
    4e60:	93 95       	inc	r25
    4e62:	88 0f       	add	r24, r24
    4e64:	08 f0       	brcs	.+2      	; 0x4e68 <__addsf3x+0xa2>
    4e66:	99 27       	eor	r25, r25
    4e68:	ee 0f       	add	r30, r30
    4e6a:	97 95       	ror	r25
    4e6c:	87 95       	ror	r24
    4e6e:	08 95       	ret

00004e70 <__cmpsf2>:
    4e70:	0e 94 22 28 	call	0x5044	; 0x5044 <__fp_cmp>
    4e74:	08 f4       	brcc	.+2      	; 0x4e78 <__cmpsf2+0x8>
    4e76:	81 e0       	ldi	r24, 0x01	; 1
    4e78:	08 95       	ret

00004e7a <__divsf3>:
    4e7a:	0e 94 51 27 	call	0x4ea2	; 0x4ea2 <__divsf3x>
    4e7e:	0c 94 5d 28 	jmp	0x50ba	; 0x50ba <__fp_round>
    4e82:	0e 94 56 28 	call	0x50ac	; 0x50ac <__fp_pscB>
    4e86:	58 f0       	brcs	.+22     	; 0x4e9e <__divsf3+0x24>
    4e88:	0e 94 4f 28 	call	0x509e	; 0x509e <__fp_pscA>
    4e8c:	40 f0       	brcs	.+16     	; 0x4e9e <__divsf3+0x24>
    4e8e:	29 f4       	brne	.+10     	; 0x4e9a <__divsf3+0x20>
    4e90:	5f 3f       	cpi	r21, 0xFF	; 255
    4e92:	29 f0       	breq	.+10     	; 0x4e9e <__divsf3+0x24>
    4e94:	0c 94 46 28 	jmp	0x508c	; 0x508c <__fp_inf>
    4e98:	51 11       	cpse	r21, r1
    4e9a:	0c 94 91 28 	jmp	0x5122	; 0x5122 <__fp_szero>
    4e9e:	0c 94 4c 28 	jmp	0x5098	; 0x5098 <__fp_nan>

00004ea2 <__divsf3x>:
    4ea2:	0e 94 6e 28 	call	0x50dc	; 0x50dc <__fp_split3>
    4ea6:	68 f3       	brcs	.-38     	; 0x4e82 <__divsf3+0x8>

00004ea8 <__divsf3_pse>:
    4ea8:	99 23       	and	r25, r25
    4eaa:	b1 f3       	breq	.-20     	; 0x4e98 <__divsf3+0x1e>
    4eac:	55 23       	and	r21, r21
    4eae:	91 f3       	breq	.-28     	; 0x4e94 <__divsf3+0x1a>
    4eb0:	95 1b       	sub	r25, r21
    4eb2:	55 0b       	sbc	r21, r21
    4eb4:	bb 27       	eor	r27, r27
    4eb6:	aa 27       	eor	r26, r26
    4eb8:	62 17       	cp	r22, r18
    4eba:	73 07       	cpc	r23, r19
    4ebc:	84 07       	cpc	r24, r20
    4ebe:	38 f0       	brcs	.+14     	; 0x4ece <__divsf3_pse+0x26>
    4ec0:	9f 5f       	subi	r25, 0xFF	; 255
    4ec2:	5f 4f       	sbci	r21, 0xFF	; 255
    4ec4:	22 0f       	add	r18, r18
    4ec6:	33 1f       	adc	r19, r19
    4ec8:	44 1f       	adc	r20, r20
    4eca:	aa 1f       	adc	r26, r26
    4ecc:	a9 f3       	breq	.-22     	; 0x4eb8 <__divsf3_pse+0x10>
    4ece:	35 d0       	rcall	.+106    	; 0x4f3a <__divsf3_pse+0x92>
    4ed0:	0e 2e       	mov	r0, r30
    4ed2:	3a f0       	brmi	.+14     	; 0x4ee2 <__divsf3_pse+0x3a>
    4ed4:	e0 e8       	ldi	r30, 0x80	; 128
    4ed6:	32 d0       	rcall	.+100    	; 0x4f3c <__divsf3_pse+0x94>
    4ed8:	91 50       	subi	r25, 0x01	; 1
    4eda:	50 40       	sbci	r21, 0x00	; 0
    4edc:	e6 95       	lsr	r30
    4ede:	00 1c       	adc	r0, r0
    4ee0:	ca f7       	brpl	.-14     	; 0x4ed4 <__divsf3_pse+0x2c>
    4ee2:	2b d0       	rcall	.+86     	; 0x4f3a <__divsf3_pse+0x92>
    4ee4:	fe 2f       	mov	r31, r30
    4ee6:	29 d0       	rcall	.+82     	; 0x4f3a <__divsf3_pse+0x92>
    4ee8:	66 0f       	add	r22, r22
    4eea:	77 1f       	adc	r23, r23
    4eec:	88 1f       	adc	r24, r24
    4eee:	bb 1f       	adc	r27, r27
    4ef0:	26 17       	cp	r18, r22
    4ef2:	37 07       	cpc	r19, r23
    4ef4:	48 07       	cpc	r20, r24
    4ef6:	ab 07       	cpc	r26, r27
    4ef8:	b0 e8       	ldi	r27, 0x80	; 128
    4efa:	09 f0       	breq	.+2      	; 0x4efe <__divsf3_pse+0x56>
    4efc:	bb 0b       	sbc	r27, r27
    4efe:	80 2d       	mov	r24, r0
    4f00:	bf 01       	movw	r22, r30
    4f02:	ff 27       	eor	r31, r31
    4f04:	93 58       	subi	r25, 0x83	; 131
    4f06:	5f 4f       	sbci	r21, 0xFF	; 255
    4f08:	3a f0       	brmi	.+14     	; 0x4f18 <__divsf3_pse+0x70>
    4f0a:	9e 3f       	cpi	r25, 0xFE	; 254
    4f0c:	51 05       	cpc	r21, r1
    4f0e:	78 f0       	brcs	.+30     	; 0x4f2e <__divsf3_pse+0x86>
    4f10:	0c 94 46 28 	jmp	0x508c	; 0x508c <__fp_inf>
    4f14:	0c 94 91 28 	jmp	0x5122	; 0x5122 <__fp_szero>
    4f18:	5f 3f       	cpi	r21, 0xFF	; 255
    4f1a:	e4 f3       	brlt	.-8      	; 0x4f14 <__divsf3_pse+0x6c>
    4f1c:	98 3e       	cpi	r25, 0xE8	; 232
    4f1e:	d4 f3       	brlt	.-12     	; 0x4f14 <__divsf3_pse+0x6c>
    4f20:	86 95       	lsr	r24
    4f22:	77 95       	ror	r23
    4f24:	67 95       	ror	r22
    4f26:	b7 95       	ror	r27
    4f28:	f7 95       	ror	r31
    4f2a:	9f 5f       	subi	r25, 0xFF	; 255
    4f2c:	c9 f7       	brne	.-14     	; 0x4f20 <__divsf3_pse+0x78>
    4f2e:	88 0f       	add	r24, r24
    4f30:	91 1d       	adc	r25, r1
    4f32:	96 95       	lsr	r25
    4f34:	87 95       	ror	r24
    4f36:	97 f9       	bld	r25, 7
    4f38:	08 95       	ret
    4f3a:	e1 e0       	ldi	r30, 0x01	; 1
    4f3c:	66 0f       	add	r22, r22
    4f3e:	77 1f       	adc	r23, r23
    4f40:	88 1f       	adc	r24, r24
    4f42:	bb 1f       	adc	r27, r27
    4f44:	62 17       	cp	r22, r18
    4f46:	73 07       	cpc	r23, r19
    4f48:	84 07       	cpc	r24, r20
    4f4a:	ba 07       	cpc	r27, r26
    4f4c:	20 f0       	brcs	.+8      	; 0x4f56 <__divsf3_pse+0xae>
    4f4e:	62 1b       	sub	r22, r18
    4f50:	73 0b       	sbc	r23, r19
    4f52:	84 0b       	sbc	r24, r20
    4f54:	ba 0b       	sbc	r27, r26
    4f56:	ee 1f       	adc	r30, r30
    4f58:	88 f7       	brcc	.-30     	; 0x4f3c <__divsf3_pse+0x94>
    4f5a:	e0 95       	com	r30
    4f5c:	08 95       	ret

00004f5e <__fixsfsi>:
    4f5e:	0e 94 b6 27 	call	0x4f6c	; 0x4f6c <__fixunssfsi>
    4f62:	68 94       	set
    4f64:	b1 11       	cpse	r27, r1
    4f66:	0c 94 91 28 	jmp	0x5122	; 0x5122 <__fp_szero>
    4f6a:	08 95       	ret

00004f6c <__fixunssfsi>:
    4f6c:	0e 94 76 28 	call	0x50ec	; 0x50ec <__fp_splitA>
    4f70:	88 f0       	brcs	.+34     	; 0x4f94 <__fixunssfsi+0x28>
    4f72:	9f 57       	subi	r25, 0x7F	; 127
    4f74:	98 f0       	brcs	.+38     	; 0x4f9c <__fixunssfsi+0x30>
    4f76:	b9 2f       	mov	r27, r25
    4f78:	99 27       	eor	r25, r25
    4f7a:	b7 51       	subi	r27, 0x17	; 23
    4f7c:	b0 f0       	brcs	.+44     	; 0x4faa <__fixunssfsi+0x3e>
    4f7e:	e1 f0       	breq	.+56     	; 0x4fb8 <__fixunssfsi+0x4c>
    4f80:	66 0f       	add	r22, r22
    4f82:	77 1f       	adc	r23, r23
    4f84:	88 1f       	adc	r24, r24
    4f86:	99 1f       	adc	r25, r25
    4f88:	1a f0       	brmi	.+6      	; 0x4f90 <__fixunssfsi+0x24>
    4f8a:	ba 95       	dec	r27
    4f8c:	c9 f7       	brne	.-14     	; 0x4f80 <__fixunssfsi+0x14>
    4f8e:	14 c0       	rjmp	.+40     	; 0x4fb8 <__fixunssfsi+0x4c>
    4f90:	b1 30       	cpi	r27, 0x01	; 1
    4f92:	91 f0       	breq	.+36     	; 0x4fb8 <__fixunssfsi+0x4c>
    4f94:	0e 94 90 28 	call	0x5120	; 0x5120 <__fp_zero>
    4f98:	b1 e0       	ldi	r27, 0x01	; 1
    4f9a:	08 95       	ret
    4f9c:	0c 94 90 28 	jmp	0x5120	; 0x5120 <__fp_zero>
    4fa0:	67 2f       	mov	r22, r23
    4fa2:	78 2f       	mov	r23, r24
    4fa4:	88 27       	eor	r24, r24
    4fa6:	b8 5f       	subi	r27, 0xF8	; 248
    4fa8:	39 f0       	breq	.+14     	; 0x4fb8 <__fixunssfsi+0x4c>
    4faa:	b9 3f       	cpi	r27, 0xF9	; 249
    4fac:	cc f3       	brlt	.-14     	; 0x4fa0 <__fixunssfsi+0x34>
    4fae:	86 95       	lsr	r24
    4fb0:	77 95       	ror	r23
    4fb2:	67 95       	ror	r22
    4fb4:	b3 95       	inc	r27
    4fb6:	d9 f7       	brne	.-10     	; 0x4fae <__fixunssfsi+0x42>
    4fb8:	3e f4       	brtc	.+14     	; 0x4fc8 <__fixunssfsi+0x5c>
    4fba:	90 95       	com	r25
    4fbc:	80 95       	com	r24
    4fbe:	70 95       	com	r23
    4fc0:	61 95       	neg	r22
    4fc2:	7f 4f       	sbci	r23, 0xFF	; 255
    4fc4:	8f 4f       	sbci	r24, 0xFF	; 255
    4fc6:	9f 4f       	sbci	r25, 0xFF	; 255
    4fc8:	08 95       	ret

00004fca <__floatunsisf>:
    4fca:	e8 94       	clt
    4fcc:	09 c0       	rjmp	.+18     	; 0x4fe0 <__floatsisf+0x12>

00004fce <__floatsisf>:
    4fce:	97 fb       	bst	r25, 7
    4fd0:	3e f4       	brtc	.+14     	; 0x4fe0 <__floatsisf+0x12>
    4fd2:	90 95       	com	r25
    4fd4:	80 95       	com	r24
    4fd6:	70 95       	com	r23
    4fd8:	61 95       	neg	r22
    4fda:	7f 4f       	sbci	r23, 0xFF	; 255
    4fdc:	8f 4f       	sbci	r24, 0xFF	; 255
    4fde:	9f 4f       	sbci	r25, 0xFF	; 255
    4fe0:	99 23       	and	r25, r25
    4fe2:	a9 f0       	breq	.+42     	; 0x500e <__floatsisf+0x40>
    4fe4:	f9 2f       	mov	r31, r25
    4fe6:	96 e9       	ldi	r25, 0x96	; 150
    4fe8:	bb 27       	eor	r27, r27
    4fea:	93 95       	inc	r25
    4fec:	f6 95       	lsr	r31
    4fee:	87 95       	ror	r24
    4ff0:	77 95       	ror	r23
    4ff2:	67 95       	ror	r22
    4ff4:	b7 95       	ror	r27
    4ff6:	f1 11       	cpse	r31, r1
    4ff8:	f8 cf       	rjmp	.-16     	; 0x4fea <__floatsisf+0x1c>
    4ffa:	fa f4       	brpl	.+62     	; 0x503a <__floatsisf+0x6c>
    4ffc:	bb 0f       	add	r27, r27
    4ffe:	11 f4       	brne	.+4      	; 0x5004 <__floatsisf+0x36>
    5000:	60 ff       	sbrs	r22, 0
    5002:	1b c0       	rjmp	.+54     	; 0x503a <__floatsisf+0x6c>
    5004:	6f 5f       	subi	r22, 0xFF	; 255
    5006:	7f 4f       	sbci	r23, 0xFF	; 255
    5008:	8f 4f       	sbci	r24, 0xFF	; 255
    500a:	9f 4f       	sbci	r25, 0xFF	; 255
    500c:	16 c0       	rjmp	.+44     	; 0x503a <__floatsisf+0x6c>
    500e:	88 23       	and	r24, r24
    5010:	11 f0       	breq	.+4      	; 0x5016 <__floatsisf+0x48>
    5012:	96 e9       	ldi	r25, 0x96	; 150
    5014:	11 c0       	rjmp	.+34     	; 0x5038 <__floatsisf+0x6a>
    5016:	77 23       	and	r23, r23
    5018:	21 f0       	breq	.+8      	; 0x5022 <__floatsisf+0x54>
    501a:	9e e8       	ldi	r25, 0x8E	; 142
    501c:	87 2f       	mov	r24, r23
    501e:	76 2f       	mov	r23, r22
    5020:	05 c0       	rjmp	.+10     	; 0x502c <__floatsisf+0x5e>
    5022:	66 23       	and	r22, r22
    5024:	71 f0       	breq	.+28     	; 0x5042 <__floatsisf+0x74>
    5026:	96 e8       	ldi	r25, 0x86	; 134
    5028:	86 2f       	mov	r24, r22
    502a:	70 e0       	ldi	r23, 0x00	; 0
    502c:	60 e0       	ldi	r22, 0x00	; 0
    502e:	2a f0       	brmi	.+10     	; 0x503a <__floatsisf+0x6c>
    5030:	9a 95       	dec	r25
    5032:	66 0f       	add	r22, r22
    5034:	77 1f       	adc	r23, r23
    5036:	88 1f       	adc	r24, r24
    5038:	da f7       	brpl	.-10     	; 0x5030 <__floatsisf+0x62>
    503a:	88 0f       	add	r24, r24
    503c:	96 95       	lsr	r25
    503e:	87 95       	ror	r24
    5040:	97 f9       	bld	r25, 7
    5042:	08 95       	ret

00005044 <__fp_cmp>:
    5044:	99 0f       	add	r25, r25
    5046:	00 08       	sbc	r0, r0
    5048:	55 0f       	add	r21, r21
    504a:	aa 0b       	sbc	r26, r26
    504c:	e0 e8       	ldi	r30, 0x80	; 128
    504e:	fe ef       	ldi	r31, 0xFE	; 254
    5050:	16 16       	cp	r1, r22
    5052:	17 06       	cpc	r1, r23
    5054:	e8 07       	cpc	r30, r24
    5056:	f9 07       	cpc	r31, r25
    5058:	c0 f0       	brcs	.+48     	; 0x508a <__fp_cmp+0x46>
    505a:	12 16       	cp	r1, r18
    505c:	13 06       	cpc	r1, r19
    505e:	e4 07       	cpc	r30, r20
    5060:	f5 07       	cpc	r31, r21
    5062:	98 f0       	brcs	.+38     	; 0x508a <__fp_cmp+0x46>
    5064:	62 1b       	sub	r22, r18
    5066:	73 0b       	sbc	r23, r19
    5068:	84 0b       	sbc	r24, r20
    506a:	95 0b       	sbc	r25, r21
    506c:	39 f4       	brne	.+14     	; 0x507c <__fp_cmp+0x38>
    506e:	0a 26       	eor	r0, r26
    5070:	61 f0       	breq	.+24     	; 0x508a <__fp_cmp+0x46>
    5072:	23 2b       	or	r18, r19
    5074:	24 2b       	or	r18, r20
    5076:	25 2b       	or	r18, r21
    5078:	21 f4       	brne	.+8      	; 0x5082 <__fp_cmp+0x3e>
    507a:	08 95       	ret
    507c:	0a 26       	eor	r0, r26
    507e:	09 f4       	brne	.+2      	; 0x5082 <__fp_cmp+0x3e>
    5080:	a1 40       	sbci	r26, 0x01	; 1
    5082:	a6 95       	lsr	r26
    5084:	8f ef       	ldi	r24, 0xFF	; 255
    5086:	81 1d       	adc	r24, r1
    5088:	81 1d       	adc	r24, r1
    508a:	08 95       	ret

0000508c <__fp_inf>:
    508c:	97 f9       	bld	r25, 7
    508e:	9f 67       	ori	r25, 0x7F	; 127
    5090:	80 e8       	ldi	r24, 0x80	; 128
    5092:	70 e0       	ldi	r23, 0x00	; 0
    5094:	60 e0       	ldi	r22, 0x00	; 0
    5096:	08 95       	ret

00005098 <__fp_nan>:
    5098:	9f ef       	ldi	r25, 0xFF	; 255
    509a:	80 ec       	ldi	r24, 0xC0	; 192
    509c:	08 95       	ret

0000509e <__fp_pscA>:
    509e:	00 24       	eor	r0, r0
    50a0:	0a 94       	dec	r0
    50a2:	16 16       	cp	r1, r22
    50a4:	17 06       	cpc	r1, r23
    50a6:	18 06       	cpc	r1, r24
    50a8:	09 06       	cpc	r0, r25
    50aa:	08 95       	ret

000050ac <__fp_pscB>:
    50ac:	00 24       	eor	r0, r0
    50ae:	0a 94       	dec	r0
    50b0:	12 16       	cp	r1, r18
    50b2:	13 06       	cpc	r1, r19
    50b4:	14 06       	cpc	r1, r20
    50b6:	05 06       	cpc	r0, r21
    50b8:	08 95       	ret

000050ba <__fp_round>:
    50ba:	09 2e       	mov	r0, r25
    50bc:	03 94       	inc	r0
    50be:	00 0c       	add	r0, r0
    50c0:	11 f4       	brne	.+4      	; 0x50c6 <__fp_round+0xc>
    50c2:	88 23       	and	r24, r24
    50c4:	52 f0       	brmi	.+20     	; 0x50da <__fp_round+0x20>
    50c6:	bb 0f       	add	r27, r27
    50c8:	40 f4       	brcc	.+16     	; 0x50da <__fp_round+0x20>
    50ca:	bf 2b       	or	r27, r31
    50cc:	11 f4       	brne	.+4      	; 0x50d2 <__fp_round+0x18>
    50ce:	60 ff       	sbrs	r22, 0
    50d0:	04 c0       	rjmp	.+8      	; 0x50da <__fp_round+0x20>
    50d2:	6f 5f       	subi	r22, 0xFF	; 255
    50d4:	7f 4f       	sbci	r23, 0xFF	; 255
    50d6:	8f 4f       	sbci	r24, 0xFF	; 255
    50d8:	9f 4f       	sbci	r25, 0xFF	; 255
    50da:	08 95       	ret

000050dc <__fp_split3>:
    50dc:	57 fd       	sbrc	r21, 7
    50de:	90 58       	subi	r25, 0x80	; 128
    50e0:	44 0f       	add	r20, r20
    50e2:	55 1f       	adc	r21, r21
    50e4:	59 f0       	breq	.+22     	; 0x50fc <__fp_splitA+0x10>
    50e6:	5f 3f       	cpi	r21, 0xFF	; 255
    50e8:	71 f0       	breq	.+28     	; 0x5106 <__fp_splitA+0x1a>
    50ea:	47 95       	ror	r20

000050ec <__fp_splitA>:
    50ec:	88 0f       	add	r24, r24
    50ee:	97 fb       	bst	r25, 7
    50f0:	99 1f       	adc	r25, r25
    50f2:	61 f0       	breq	.+24     	; 0x510c <__fp_splitA+0x20>
    50f4:	9f 3f       	cpi	r25, 0xFF	; 255
    50f6:	79 f0       	breq	.+30     	; 0x5116 <__fp_splitA+0x2a>
    50f8:	87 95       	ror	r24
    50fa:	08 95       	ret
    50fc:	12 16       	cp	r1, r18
    50fe:	13 06       	cpc	r1, r19
    5100:	14 06       	cpc	r1, r20
    5102:	55 1f       	adc	r21, r21
    5104:	f2 cf       	rjmp	.-28     	; 0x50ea <__fp_split3+0xe>
    5106:	46 95       	lsr	r20
    5108:	f1 df       	rcall	.-30     	; 0x50ec <__fp_splitA>
    510a:	08 c0       	rjmp	.+16     	; 0x511c <__fp_splitA+0x30>
    510c:	16 16       	cp	r1, r22
    510e:	17 06       	cpc	r1, r23
    5110:	18 06       	cpc	r1, r24
    5112:	99 1f       	adc	r25, r25
    5114:	f1 cf       	rjmp	.-30     	; 0x50f8 <__fp_splitA+0xc>
    5116:	86 95       	lsr	r24
    5118:	71 05       	cpc	r23, r1
    511a:	61 05       	cpc	r22, r1
    511c:	08 94       	sec
    511e:	08 95       	ret

00005120 <__fp_zero>:
    5120:	e8 94       	clt

00005122 <__fp_szero>:
    5122:	bb 27       	eor	r27, r27
    5124:	66 27       	eor	r22, r22
    5126:	77 27       	eor	r23, r23
    5128:	cb 01       	movw	r24, r22
    512a:	97 f9       	bld	r25, 7
    512c:	08 95       	ret

0000512e <__gesf2>:
    512e:	0e 94 22 28 	call	0x5044	; 0x5044 <__fp_cmp>
    5132:	08 f4       	brcc	.+2      	; 0x5136 <__gesf2+0x8>
    5134:	8f ef       	ldi	r24, 0xFF	; 255
    5136:	08 95       	ret

00005138 <__mulsf3>:
    5138:	0e 94 af 28 	call	0x515e	; 0x515e <__mulsf3x>
    513c:	0c 94 5d 28 	jmp	0x50ba	; 0x50ba <__fp_round>
    5140:	0e 94 4f 28 	call	0x509e	; 0x509e <__fp_pscA>
    5144:	38 f0       	brcs	.+14     	; 0x5154 <__mulsf3+0x1c>
    5146:	0e 94 56 28 	call	0x50ac	; 0x50ac <__fp_pscB>
    514a:	20 f0       	brcs	.+8      	; 0x5154 <__mulsf3+0x1c>
    514c:	95 23       	and	r25, r21
    514e:	11 f0       	breq	.+4      	; 0x5154 <__mulsf3+0x1c>
    5150:	0c 94 46 28 	jmp	0x508c	; 0x508c <__fp_inf>
    5154:	0c 94 4c 28 	jmp	0x5098	; 0x5098 <__fp_nan>
    5158:	11 24       	eor	r1, r1
    515a:	0c 94 91 28 	jmp	0x5122	; 0x5122 <__fp_szero>

0000515e <__mulsf3x>:
    515e:	0e 94 6e 28 	call	0x50dc	; 0x50dc <__fp_split3>
    5162:	70 f3       	brcs	.-36     	; 0x5140 <__mulsf3+0x8>

00005164 <__mulsf3_pse>:
    5164:	95 9f       	mul	r25, r21
    5166:	c1 f3       	breq	.-16     	; 0x5158 <__mulsf3+0x20>
    5168:	95 0f       	add	r25, r21
    516a:	50 e0       	ldi	r21, 0x00	; 0
    516c:	55 1f       	adc	r21, r21
    516e:	62 9f       	mul	r22, r18
    5170:	f0 01       	movw	r30, r0
    5172:	72 9f       	mul	r23, r18
    5174:	bb 27       	eor	r27, r27
    5176:	f0 0d       	add	r31, r0
    5178:	b1 1d       	adc	r27, r1
    517a:	63 9f       	mul	r22, r19
    517c:	aa 27       	eor	r26, r26
    517e:	f0 0d       	add	r31, r0
    5180:	b1 1d       	adc	r27, r1
    5182:	aa 1f       	adc	r26, r26
    5184:	64 9f       	mul	r22, r20
    5186:	66 27       	eor	r22, r22
    5188:	b0 0d       	add	r27, r0
    518a:	a1 1d       	adc	r26, r1
    518c:	66 1f       	adc	r22, r22
    518e:	82 9f       	mul	r24, r18
    5190:	22 27       	eor	r18, r18
    5192:	b0 0d       	add	r27, r0
    5194:	a1 1d       	adc	r26, r1
    5196:	62 1f       	adc	r22, r18
    5198:	73 9f       	mul	r23, r19
    519a:	b0 0d       	add	r27, r0
    519c:	a1 1d       	adc	r26, r1
    519e:	62 1f       	adc	r22, r18
    51a0:	83 9f       	mul	r24, r19
    51a2:	a0 0d       	add	r26, r0
    51a4:	61 1d       	adc	r22, r1
    51a6:	22 1f       	adc	r18, r18
    51a8:	74 9f       	mul	r23, r20
    51aa:	33 27       	eor	r19, r19
    51ac:	a0 0d       	add	r26, r0
    51ae:	61 1d       	adc	r22, r1
    51b0:	23 1f       	adc	r18, r19
    51b2:	84 9f       	mul	r24, r20
    51b4:	60 0d       	add	r22, r0
    51b6:	21 1d       	adc	r18, r1
    51b8:	82 2f       	mov	r24, r18
    51ba:	76 2f       	mov	r23, r22
    51bc:	6a 2f       	mov	r22, r26
    51be:	11 24       	eor	r1, r1
    51c0:	9f 57       	subi	r25, 0x7F	; 127
    51c2:	50 40       	sbci	r21, 0x00	; 0
    51c4:	9a f0       	brmi	.+38     	; 0x51ec <__mulsf3_pse+0x88>
    51c6:	f1 f0       	breq	.+60     	; 0x5204 <__mulsf3_pse+0xa0>
    51c8:	88 23       	and	r24, r24
    51ca:	4a f0       	brmi	.+18     	; 0x51de <__mulsf3_pse+0x7a>
    51cc:	ee 0f       	add	r30, r30
    51ce:	ff 1f       	adc	r31, r31
    51d0:	bb 1f       	adc	r27, r27
    51d2:	66 1f       	adc	r22, r22
    51d4:	77 1f       	adc	r23, r23
    51d6:	88 1f       	adc	r24, r24
    51d8:	91 50       	subi	r25, 0x01	; 1
    51da:	50 40       	sbci	r21, 0x00	; 0
    51dc:	a9 f7       	brne	.-22     	; 0x51c8 <__mulsf3_pse+0x64>
    51de:	9e 3f       	cpi	r25, 0xFE	; 254
    51e0:	51 05       	cpc	r21, r1
    51e2:	80 f0       	brcs	.+32     	; 0x5204 <__mulsf3_pse+0xa0>
    51e4:	0c 94 46 28 	jmp	0x508c	; 0x508c <__fp_inf>
    51e8:	0c 94 91 28 	jmp	0x5122	; 0x5122 <__fp_szero>
    51ec:	5f 3f       	cpi	r21, 0xFF	; 255
    51ee:	e4 f3       	brlt	.-8      	; 0x51e8 <__mulsf3_pse+0x84>
    51f0:	98 3e       	cpi	r25, 0xE8	; 232
    51f2:	d4 f3       	brlt	.-12     	; 0x51e8 <__mulsf3_pse+0x84>
    51f4:	86 95       	lsr	r24
    51f6:	77 95       	ror	r23
    51f8:	67 95       	ror	r22
    51fa:	b7 95       	ror	r27
    51fc:	f7 95       	ror	r31
    51fe:	e7 95       	ror	r30
    5200:	9f 5f       	subi	r25, 0xFF	; 255
    5202:	c1 f7       	brne	.-16     	; 0x51f4 <__mulsf3_pse+0x90>
    5204:	fe 2b       	or	r31, r30
    5206:	88 0f       	add	r24, r24
    5208:	91 1d       	adc	r25, r1
    520a:	96 95       	lsr	r25
    520c:	87 95       	ror	r24
    520e:	97 f9       	bld	r25, 7
    5210:	08 95       	ret

00005212 <__ftoa_engine>:
    5212:	28 30       	cpi	r18, 0x08	; 8
    5214:	08 f0       	brcs	.+2      	; 0x5218 <__ftoa_engine+0x6>
    5216:	27 e0       	ldi	r18, 0x07	; 7
    5218:	33 27       	eor	r19, r19
    521a:	da 01       	movw	r26, r20
    521c:	99 0f       	add	r25, r25
    521e:	31 1d       	adc	r19, r1
    5220:	87 fd       	sbrc	r24, 7
    5222:	91 60       	ori	r25, 0x01	; 1
    5224:	00 96       	adiw	r24, 0x00	; 0
    5226:	61 05       	cpc	r22, r1
    5228:	71 05       	cpc	r23, r1
    522a:	39 f4       	brne	.+14     	; 0x523a <__ftoa_engine+0x28>
    522c:	32 60       	ori	r19, 0x02	; 2
    522e:	2e 5f       	subi	r18, 0xFE	; 254
    5230:	3d 93       	st	X+, r19
    5232:	30 e3       	ldi	r19, 0x30	; 48
    5234:	2a 95       	dec	r18
    5236:	e1 f7       	brne	.-8      	; 0x5230 <__ftoa_engine+0x1e>
    5238:	08 95       	ret
    523a:	9f 3f       	cpi	r25, 0xFF	; 255
    523c:	30 f0       	brcs	.+12     	; 0x524a <__ftoa_engine+0x38>
    523e:	80 38       	cpi	r24, 0x80	; 128
    5240:	71 05       	cpc	r23, r1
    5242:	61 05       	cpc	r22, r1
    5244:	09 f0       	breq	.+2      	; 0x5248 <__ftoa_engine+0x36>
    5246:	3c 5f       	subi	r19, 0xFC	; 252
    5248:	3c 5f       	subi	r19, 0xFC	; 252
    524a:	3d 93       	st	X+, r19
    524c:	91 30       	cpi	r25, 0x01	; 1
    524e:	08 f0       	brcs	.+2      	; 0x5252 <__ftoa_engine+0x40>
    5250:	80 68       	ori	r24, 0x80	; 128
    5252:	91 1d       	adc	r25, r1
    5254:	df 93       	push	r29
    5256:	cf 93       	push	r28
    5258:	1f 93       	push	r17
    525a:	0f 93       	push	r16
    525c:	ff 92       	push	r15
    525e:	ef 92       	push	r14
    5260:	19 2f       	mov	r17, r25
    5262:	98 7f       	andi	r25, 0xF8	; 248
    5264:	96 95       	lsr	r25
    5266:	e9 2f       	mov	r30, r25
    5268:	96 95       	lsr	r25
    526a:	96 95       	lsr	r25
    526c:	e9 0f       	add	r30, r25
    526e:	ff 27       	eor	r31, r31
    5270:	ea 51       	subi	r30, 0x1A	; 26
    5272:	ff 4f       	sbci	r31, 0xFF	; 255
    5274:	99 27       	eor	r25, r25
    5276:	33 27       	eor	r19, r19
    5278:	ee 24       	eor	r14, r14
    527a:	ff 24       	eor	r15, r15
    527c:	a7 01       	movw	r20, r14
    527e:	e7 01       	movw	r28, r14
    5280:	05 90       	lpm	r0, Z+
    5282:	08 94       	sec
    5284:	07 94       	ror	r0
    5286:	28 f4       	brcc	.+10     	; 0x5292 <__ftoa_engine+0x80>
    5288:	36 0f       	add	r19, r22
    528a:	e7 1e       	adc	r14, r23
    528c:	f8 1e       	adc	r15, r24
    528e:	49 1f       	adc	r20, r25
    5290:	51 1d       	adc	r21, r1
    5292:	66 0f       	add	r22, r22
    5294:	77 1f       	adc	r23, r23
    5296:	88 1f       	adc	r24, r24
    5298:	99 1f       	adc	r25, r25
    529a:	06 94       	lsr	r0
    529c:	a1 f7       	brne	.-24     	; 0x5286 <__ftoa_engine+0x74>
    529e:	05 90       	lpm	r0, Z+
    52a0:	07 94       	ror	r0
    52a2:	28 f4       	brcc	.+10     	; 0x52ae <__ftoa_engine+0x9c>
    52a4:	e7 0e       	add	r14, r23
    52a6:	f8 1e       	adc	r15, r24
    52a8:	49 1f       	adc	r20, r25
    52aa:	56 1f       	adc	r21, r22
    52ac:	c1 1d       	adc	r28, r1
    52ae:	77 0f       	add	r23, r23
    52b0:	88 1f       	adc	r24, r24
    52b2:	99 1f       	adc	r25, r25
    52b4:	66 1f       	adc	r22, r22
    52b6:	06 94       	lsr	r0
    52b8:	a1 f7       	brne	.-24     	; 0x52a2 <__ftoa_engine+0x90>
    52ba:	05 90       	lpm	r0, Z+
    52bc:	07 94       	ror	r0
    52be:	28 f4       	brcc	.+10     	; 0x52ca <__ftoa_engine+0xb8>
    52c0:	f8 0e       	add	r15, r24
    52c2:	49 1f       	adc	r20, r25
    52c4:	56 1f       	adc	r21, r22
    52c6:	c7 1f       	adc	r28, r23
    52c8:	d1 1d       	adc	r29, r1
    52ca:	88 0f       	add	r24, r24
    52cc:	99 1f       	adc	r25, r25
    52ce:	66 1f       	adc	r22, r22
    52d0:	77 1f       	adc	r23, r23
    52d2:	06 94       	lsr	r0
    52d4:	a1 f7       	brne	.-24     	; 0x52be <__ftoa_engine+0xac>
    52d6:	05 90       	lpm	r0, Z+
    52d8:	07 94       	ror	r0
    52da:	20 f4       	brcc	.+8      	; 0x52e4 <__ftoa_engine+0xd2>
    52dc:	49 0f       	add	r20, r25
    52de:	56 1f       	adc	r21, r22
    52e0:	c7 1f       	adc	r28, r23
    52e2:	d8 1f       	adc	r29, r24
    52e4:	99 0f       	add	r25, r25
    52e6:	66 1f       	adc	r22, r22
    52e8:	77 1f       	adc	r23, r23
    52ea:	88 1f       	adc	r24, r24
    52ec:	06 94       	lsr	r0
    52ee:	a9 f7       	brne	.-22     	; 0x52da <__ftoa_engine+0xc8>
    52f0:	84 91       	lpm	r24, Z
    52f2:	10 95       	com	r17
    52f4:	17 70       	andi	r17, 0x07	; 7
    52f6:	41 f0       	breq	.+16     	; 0x5308 <__ftoa_engine+0xf6>
    52f8:	d6 95       	lsr	r29
    52fa:	c7 95       	ror	r28
    52fc:	57 95       	ror	r21
    52fe:	47 95       	ror	r20
    5300:	f7 94       	ror	r15
    5302:	e7 94       	ror	r14
    5304:	1a 95       	dec	r17
    5306:	c1 f7       	brne	.-16     	; 0x52f8 <__ftoa_engine+0xe6>
    5308:	ec e8       	ldi	r30, 0x8C	; 140
    530a:	f0 e0       	ldi	r31, 0x00	; 0
    530c:	68 94       	set
    530e:	15 90       	lpm	r1, Z+
    5310:	15 91       	lpm	r17, Z+
    5312:	35 91       	lpm	r19, Z+
    5314:	65 91       	lpm	r22, Z+
    5316:	95 91       	lpm	r25, Z+
    5318:	05 90       	lpm	r0, Z+
    531a:	7f e2       	ldi	r23, 0x2F	; 47
    531c:	73 95       	inc	r23
    531e:	e1 18       	sub	r14, r1
    5320:	f1 0a       	sbc	r15, r17
    5322:	43 0b       	sbc	r20, r19
    5324:	56 0b       	sbc	r21, r22
    5326:	c9 0b       	sbc	r28, r25
    5328:	d0 09       	sbc	r29, r0
    532a:	c0 f7       	brcc	.-16     	; 0x531c <__ftoa_engine+0x10a>
    532c:	e1 0c       	add	r14, r1
    532e:	f1 1e       	adc	r15, r17
    5330:	43 1f       	adc	r20, r19
    5332:	56 1f       	adc	r21, r22
    5334:	c9 1f       	adc	r28, r25
    5336:	d0 1d       	adc	r29, r0
    5338:	7e f4       	brtc	.+30     	; 0x5358 <__ftoa_engine+0x146>
    533a:	70 33       	cpi	r23, 0x30	; 48
    533c:	11 f4       	brne	.+4      	; 0x5342 <__ftoa_engine+0x130>
    533e:	8a 95       	dec	r24
    5340:	e6 cf       	rjmp	.-52     	; 0x530e <__ftoa_engine+0xfc>
    5342:	e8 94       	clt
    5344:	01 50       	subi	r16, 0x01	; 1
    5346:	30 f0       	brcs	.+12     	; 0x5354 <__ftoa_engine+0x142>
    5348:	08 0f       	add	r16, r24
    534a:	0a f4       	brpl	.+2      	; 0x534e <__ftoa_engine+0x13c>
    534c:	00 27       	eor	r16, r16
    534e:	02 17       	cp	r16, r18
    5350:	08 f4       	brcc	.+2      	; 0x5354 <__ftoa_engine+0x142>
    5352:	20 2f       	mov	r18, r16
    5354:	23 95       	inc	r18
    5356:	02 2f       	mov	r16, r18
    5358:	7a 33       	cpi	r23, 0x3A	; 58
    535a:	28 f0       	brcs	.+10     	; 0x5366 <__ftoa_engine+0x154>
    535c:	79 e3       	ldi	r23, 0x39	; 57
    535e:	7d 93       	st	X+, r23
    5360:	2a 95       	dec	r18
    5362:	e9 f7       	brne	.-6      	; 0x535e <__ftoa_engine+0x14c>
    5364:	10 c0       	rjmp	.+32     	; 0x5386 <__ftoa_engine+0x174>
    5366:	7d 93       	st	X+, r23
    5368:	2a 95       	dec	r18
    536a:	89 f6       	brne	.-94     	; 0x530e <__ftoa_engine+0xfc>
    536c:	06 94       	lsr	r0
    536e:	97 95       	ror	r25
    5370:	67 95       	ror	r22
    5372:	37 95       	ror	r19
    5374:	17 95       	ror	r17
    5376:	17 94       	ror	r1
    5378:	e1 18       	sub	r14, r1
    537a:	f1 0a       	sbc	r15, r17
    537c:	43 0b       	sbc	r20, r19
    537e:	56 0b       	sbc	r21, r22
    5380:	c9 0b       	sbc	r28, r25
    5382:	d0 09       	sbc	r29, r0
    5384:	98 f0       	brcs	.+38     	; 0x53ac <__ftoa_engine+0x19a>
    5386:	23 95       	inc	r18
    5388:	7e 91       	ld	r23, -X
    538a:	73 95       	inc	r23
    538c:	7a 33       	cpi	r23, 0x3A	; 58
    538e:	08 f0       	brcs	.+2      	; 0x5392 <__ftoa_engine+0x180>
    5390:	70 e3       	ldi	r23, 0x30	; 48
    5392:	7c 93       	st	X, r23
    5394:	20 13       	cpse	r18, r16
    5396:	b8 f7       	brcc	.-18     	; 0x5386 <__ftoa_engine+0x174>
    5398:	7e 91       	ld	r23, -X
    539a:	70 61       	ori	r23, 0x10	; 16
    539c:	7d 93       	st	X+, r23
    539e:	30 f0       	brcs	.+12     	; 0x53ac <__ftoa_engine+0x19a>
    53a0:	83 95       	inc	r24
    53a2:	71 e3       	ldi	r23, 0x31	; 49
    53a4:	7d 93       	st	X+, r23
    53a6:	70 e3       	ldi	r23, 0x30	; 48
    53a8:	2a 95       	dec	r18
    53aa:	e1 f7       	brne	.-8      	; 0x53a4 <__ftoa_engine+0x192>
    53ac:	11 24       	eor	r1, r1
    53ae:	ef 90       	pop	r14
    53b0:	ff 90       	pop	r15
    53b2:	0f 91       	pop	r16
    53b4:	1f 91       	pop	r17
    53b6:	cf 91       	pop	r28
    53b8:	df 91       	pop	r29
    53ba:	99 27       	eor	r25, r25
    53bc:	87 fd       	sbrc	r24, 7
    53be:	90 95       	com	r25
    53c0:	08 95       	ret

000053c2 <strnlen_P>:
    53c2:	fc 01       	movw	r30, r24
    53c4:	05 90       	lpm	r0, Z+
    53c6:	61 50       	subi	r22, 0x01	; 1
    53c8:	70 40       	sbci	r23, 0x00	; 0
    53ca:	01 10       	cpse	r0, r1
    53cc:	d8 f7       	brcc	.-10     	; 0x53c4 <strnlen_P+0x2>
    53ce:	80 95       	com	r24
    53d0:	90 95       	com	r25
    53d2:	8e 0f       	add	r24, r30
    53d4:	9f 1f       	adc	r25, r31
    53d6:	08 95       	ret

000053d8 <strnlen>:
    53d8:	fc 01       	movw	r30, r24
    53da:	61 50       	subi	r22, 0x01	; 1
    53dc:	70 40       	sbci	r23, 0x00	; 0
    53de:	01 90       	ld	r0, Z+
    53e0:	01 10       	cpse	r0, r1
    53e2:	d8 f7       	brcc	.-10     	; 0x53da <strnlen+0x2>
    53e4:	80 95       	com	r24
    53e6:	90 95       	com	r25
    53e8:	8e 0f       	add	r24, r30
    53ea:	9f 1f       	adc	r25, r31
    53ec:	08 95       	ret

000053ee <fputc>:
    53ee:	0f 93       	push	r16
    53f0:	1f 93       	push	r17
    53f2:	cf 93       	push	r28
    53f4:	df 93       	push	r29
    53f6:	fb 01       	movw	r30, r22
    53f8:	23 81       	ldd	r18, Z+3	; 0x03
    53fa:	21 fd       	sbrc	r18, 1
    53fc:	03 c0       	rjmp	.+6      	; 0x5404 <fputc+0x16>
    53fe:	8f ef       	ldi	r24, 0xFF	; 255
    5400:	9f ef       	ldi	r25, 0xFF	; 255
    5402:	2c c0       	rjmp	.+88     	; 0x545c <fputc+0x6e>
    5404:	22 ff       	sbrs	r18, 2
    5406:	16 c0       	rjmp	.+44     	; 0x5434 <fputc+0x46>
    5408:	46 81       	ldd	r20, Z+6	; 0x06
    540a:	57 81       	ldd	r21, Z+7	; 0x07
    540c:	24 81       	ldd	r18, Z+4	; 0x04
    540e:	35 81       	ldd	r19, Z+5	; 0x05
    5410:	42 17       	cp	r20, r18
    5412:	53 07       	cpc	r21, r19
    5414:	44 f4       	brge	.+16     	; 0x5426 <fputc+0x38>
    5416:	a0 81       	ld	r26, Z
    5418:	b1 81       	ldd	r27, Z+1	; 0x01
    541a:	9d 01       	movw	r18, r26
    541c:	2f 5f       	subi	r18, 0xFF	; 255
    541e:	3f 4f       	sbci	r19, 0xFF	; 255
    5420:	31 83       	std	Z+1, r19	; 0x01
    5422:	20 83       	st	Z, r18
    5424:	8c 93       	st	X, r24
    5426:	26 81       	ldd	r18, Z+6	; 0x06
    5428:	37 81       	ldd	r19, Z+7	; 0x07
    542a:	2f 5f       	subi	r18, 0xFF	; 255
    542c:	3f 4f       	sbci	r19, 0xFF	; 255
    542e:	37 83       	std	Z+7, r19	; 0x07
    5430:	26 83       	std	Z+6, r18	; 0x06
    5432:	14 c0       	rjmp	.+40     	; 0x545c <fputc+0x6e>
    5434:	8b 01       	movw	r16, r22
    5436:	ec 01       	movw	r28, r24
    5438:	fb 01       	movw	r30, r22
    543a:	00 84       	ldd	r0, Z+8	; 0x08
    543c:	f1 85       	ldd	r31, Z+9	; 0x09
    543e:	e0 2d       	mov	r30, r0
    5440:	09 95       	icall
    5442:	89 2b       	or	r24, r25
    5444:	e1 f6       	brne	.-72     	; 0x53fe <fputc+0x10>
    5446:	d8 01       	movw	r26, r16
    5448:	16 96       	adiw	r26, 0x06	; 6
    544a:	8d 91       	ld	r24, X+
    544c:	9c 91       	ld	r25, X
    544e:	17 97       	sbiw	r26, 0x07	; 7
    5450:	01 96       	adiw	r24, 0x01	; 1
    5452:	17 96       	adiw	r26, 0x07	; 7
    5454:	9c 93       	st	X, r25
    5456:	8e 93       	st	-X, r24
    5458:	16 97       	sbiw	r26, 0x06	; 6
    545a:	ce 01       	movw	r24, r28
    545c:	df 91       	pop	r29
    545e:	cf 91       	pop	r28
    5460:	1f 91       	pop	r17
    5462:	0f 91       	pop	r16
    5464:	08 95       	ret

00005466 <sprintf>:
    5466:	ae e0       	ldi	r26, 0x0E	; 14
    5468:	b0 e0       	ldi	r27, 0x00	; 0
    546a:	e9 e3       	ldi	r30, 0x39	; 57
    546c:	fa e2       	ldi	r31, 0x2A	; 42
    546e:	0c 94 8e 26 	jmp	0x4d1c	; 0x4d1c <__prologue_saves__+0x1c>
    5472:	0d 89       	ldd	r16, Y+21	; 0x15
    5474:	1e 89       	ldd	r17, Y+22	; 0x16
    5476:	86 e0       	ldi	r24, 0x06	; 6
    5478:	8c 83       	std	Y+4, r24	; 0x04
    547a:	1a 83       	std	Y+2, r17	; 0x02
    547c:	09 83       	std	Y+1, r16	; 0x01
    547e:	8f ef       	ldi	r24, 0xFF	; 255
    5480:	9f e7       	ldi	r25, 0x7F	; 127
    5482:	9e 83       	std	Y+6, r25	; 0x06
    5484:	8d 83       	std	Y+5, r24	; 0x05
    5486:	ae 01       	movw	r20, r28
    5488:	47 5e       	subi	r20, 0xE7	; 231
    548a:	5f 4f       	sbci	r21, 0xFF	; 255
    548c:	6f 89       	ldd	r22, Y+23	; 0x17
    548e:	78 8d       	ldd	r23, Y+24	; 0x18
    5490:	ce 01       	movw	r24, r28
    5492:	01 96       	adiw	r24, 0x01	; 1
    5494:	0e 94 da 22 	call	0x45b4	; 0x45b4 <vfprintf>
    5498:	ef 81       	ldd	r30, Y+7	; 0x07
    549a:	f8 85       	ldd	r31, Y+8	; 0x08
    549c:	e0 0f       	add	r30, r16
    549e:	f1 1f       	adc	r31, r17
    54a0:	10 82       	st	Z, r1
    54a2:	2e 96       	adiw	r28, 0x0e	; 14
    54a4:	e4 e0       	ldi	r30, 0x04	; 4
    54a6:	0c 94 aa 26 	jmp	0x4d54	; 0x4d54 <__epilogue_restores__+0x1c>

000054aa <__ultoa_invert>:
    54aa:	fa 01       	movw	r30, r20
    54ac:	aa 27       	eor	r26, r26
    54ae:	28 30       	cpi	r18, 0x08	; 8
    54b0:	51 f1       	breq	.+84     	; 0x5506 <__ultoa_invert+0x5c>
    54b2:	20 31       	cpi	r18, 0x10	; 16
    54b4:	81 f1       	breq	.+96     	; 0x5516 <__ultoa_invert+0x6c>
    54b6:	e8 94       	clt
    54b8:	6f 93       	push	r22
    54ba:	6e 7f       	andi	r22, 0xFE	; 254
    54bc:	6e 5f       	subi	r22, 0xFE	; 254
    54be:	7f 4f       	sbci	r23, 0xFF	; 255
    54c0:	8f 4f       	sbci	r24, 0xFF	; 255
    54c2:	9f 4f       	sbci	r25, 0xFF	; 255
    54c4:	af 4f       	sbci	r26, 0xFF	; 255
    54c6:	b1 e0       	ldi	r27, 0x01	; 1
    54c8:	3e d0       	rcall	.+124    	; 0x5546 <__ultoa_invert+0x9c>
    54ca:	b4 e0       	ldi	r27, 0x04	; 4
    54cc:	3c d0       	rcall	.+120    	; 0x5546 <__ultoa_invert+0x9c>
    54ce:	67 0f       	add	r22, r23
    54d0:	78 1f       	adc	r23, r24
    54d2:	89 1f       	adc	r24, r25
    54d4:	9a 1f       	adc	r25, r26
    54d6:	a1 1d       	adc	r26, r1
    54d8:	68 0f       	add	r22, r24
    54da:	79 1f       	adc	r23, r25
    54dc:	8a 1f       	adc	r24, r26
    54de:	91 1d       	adc	r25, r1
    54e0:	a1 1d       	adc	r26, r1
    54e2:	6a 0f       	add	r22, r26
    54e4:	71 1d       	adc	r23, r1
    54e6:	81 1d       	adc	r24, r1
    54e8:	91 1d       	adc	r25, r1
    54ea:	a1 1d       	adc	r26, r1
    54ec:	20 d0       	rcall	.+64     	; 0x552e <__ultoa_invert+0x84>
    54ee:	09 f4       	brne	.+2      	; 0x54f2 <__ultoa_invert+0x48>
    54f0:	68 94       	set
    54f2:	3f 91       	pop	r19
    54f4:	2a e0       	ldi	r18, 0x0A	; 10
    54f6:	26 9f       	mul	r18, r22
    54f8:	11 24       	eor	r1, r1
    54fa:	30 19       	sub	r19, r0
    54fc:	30 5d       	subi	r19, 0xD0	; 208
    54fe:	31 93       	st	Z+, r19
    5500:	de f6       	brtc	.-74     	; 0x54b8 <__ultoa_invert+0xe>
    5502:	cf 01       	movw	r24, r30
    5504:	08 95       	ret
    5506:	46 2f       	mov	r20, r22
    5508:	47 70       	andi	r20, 0x07	; 7
    550a:	40 5d       	subi	r20, 0xD0	; 208
    550c:	41 93       	st	Z+, r20
    550e:	b3 e0       	ldi	r27, 0x03	; 3
    5510:	0f d0       	rcall	.+30     	; 0x5530 <__ultoa_invert+0x86>
    5512:	c9 f7       	brne	.-14     	; 0x5506 <__ultoa_invert+0x5c>
    5514:	f6 cf       	rjmp	.-20     	; 0x5502 <__ultoa_invert+0x58>
    5516:	46 2f       	mov	r20, r22
    5518:	4f 70       	andi	r20, 0x0F	; 15
    551a:	40 5d       	subi	r20, 0xD0	; 208
    551c:	4a 33       	cpi	r20, 0x3A	; 58
    551e:	18 f0       	brcs	.+6      	; 0x5526 <__ultoa_invert+0x7c>
    5520:	49 5d       	subi	r20, 0xD9	; 217
    5522:	31 fd       	sbrc	r19, 1
    5524:	40 52       	subi	r20, 0x20	; 32
    5526:	41 93       	st	Z+, r20
    5528:	02 d0       	rcall	.+4      	; 0x552e <__ultoa_invert+0x84>
    552a:	a9 f7       	brne	.-22     	; 0x5516 <__ultoa_invert+0x6c>
    552c:	ea cf       	rjmp	.-44     	; 0x5502 <__ultoa_invert+0x58>
    552e:	b4 e0       	ldi	r27, 0x04	; 4
    5530:	a6 95       	lsr	r26
    5532:	97 95       	ror	r25
    5534:	87 95       	ror	r24
    5536:	77 95       	ror	r23
    5538:	67 95       	ror	r22
    553a:	ba 95       	dec	r27
    553c:	c9 f7       	brne	.-14     	; 0x5530 <__ultoa_invert+0x86>
    553e:	00 97       	sbiw	r24, 0x00	; 0
    5540:	61 05       	cpc	r22, r1
    5542:	71 05       	cpc	r23, r1
    5544:	08 95       	ret
    5546:	9b 01       	movw	r18, r22
    5548:	ac 01       	movw	r20, r24
    554a:	0a 2e       	mov	r0, r26
    554c:	06 94       	lsr	r0
    554e:	57 95       	ror	r21
    5550:	47 95       	ror	r20
    5552:	37 95       	ror	r19
    5554:	27 95       	ror	r18
    5556:	ba 95       	dec	r27
    5558:	c9 f7       	brne	.-14     	; 0x554c <__ultoa_invert+0xa2>
    555a:	62 0f       	add	r22, r18
    555c:	73 1f       	adc	r23, r19
    555e:	84 1f       	adc	r24, r20
    5560:	95 1f       	adc	r25, r21
    5562:	a0 1d       	adc	r26, r0
    5564:	08 95       	ret

00005566 <_exit>:
    5566:	f8 94       	cli

00005568 <__stop_program>:
    5568:	ff cf       	rjmp	.-2      	; 0x5568 <__stop_program>
